EXPORTS
 "_frogger_deserialize_vector"
 "_frogger_list_model_configurations"
 "_frogger_run_base_model"
 "_frogger_run_base_model_from_state"
 "_frogger_run_base_model_single_year"
 "_frogger_serialize_vector"
 "_Z13get_last_callv"
 "_Z14make_conditionRKNSt7__cxx1112basic_stringIcSt11char_traitsIcESaIcEEEP7SEXPRECS8_S8_"
 "_Z19string_to_try_errorRKNSt7__cxx1112basic_stringIcSt11char_traitsIcESaIcEEE"
 "_Z20rcpp_get_stack_tracev"
 "_Z20rcpp_set_stack_traceP7SEXPREC"
 "_Z21get_exception_classesRKNSt7__cxx1112basic_stringIcSt11char_traitsIcESaIcEEE"
 "_Z24exception_to_r_conditionRKSt9exception"
 "_Z29rcpp_exception_to_r_conditionRKN4Rcpp9exceptionE"
 "_Z31exception_to_condition_templateIN4Rcpp9exceptionEEP7SEXPRECRKT_b"
 "_Z31exception_to_condition_templateISt9exceptionEP7SEXPRECRKT_b"
 "_Z7dataptrP7SEXPREC"
 "_Z8demangleRKNSt7__cxx1112basic_stringIcSt11char_traitsIcESaIcEEE"
 "_ZGVZ20rcpp_get_stack_tracevE3fun"
 "_ZGVZ20rcpp_set_stack_traceP7SEXPRECE3fun"
 "_ZGVZ7dataptrP7SEXPRECE3fun"
 "_ZGVZ8demangleRKNSt7__cxx1112basic_stringIcSt11char_traitsIcESaIcEEEE3funB5cxx11"
 "_ZGVZN4Rcpp20Rcpp_precious_removeEP7SEXPRECE3fun"
 "_ZGVZN4Rcpp22Rcpp_precious_preserveEP7SEXPRECE3fun"
 "_ZGVZN4Rcpp8internal12exitRNGScopeEvE3fun"
 "_ZGVZN4Rcpp8internal13enterRNGScopeEvE3fun"
 "_ZN10tinyformat10FormatListC2EPNS_6detail9FormatArgEi"
 "_ZN10tinyformat11formatValueIiEEvRSoPKcS3_iRKT_"
 "_ZN10tinyformat11formatValueIPKcEEvRSoS2_S2_iRKT_"
 "_ZN10tinyformat14makeFormatListIJiEEENS_6detail11FormatListNIXsZT_EEEDpRKT_"
 "_ZN10tinyformat14makeFormatListIJPKcEEENS_6detail11FormatListNIXsZT_EEEDpRKT_"
 "_ZN10tinyformat14makeFormatListIJPKciEEENS_6detail11FormatListNIXsZT_EEEDpRKT_"
 "_ZN10tinyformat6detail10formatImplERSoPKcPKNS0_9FormatArgEi"
 "_ZN10tinyformat6detail11FormatListNILi1EEC1IJiEEEDpRKT_"
 "_ZN10tinyformat6detail11FormatListNILi1EEC1IJPKcEEEDpRKT_"
 "_ZN10tinyformat6detail11FormatListNILi2EEC1IJPKciEEEDpRKT_"
 "_ZN10tinyformat6detail12convertToIntIiLb1EE6invokeERKi"
 "_ZN10tinyformat6detail12convertToIntIPKcLb0EE6invokeERKS3_"
 "_ZN10tinyformat6detail15formatTruncatedERSoPKci"
 "_ZN10tinyformat6detail15formatTruncatedIiEEvRSoRKT_i"
 "_ZN10tinyformat6detail17formatValueAsTypeIicLb1EE6invokeERSoRKi"
 "_ZN10tinyformat6detail17formatValueAsTypeIPKcPKvLb1EE6invokeERSoRKS3_"
 "_ZN10tinyformat6detail18parseIntAndAdvanceERPKc"
 "_ZN10tinyformat6detail21streamStateFromFormatERSoRbRiPKcPKNS0_9FormatArgES3_i"
 "_ZN10tinyformat6detail24printFormatStringLiteralERSoPKc"
 "_ZN10tinyformat6detail9FormatArg10formatImplIiEEvRSoPKcS5_iPKv"
 "_ZN10tinyformat6detail9FormatArg10formatImplIPKcEEvRSoS4_S4_iPKv"
 "_ZN10tinyformat6detail9FormatArg9toIntImplIiEEiPKv"
 "_ZN10tinyformat6detail9FormatArg9toIntImplIPKcEEiPKv"
 "_ZN10tinyformat6detail9FormatArgC1IiEERKT_"
 "_ZN10tinyformat6detail9FormatArgC1IPKcEERKT_"
 "_ZN10tinyformat6formatIJiEEENSt7__cxx1112basic_stringIcSt11char_traitsIcESaIcEEEPKcDpRKT_"
 "_ZN10tinyformat6formatIJiEEEvRSoPKcDpRKT_"
 "_ZN10tinyformat6formatIJPKcEEENSt7__cxx1112basic_stringIcSt11char_traitsIcESaIcEEES2_DpRKT_"
 "_ZN10tinyformat6formatIJPKcEEEvRSoS2_DpRKT_"
 "_ZN10tinyformat6formatIJPKciEEENSt7__cxx1112basic_stringIcSt11char_traitsIcESaIcEEES2_DpRKT_"
 "_ZN10tinyformat6formatIJPKciEEEvRSoS2_DpRKT_"
 "_ZN10tinyformat7vformatERSoPKcRKNS_10FormatListE"
 "_ZN4Rcpp10RstreambufILb0EE4syncEv"
 "_ZN4Rcpp10RstreambufILb0EE6xsputnEPKcx"
 "_ZN4Rcpp10RstreambufILb0EE8overflowEi"
 "_ZN4Rcpp10RstreambufILb0EEC1Ev"
 "_ZN4Rcpp10RstreambufILb0EED0Ev"
 "_ZN4Rcpp10RstreambufILb0EED1Ev"
 "_ZN4Rcpp10RstreambufILb1EE4syncEv"
 "_ZN4Rcpp10RstreambufILb1EE6xsputnEPKcx"
 "_ZN4Rcpp10RstreambufILb1EE8overflowEi"
 "_ZN4Rcpp10RstreambufILb1EEC1Ev"
 "_ZN4Rcpp10RstreambufILb1EED0Ev"
 "_ZN4Rcpp10RstreambufILb1EED1Ev"
 "_ZN4Rcpp12Rcpp_protectEP7SEXPREC"
 "_ZN4Rcpp12RObject_ImplINS_15PreserveStorageEE6updateEP7SEXPREC"
 "_ZN4Rcpp12RObject_ImplINS_15PreserveStorageEEaSIP7SEXPRECEERS2_RKT_"
 "_ZN4Rcpp12RObject_ImplINS_15PreserveStorageEEC1Ev"
 "_ZN4Rcpp12RObject_ImplINS_15PreserveStorageEED1Ev"
 "_ZN4Rcpp13unwindProtectEPFP7SEXPRECPvES2_"
 "_ZN4Rcpp14InputParameterIiEC1EP7SEXPREC"
 "_ZN4Rcpp14InputParameterIiEcviEv"
 "_ZN4Rcpp14not_compatibleC1IJiEEEPKcDpOT_"
 "_ZN4Rcpp14not_compatibleC1IJPKciEEES3_DpOT_"
 "_ZN4Rcpp14not_compatibleC1IJRKPKcEEES3_DpOT_"
 "_ZN4Rcpp14not_compatibleD0Ev"
 "_ZN4Rcpp14not_compatibleD1Ev"
 "_ZN4Rcpp14Rcpp_fast_evalEP7SEXPRECS1_"
 "_ZN4Rcpp14Rcpp_unprotectEi"
 "_ZN4Rcpp15PreserveStorageINS_12RObject_ImplIS0_EEE5set__EP7SEXPREC"
 "_ZN4Rcpp15PreserveStorageINS_12RObject_ImplIS0_EEEC2Ev"
 "_ZN4Rcpp15PreserveStorageINS_12RObject_ImplIS0_EEED2Ev"
 "_ZN4Rcpp15PreserveStorageINS_6VectorILi16ES0_EEE5set__EP7SEXPREC"
 "_ZN4Rcpp15PreserveStorageINS_6VectorILi16ES0_EEEC2Ev"
 "_ZN4Rcpp15PreserveStorageINS_6VectorILi16ES0_EEED2Ev"
 "_ZN4Rcpp15PreserveStorageINS_6VectorILi19ES0_EEE5set__EP7SEXPREC"
 "_ZN4Rcpp15PreserveStorageINS_6VectorILi19ES0_EEE6copy__IS2_EERT_RKS5_"
 "_ZN4Rcpp15PreserveStorageINS_6VectorILi19ES0_EEEC2Ev"
 "_ZN4Rcpp15PreserveStorageINS_6VectorILi19ES0_EEED2Ev"
 "_ZN4Rcpp17LongjumpExceptionC1EP7SEXPREC"
 "_ZN4Rcpp19ConstInputParameterINS_6VectorILi19ENS_15PreserveStorageEEEEC1EP7SEXPREC"
 "_ZN4Rcpp19ConstInputParameterINS_6VectorILi19ENS_15PreserveStorageEEEEcvKS3_Ev"
 "_ZN4Rcpp19ConstInputParameterINS_6VectorILi19ENS_15PreserveStorageEEEED1Ev"
 "_ZN4Rcpp19ConstInputParameterINSt7__cxx1112basic_stringIcSt11char_traitsIcESaIcEEEEC1EP7SEXPREC"
 "_ZN4Rcpp19ConstInputParameterINSt7__cxx1112basic_stringIcSt11char_traitsIcESaIcEEEEcvKS6_Ev"
 "_ZN4Rcpp19ConstInputParameterINSt7__cxx1112basic_stringIcSt11char_traitsIcESaIcEEEED1Ev"
 "_ZN4Rcpp19ConstInputParameterISt6vectorIiSaIiEEEC1EP7SEXPREC"
 "_ZN4Rcpp19ConstInputParameterISt6vectorIiSaIiEEEcvKS3_Ev"
 "_ZN4Rcpp19ConstInputParameterISt6vectorIiSaIiEEED1Ev"
 "_ZN4Rcpp20AttributeProxyPolicyINS_6VectorILi19ENS_15PreserveStorageEEEE14AttributeProxy3setEP7SEXPREC"
 "_ZN4Rcpp20AttributeProxyPolicyINS_6VectorILi19ENS_15PreserveStorageEEEE14AttributeProxyaSIA17_cEERS5_RKT_"
 "_ZN4Rcpp20AttributeProxyPolicyINS_6VectorILi19ENS_15PreserveStorageEEEE14AttributeProxyaSINS_6ShieldIP7SEXPRECEEEERS5_RKT_"
 "_ZN4Rcpp20AttributeProxyPolicyINS_6VectorILi19ENS_15PreserveStorageEEEE14AttributeProxyC1ERS3_RKNSt7__cxx1112basic_stringIcSt11char_traitsIcESaIcEEE"
 "_ZN4Rcpp20AttributeProxyPolicyINS_6VectorILi19ENS_15PreserveStorageEEEE4attrERKNSt7__cxx1112basic_stringIcSt11char_traitsIcESaIcEEE"
 "_ZN4Rcpp20Rcpp_precious_removeEP7SEXPREC"
 "_ZN4Rcpp20Rcpp_PreciousReleaseEP7SEXPREC"
 "_ZN4Rcpp21Rcpp_PreciousPreserveEP7SEXPREC"
 "_ZN4Rcpp22Rcpp_precious_preserveEP7SEXPREC"
 "_ZN4Rcpp2asIiEET_P7SEXPREC"
 "_ZN4Rcpp2asINS_6VectorILi19ENS_15PreserveStorageEEEEET_P7SEXPREC"
 "_ZN4Rcpp2asINSt7__cxx1112basic_stringIcSt11char_traitsIcESaIcEEEEET_P7SEXPREC"
 "_ZN4Rcpp2asISt6vectorIiSaIiEEEET_P7SEXPREC"
 "_ZN4Rcpp4stopERKNSt7__cxx1112basic_stringIcSt11char_traitsIcESaIcEEE"
 "_ZN4Rcpp4wrapEPKc"
 "_ZN4Rcpp4wrapIiEEP7SEXPRECRKT_"
 "_ZN4Rcpp4wrapINS_6ShieldIP7SEXPRECEEEES3_RKT_"
 "_ZN4Rcpp4wrapINS_6VectorILi16ENS_15PreserveStorageEEEEEP7SEXPRECRKT_"
 "_ZN4Rcpp4wrapINS_6VectorILi19ENS_15PreserveStorageEEEEEP7SEXPRECRKT_"
 "_ZN4Rcpp4wrapIP7SEXPRECEES2_RKT_"
 "_ZN4Rcpp4wrapISt6vectorINSt7__cxx1112basic_stringIcSt11char_traitsIcESaIcEEESaIS7_EEEEP7SEXPRECRKT_"
 "_ZN4Rcpp5ArmorIP7SEXPRECE4initES2_"
 "_ZN4Rcpp5ArmorIP7SEXPRECEaSIS2_EERS3_RKT_"
 "_ZN4Rcpp5ArmorIP7SEXPRECEC1Ev"
 "_ZN4Rcpp5ArmorIP7SEXPRECED1Ev"
 "_ZN4Rcpp6r_castILi13EEEP7SEXPRECS2_"
 "_ZN4Rcpp6r_castILi16EEEP7SEXPRECS2_"
 "_ZN4Rcpp6r_castILi19EEEP7SEXPRECS2_"
 "_ZN4Rcpp6ShieldIP7SEXPRECEC1ES2_"
 "_ZN4Rcpp6ShieldIP7SEXPRECED1Ev"
 "_ZN4Rcpp6traits11proxy_cacheILi16ENS_15PreserveStorageEE6updateERKNS_6VectorILi16ES2_EE"
 "_ZN4Rcpp6traits11proxy_cacheILi16ENS_15PreserveStorageEEC1Ev"
 "_ZN4Rcpp6traits11proxy_cacheILi16ENS_15PreserveStorageEED1Ev"
 "_ZN4Rcpp6traits11proxy_cacheILi19ENS_15PreserveStorageEE6updateERKNS_6VectorILi19ES2_EE"
 "_ZN4Rcpp6traits11proxy_cacheILi19ENS_15PreserveStorageEEC1Ev"
 "_ZN4Rcpp6traits11proxy_cacheILi19ENS_15PreserveStorageEED1Ev"
 "_ZN4Rcpp6traits12named_objectIA1_cEC1ERKNSt7__cxx1112basic_stringIcSt11char_traitsIcESaIcEEERA1_Kc"
 "_ZN4Rcpp6traits12named_objectIiEC1ERKNSt7__cxx1112basic_stringIcSt11char_traitsIcESaIcEEERKi"
 "_ZN4Rcpp6traits12named_objectINS_6VectorILi16ENS_15PreserveStorageEEEEC1ERKNSt7__cxx1112basic_stringIcSt11char_traitsIcESaIcEEERKS4_"
 "_ZN4Rcpp6traits17ContainerExporterISt6vectoriE3getEv"
 "_ZN4Rcpp6traits17ContainerExporterISt6vectoriEC2EP7SEXPREC"
 "_ZN4Rcpp6traits17ContainerExporterISt6vectoriED2Ev"
 "_ZN4Rcpp6traits8ExporterINS_6VectorILi19ENS_15PreserveStorageEEEE3getEv"
 "_ZN4Rcpp6traits8ExporterINS_6VectorILi19ENS_15PreserveStorageEEEEC1EP7SEXPREC"
 "_ZN4Rcpp6traits8ExporterINS_6VectorILi19ENS_15PreserveStorageEEEED1Ev"
 "_ZN4Rcpp6traits8ExporterISt6vectorIiSaIiEEEC1EP7SEXPREC"
 "_ZN4Rcpp6traits8ExporterISt6vectorIiSaIiEEED1Ev"
 "_ZN4Rcpp6VectorILi16ENS_15PreserveStorageEE4initEv"
 "_ZN4Rcpp6VectorILi16ENS_15PreserveStorageEE5beginEv"
 "_ZN4Rcpp6VectorILi16ENS_15PreserveStorageEE6updateEP7SEXPREC"
 "_ZN4Rcpp6VectorILi16ENS_15PreserveStorageEEC1IyEET_PNS_6traits9enable_ifIXsrNS5_13is_arithmeticIS4_EE5valueEvE4typeE"
 "_ZN4Rcpp6VectorILi16ENS_15PreserveStorageEED1Ev"
 "_ZN4Rcpp6VectorILi19ENS_15PreserveStorageEE15replace_elementINS_6traits12named_objectIA1_cEEEEvNS_8internal14Proxy_IteratorINS8_13generic_proxyILi19ES1_EEEEP7SEXPRECxRKT_"
 "_ZN4Rcpp6VectorILi19ENS_15PreserveStorageEE15replace_elementINS_6traits12named_objectIiEEEEvNS_8internal14Proxy_IteratorINS7_13generic_proxyILi19ES1_EEEEP7SEXPRECxRKT_"
 "_ZN4Rcpp6VectorILi19ENS_15PreserveStorageEE15replace_elementINS_6traits12named_objectINS0_ILi16ES1_EEEEEEvNS_8internal14Proxy_IteratorINS8_13generic_proxyILi19ES1_EEEEP7SEXPRECxRKT_"
 "_ZN4Rcpp6VectorILi19ENS_15PreserveStorageEE16create__dispatchINS_6traits12named_objectIA1_cEENS5_IiEENS5_INS0_ILi16ES1_EEEEEES2_NS4_17integral_constantIbLb1EEERKT_RKT0_RKT1_"
 "_ZN4Rcpp6VectorILi19ENS_15PreserveStorageEE25replace_element__dispatchINS_6traits12named_objectIA1_cEEEEvNS4_17integral_constantIbLb1EEENS_8internal14Proxy_IteratorINSA_13generic_proxyILi19ES1_EEEEP7SEXPRECxRKT_"
 "_ZN4Rcpp6VectorILi19ENS_15PreserveStorageEE25replace_element__dispatchINS_6traits12named_objectIiEEEEvNS4_17integral_constantIbLb1EEENS_8internal14Proxy_IteratorINS9_13generic_proxyILi19ES1_EEEEP7SEXPRECxRKT_"
 "_ZN4Rcpp6VectorILi19ENS_15PreserveStorageEE25replace_element__dispatchINS_6traits12named_objectINS0_ILi16ES1_EEEEEEvNS4_17integral_constantIbLb1EEENS_8internal14Proxy_IteratorINSA_13generic_proxyILi19ES1_EEEEP7SEXPRECxRKT_"
 "_ZN4Rcpp6VectorILi19ENS_15PreserveStorageEE37replace_element__dispatch__isArgumentINS_6traits12named_objectIA1_cEEEEvNS4_17integral_constantIbLb0EEENS_8internal14Proxy_IteratorINSA_13generic_proxyILi19ES1_EEEEP7SEXPRECxRKT_"
 "_ZN4Rcpp6VectorILi19ENS_15PreserveStorageEE37replace_element__dispatch__isArgumentINS_6traits12named_objectIiEEEEvNS4_17integral_constantIbLb0EEENS_8internal14Proxy_IteratorINS9_13generic_proxyILi19ES1_EEEEP7SEXPRECxRKT_"
 "_ZN4Rcpp6VectorILi19ENS_15PreserveStorageEE37replace_element__dispatch__isArgumentINS_6traits12named_objectINS0_ILi16ES1_EEEEEEvNS4_17integral_constantIbLb0EEENS_8internal14Proxy_IteratorINSA_13generic_proxyILi19ES1_EEEEP7SEXPRECxRKT_"
 "_ZN4Rcpp6VectorILi19ENS_15PreserveStorageEE4initEv"
 "_ZN4Rcpp6VectorILi19ENS_15PreserveStorageEE5beginEv"
 "_ZN4Rcpp6VectorILi19ENS_15PreserveStorageEE6createINS_6traits12named_objectIA1_cEENS5_IiEENS5_INS0_ILi16ES1_EEEEEES2_RKT_RKT0_RKT1_"
 "_ZN4Rcpp6VectorILi19ENS_15PreserveStorageEE6updateEP7SEXPREC"
 "_ZN4Rcpp6VectorILi19ENS_15PreserveStorageEEC1EP7SEXPREC"
 "_ZN4Rcpp6VectorILi19ENS_15PreserveStorageEEC1ERKi"
 "_ZN4Rcpp6VectorILi19ENS_15PreserveStorageEEC1ERKS2_"
 "_ZN4Rcpp6VectorILi19ENS_15PreserveStorageEED1Ev"
 "_ZN4Rcpp7ShelterIP7SEXPRECEC1Ev"
 "_ZN4Rcpp7ShelterIP7SEXPRECEclES2_"
 "_ZN4Rcpp7ShelterIP7SEXPRECED1Ev"
 "_ZN4Rcpp8ArgumentaSIA1_cEENS_6traits12named_objectIT_EERKS5_"
 "_ZN4Rcpp8ArgumentaSIiEENS_6traits12named_objectIT_EERKS4_"
 "_ZN4Rcpp8ArgumentaSINS_6VectorILi16ENS_15PreserveStorageEEEEENS_6traits12named_objectIT_EERKS7_"
 "_ZN4Rcpp8ArgumentC1ERKNSt7__cxx1112basic_stringIcSt11char_traitsIcESaIcEEE"
 "_ZN4Rcpp8ArgumentD1Ev"
 "_ZN4Rcpp8internal10basic_castILi13EEEP7SEXPRECS3_"
 "_ZN4Rcpp8internal10range_wrapIN9__gnu_cxx17__normal_iteratorIPKNSt7__cxx1112basic_stringIcSt11char_traitsIcESaIcEEESt6vectorIS9_SaIS9_EEEEEEP7SEXPRECT_SI_"
 "_ZN4Rcpp8internal10resumeJumpEP7SEXPREC"
 "_ZN4Rcpp8internal11r_true_castILi13EEEP7SEXPRECS3_"
 "_ZN4Rcpp8internal11r_true_castILi16EEEP7SEXPRECS3_"
 "_ZN4Rcpp8internal11r_true_castILi19EEEP7SEXPRECS3_"
 "_ZN4Rcpp8internal12exitRNGScopeEv"
 "_ZN4Rcpp8internal12export_rangeIN9__gnu_cxx17__normal_iteratorIPiSt6vectorIiSaIiEEEEEEvP7SEXPRECT_"
 "_ZN4Rcpp8internal12primitive_asIiEET_P7SEXPREC"
 "_ZN4Rcpp8internal12string_proxyILi16ENS_15PreserveStorageEE3setEP7SEXPREC"
 "_ZN4Rcpp8internal12string_proxyILi16ENS_15PreserveStorageEE3setINSt7__cxx1112basic_stringIcSt11char_traitsIcESaIcEEEEEvRKT_"
 "_ZN4Rcpp8internal12string_proxyILi16ENS_15PreserveStorageEE4moveEx"
 "_ZN4Rcpp8internal12string_proxyILi16ENS_15PreserveStorageEEaSIcEERS3_RKNSt7__cxx1112basic_stringIT_St11char_traitsIS8_ESaIS8_EEE"
 "_ZN4Rcpp8internal12string_proxyILi16ENS_15PreserveStorageEEC1ERKS3_"
 "_ZN4Rcpp8internal12string_proxyILi16ENS_15PreserveStorageEEC1ERNS_6VectorILi16ES2_EEx"
 "_ZN4Rcpp8internal13enterRNGScopeEv"
 "_ZN4Rcpp8internal13generic_proxyILi19ENS_15PreserveStorageEE3setEP7SEXPREC"
 "_ZN4Rcpp8internal13generic_proxyILi19ENS_15PreserveStorageEE4moveEx"
 "_ZN4Rcpp8internal13generic_proxyILi19ENS_15PreserveStorageEEaSEP7SEXPREC"
 "_ZN4Rcpp8internal13generic_proxyILi19ENS_15PreserveStorageEEC1ERKS3_"
 "_ZN4Rcpp8internal13generic_proxyILi19ENS_15PreserveStorageEEC1ERNS_6VectorILi19ES2_EEx"
 "_ZN4Rcpp8internal13make_charsexpINSt7__cxx1112basic_stringIcSt11char_traitsIcESaIcEEEEEP7SEXPRECRKT_"
 "_ZN4Rcpp8internal13r_init_vectorILi16EEEvP7SEXPREC"
 "_ZN4Rcpp8internal13r_init_vectorILi19EEEvP7SEXPREC"
 "_ZN4Rcpp8internal13wrap_dispatchIiEEP7SEXPRECRKT_NS_6traits23wrap_type_primitive_tagE"
 "_ZN4Rcpp8internal13wrap_dispatchINS_6ShieldIP7SEXPRECEEEES4_RKT_NS_6traits21wrap_type_unknown_tagE"
 "_ZN4Rcpp8internal13wrap_dispatchINS_6VectorILi16ENS_15PreserveStorageEEEEEP7SEXPRECRKT_NS_6traits21wrap_type_unknown_tagE"
 "_ZN4Rcpp8internal13wrap_dispatchINS_6VectorILi19ENS_15PreserveStorageEEEEEP7SEXPRECRKT_NS_6traits21wrap_type_unknown_tagE"
 "_ZN4Rcpp8internal13wrap_dispatchIP7SEXPRECEES3_RKT_NS_6traits21wrap_type_unknown_tagE"
 "_ZN4Rcpp8internal13wrap_dispatchISt6vectorINSt7__cxx1112basic_stringIcSt11char_traitsIcESaIcEEESaIS8_EEEEP7SEXPRECRKT_NS_6traits21wrap_type_unknown_tagE"
 "_ZN4Rcpp8internal14primitive_wrapIiEEP7SEXPRECRKT_"
 "_ZN4Rcpp8internal14Proxy_IteratorINS0_12string_proxyILi16ENS_15PreserveStorageEEEEC1ERKS4_"
 "_ZN4Rcpp8internal14Proxy_IteratorINS0_12string_proxyILi16ENS_15PreserveStorageEEEEC1ERKS5_"
 "_ZN4Rcpp8internal14Proxy_IteratorINS0_12string_proxyILi16ENS_15PreserveStorageEEEEdeEv"
 "_ZN4Rcpp8internal14Proxy_IteratorINS0_12string_proxyILi16ENS_15PreserveStorageEEEEppEv"
 "_ZN4Rcpp8internal14Proxy_IteratorINS0_13generic_proxyILi19ENS_15PreserveStorageEEEEC1ERKS4_"
 "_ZN4Rcpp8internal14Proxy_IteratorINS0_13generic_proxyILi19ENS_15PreserveStorageEEEEC1ERKS5_"
 "_ZN4Rcpp8internal14Proxy_IteratorINS0_13generic_proxyILi19ENS_15PreserveStorageEEEEdeEv"
 "_ZN4Rcpp8internal14Proxy_IteratorINS0_13generic_proxyILi19ENS_15PreserveStorageEEEEppEv"
 "_ZN4Rcpp8internal14r_vector_startILi13EEEPNS_6traits12storage_typeIXT_EE4typeEP7SEXPREC"
 "_ZN4Rcpp8internal16getLongjumpTokenEP7SEXPREC"
 "_ZN4Rcpp8internal16NamedPlaceHolderC1Ev"
 "_ZN4Rcpp8internal16NamedPlaceHolderD1Ev"
 "_ZN4Rcpp8internal17is_Rcpp_eval_callEP7SEXPREC"
 "_ZN4Rcpp8internal18export_range__implIN9__gnu_cxx17__normal_iteratorIPiSt6vectorIiSaIiEEEEiEEvP7SEXPRECT_NS_6traits17integral_constantIbLb0EEE"
 "_ZN4Rcpp8internal18isLongjumpSentinelEP7SEXPREC"
 "_ZN4Rcpp8internal19check_single_stringEP7SEXPREC"
 "_ZN4Rcpp8internal19make_charsexp__implINSt7__cxx1112basic_stringIcSt11char_traitsIcESaIcEEEEEP7SEXPRECRKT_NS_6traits17integral_constantIbLb0EEE"
 "_ZN4Rcpp8internal19range_wrap_dispatchIN9__gnu_cxx17__normal_iteratorIPKNSt7__cxx1112basic_stringIcSt11char_traitsIcESaIcEEESt6vectorIS9_SaIS9_EEEES9_EEP7SEXPRECT_SI_"
 "_ZN4Rcpp8internal19Rcpp_protected_evalEPv"
 "_ZN4Rcpp8internal19wrap_dispatch_eigenINS_6ShieldIP7SEXPRECEEEES4_RKT_NS_6traits17integral_constantIbLb0EEE"
 "_ZN4Rcpp8internal19wrap_dispatch_eigenINS_6VectorILi16ENS_15PreserveStorageEEEEEP7SEXPRECRKT_NS_6traits17integral_constantIbLb0EEE"
 "_ZN4Rcpp8internal19wrap_dispatch_eigenINS_6VectorILi19ENS_15PreserveStorageEEEEEP7SEXPRECRKT_NS_6traits17integral_constantIbLb0EEE"
 "_ZN4Rcpp8internal19wrap_dispatch_eigenIP7SEXPRECEES3_RKT_NS_6traits17integral_constantIbLb0EEE"
 "_ZN4Rcpp8internal19wrap_dispatch_eigenISt6vectorINSt7__cxx1112basic_stringIcSt11char_traitsIcESaIcEEESaIS8_EEEEP7SEXPRECRKT_NS_6traits17integral_constantIbLb0EEE"
 "_ZN4Rcpp8internal20primitive_wrap__implIiEEP7SEXPRECRKT_NS_6traits20r_type_primitive_tagE"
 "_ZN4Rcpp8internal21wrap_dispatch_unknownINS_6ShieldIP7SEXPRECEEEES4_RKT_NS_6traits17integral_constantIbLb1EEE"
 "_ZN4Rcpp8internal21wrap_dispatch_unknownINS_6VectorILi16ENS_15PreserveStorageEEEEEP7SEXPRECRKT_NS_6traits17integral_constantIbLb1EEE"
 "_ZN4Rcpp8internal21wrap_dispatch_unknownINS_6VectorILi19ENS_15PreserveStorageEEEEEP7SEXPRECRKT_NS_6traits17integral_constantIbLb1EEE"
 "_ZN4Rcpp8internal21wrap_dispatch_unknownIP7SEXPRECEES3_RKT_NS_6traits17integral_constantIbLb1EEE"
 "_ZN4Rcpp8internal21wrap_dispatch_unknownISt6vectorINSt7__cxx1112basic_stringIcSt11char_traitsIcESaIcEEESaIS8_EEEEP7SEXPRECRKT_NS_6traits17integral_constantIbLb0EEE"
 "_ZN4Rcpp8internal22export_range__dispatchIN9__gnu_cxx17__normal_iteratorIPiSt6vectorIiSaIiEEEEiEEvP7SEXPRECT_NS_6traits20r_type_primitive_tagE"
 "_ZN4Rcpp8internal23convert_using_rfunctionEP7SEXPRECPKc"
 "_ZN4Rcpp8internal25generic_element_converterILi19EE3getEPKc"
 "_ZN4Rcpp8internal25generic_element_converterILi19EE3getIiEEP7SEXPRECRKT_"
 "_ZN4Rcpp8internal25generic_element_converterILi19EE3getINS_6VectorILi16ENS_15PreserveStorageEEEEEP7SEXPRECRKT_"
 "_ZN4Rcpp8internal26primitive_wrap__impl__castIiEEP7SEXPRECRKT_NS_6traits17integral_constantIbLb0EEE"
 "_ZN4Rcpp8internal26range_wrap_dispatch___implIN9__gnu_cxx17__normal_iteratorIPKNSt7__cxx1112basic_stringIcSt11char_traitsIcESaIcEEESt6vectorIS9_SaIS9_EEEES9_EEP7SEXPRECT_SI_NS_6traits17r_type_string_tagE"
 "_ZN4Rcpp8internal27wrap_range_sugar_expressionISt6vectorINSt7__cxx1112basic_stringIcSt11char_traitsIcESaIcEEESaIS8_EEEEP7SEXPRECRKT_NS_6traits17integral_constantIbLb0EEE"
 "_ZN4Rcpp8internal28make_charsexp__impl__cstringEPKc"
 "_ZN4Rcpp8internal28make_charsexp__impl__cstringERKNSt7__cxx1112basic_stringIcSt11char_traitsIcESaIcEEE"
 "_ZN4Rcpp8internal2asIiEET_P7SEXPRECNS_6traits20r_type_primitive_tagE"
 "_ZN4Rcpp8internal2asINS_6VectorILi19ENS_15PreserveStorageEEEEET_P7SEXPRECNS_6traits18r_type_generic_tagE"
 "_ZN4Rcpp8internal2asINSt7__cxx1112basic_stringIcSt11char_traitsIcESaIcEEEEET_P7SEXPRECNS_6traits17r_type_string_tagE"
 "_ZN4Rcpp8internal2asISt6vectorIiSaIiEEEET_P7SEXPRECNS_6traits18r_type_generic_tagE"
 "_ZN4Rcpp8internal30wrap_dispatch_unknown_iterableISt6vectorINSt7__cxx1112basic_stringIcSt11char_traitsIcESaIcEEESaIS8_EEEEP7SEXPRECRKT_NS_6traits17integral_constantIbLb1EEE"
 "_ZN4Rcpp8internal32wrap_dispatch_unknown_importableINS_6ShieldIP7SEXPRECEEEES4_RKT_NS_6traits17integral_constantIbLb0EEE"
 "_ZN4Rcpp8internal32wrap_dispatch_unknown_importableINS_6VectorILi16ENS_15PreserveStorageEEEEEP7SEXPRECRKT_NS_6traits17integral_constantIbLb0EEE"
 "_ZN4Rcpp8internal32wrap_dispatch_unknown_importableINS_6VectorILi19ENS_15PreserveStorageEEEEEP7SEXPRECRKT_NS_6traits17integral_constantIbLb0EEE"
 "_ZN4Rcpp8internal32wrap_dispatch_unknown_importableIP7SEXPRECEES3_RKT_NS_6traits17integral_constantIbLb0EEE"
 "_ZN4Rcpp8internal32wrap_dispatch_unknown_importableISt6vectorINSt7__cxx1112basic_stringIcSt11char_traitsIcESaIcEEESaIS8_EEEEP7SEXPRECRKT_NS_6traits17integral_constantIbLb0EEE"
 "_ZN4Rcpp8internal39wrap_dispatch_unknown_iterable__logicalISt6vectorINSt7__cxx1112basic_stringIcSt11char_traitsIcESaIcEEESaIS8_EEEEP7SEXPRECRKT_NS_6traits17integral_constantIbLb0EEE"
 "_ZN4Rcpp8internal3nthEP7SEXPRECi"
 "_ZN4Rcpp8internal48wrap_dispatch_unknown_iterable__matrix_interfaceISt6vectorINSt7__cxx1112basic_stringIcSt11char_traitsIcESaIcEEESaIS8_EEEEP7SEXPRECRKT_NS_6traits17integral_constantIbLb0EEE"
 "_ZN4Rcpp8internal6casterIiiEET0_T_"
 "_ZN4Rcpp8internal8EvalDataC1EP7SEXPRECS3_"
 "_ZN4Rcpp8internal9as_stringINSt7__cxx1112basic_stringIcSt11char_traitsIcESaIcEEEEET_P7SEXPRECNS_6traits17integral_constantIbLb0EEE"
 "_ZN4Rcpp8internal9maybeJumpEPv8Rboolean"
 "_ZN4Rcpp8RNGScopeC1Ev"
 "_ZN4Rcpp8RNGScopeD1Ev"
 "_ZN4Rcpp8RostreamILb0EEC1Ev"
 "_ZN4Rcpp8RostreamILb0EED0Ev"
 "_ZN4Rcpp8RostreamILb0EED1Ev"
 "_ZN4Rcpp8RostreamILb1EEC1Ev"
 "_ZN4Rcpp8RostreamILb1EED0Ev"
 "_ZN4Rcpp8RostreamILb1EED1Ev"
 "_ZN4Rcpp9exception18record_stack_traceEv"
 "_ZN4Rcpp9exceptionC1EPKcb"
 "_ZN4Rcpp9exceptionD0Ev"
 "_ZN4Rcpp9exceptionD1Ev"
 "_ZN9__gnu_cxx11char_traitsIcE2eqERKcS3_"
 "_ZN9__gnu_cxx11char_traitsIcE4copyEPcPKcy"
 "_ZN9__gnu_cxx11char_traitsIcE6lengthEPKc"
 "_ZN9__gnu_cxx14__alloc_traitsISaIcEcE17_S_select_on_copyERKS1_"
 "_ZN9__gnu_cxx14__alloc_traitsISaIiEiE17_S_select_on_copyERKS1_"
 "_ZN9__gnu_cxx17__normal_iteratorIPiSt6vectorIiSaIiEEEC1ERKS1_"
 "_ZN9__gnu_cxx17__normal_iteratorIPKiSt6vectorIiSaIiEEEC1ERKS2_"
 "_ZN9__gnu_cxx17__normal_iteratorIPKiSt6vectorIiSaIiEEEppEv"
 "_ZN9__gnu_cxx17__normal_iteratorIPKNSt7__cxx1112basic_stringIcSt11char_traitsIcESaIcEEESt6vectorIS6_SaIS6_EEEC1ERKS8_"
 "_ZN9__gnu_cxx17__normal_iteratorIPKNSt7__cxx1112basic_stringIcSt11char_traitsIcESaIcEEESt6vectorIS6_SaIS6_EEEppEv"
 "_ZN9__gnu_cxxeqIPKiSt6vectorIiSaIiEEEEbRKNS_17__normal_iteratorIT_T0_EESB_"
 "_ZN9__gnu_cxxmiIPKNSt7__cxx1112basic_stringIcSt11char_traitsIcESaIcEEESt6vectorIS6_SaIS6_EEEENS_17__normal_iteratorIT_T0_E15difference_typeERKSF_SI_"
 "_ZNK10tinyformat6detail9FormatArg5toIntEv"
 "_ZNK10tinyformat6detail9FormatArg6formatERSoPKcS4_i"
 "_ZNK4Rcpp14not_compatible4whatEv"
 "_ZNK4Rcpp15PreserveStorageINS_12RObject_ImplIS0_EEEcvP7SEXPRECEv"
 "_ZNK4Rcpp15PreserveStorageINS_6VectorILi16ES0_EEE5get__Ev"
 "_ZNK4Rcpp15PreserveStorageINS_6VectorILi16ES0_EEEcvP7SEXPRECEv"
 "_ZNK4Rcpp15PreserveStorageINS_6VectorILi19ES0_EEE5get__Ev"
 "_ZNK4Rcpp15PreserveStorageINS_6VectorILi19ES0_EEEcvP7SEXPRECEv"
 "_ZNK4Rcpp5ArmorIP7SEXPRECEcvS2_Ev"
 "_ZNK4Rcpp6ShieldIP7SEXPRECEcvS2_Ev"
 "_ZNK4Rcpp6traits11proxy_cacheILi16ENS_15PreserveStorageEE3getEv"
 "_ZNK4Rcpp6traits11proxy_cacheILi19ENS_15PreserveStorageEE3getEv"
 "_ZNK4Rcpp8internal16NamedPlaceHolderixERKNSt7__cxx1112basic_stringIcSt11char_traitsIcESaIcEEE"
 "_ZNK4Rcpp9exception12include_callEv"
 "_ZNK4Rcpp9exception21copy_stack_trace_to_rEv"
 "_ZNK4Rcpp9exception4whatEv"
 "_ZNK9__gnu_cxx17__normal_iteratorIPiSt6vectorIiSaIiEEE4baseEv"
 "_ZNK9__gnu_cxx17__normal_iteratorIPiSt6vectorIiSaIiEEEplEx"
 "_ZNK9__gnu_cxx17__normal_iteratorIPKiSt6vectorIiSaIiEEE4baseEv"
 "_ZNK9__gnu_cxx17__normal_iteratorIPKiSt6vectorIiSaIiEEEdeEv"
 "_ZNK9__gnu_cxx17__normal_iteratorIPKNSt7__cxx1112basic_stringIcSt11char_traitsIcESaIcEEESt6vectorIS6_SaIS6_EEE4baseEv"
 "_ZNK9__gnu_cxx17__normal_iteratorIPKNSt7__cxx1112basic_stringIcSt11char_traitsIcESaIcEEESt6vectorIS6_SaIS6_EEEdeEv"
 "_ZNKSt12_Vector_baseIiSaIiEE19_M_get_Tp_allocatorEv"
 "_ZNKSt15__new_allocatorIcE11_M_max_sizeEv"
 "_ZNKSt15__new_allocatorIiE11_M_max_sizeEv"
 "_ZNKSt6vectorIiSaIiEE3endEv"
 "_ZNKSt6vectorIiSaIiEE4sizeEv"
 "_ZNKSt6vectorIiSaIiEE5beginEv"
 "_ZNKSt6vectorINSt7__cxx1112basic_stringIcSt11char_traitsIcESaIcEEESaIS5_EE3endEv"
 "_ZNKSt6vectorINSt7__cxx1112basic_stringIcSt11char_traitsIcESaIcEEESaIS5_EE4sizeEv"
 "_ZNKSt6vectorINSt7__cxx1112basic_stringIcSt11char_traitsIcESaIcEEESaIS5_EE5beginEv"
 "_ZNKSt7__cxx1112basic_stringIcSt11char_traitsIcESaIcEE11_M_is_localEv"
 "_ZNKSt7__cxx1112basic_stringIcSt11char_traitsIcESaIcEE13_M_local_dataEv"
 "_ZNKSt7__cxx1112basic_stringIcSt11char_traitsIcESaIcEE16_M_get_allocatorEv"
 "_ZNKSt7__cxx1112basic_stringIcSt11char_traitsIcESaIcEE4sizeEv"
 "_ZNKSt7__cxx1112basic_stringIcSt11char_traitsIcESaIcEE5c_strEv"
 "_ZNKSt7__cxx1112basic_stringIcSt11char_traitsIcESaIcEE6lengthEv"
 "_ZNKSt7__cxx1112basic_stringIcSt11char_traitsIcESaIcEE7_M_dataEv"
 "_ZNKSt7__cxx1112basic_stringIcSt11char_traitsIcESaIcEE8max_sizeEv"
 "_ZNKSt8ios_base5flagsEv"
 "_ZNKSt8ios_base5widthEv"
 "_ZNKSt8ios_base9precisionEv"
 "_ZNKSt9type_info4nameEv"
 "_ZNSaIiEC1ERKS_"
 "_ZNSaIiEC1Ev"
 "_ZNSaIiEC2ERKS_"
 "_ZNSaIiED1Ev"
 "_ZNSaIiED2Ev"
 "_ZNSaINSt7__cxx1112basic_stringIcSt11char_traitsIcESaIcEEEEC2Ev"
 "_ZNSaINSt7__cxx1112basic_stringIcSt11char_traitsIcESaIcEEEED2Ev"
 "_ZNSt11__copy_moveILb0ELb0ESt26random_access_iterator_tagE8__copy_mIPiS3_EET0_T_S5_S4_"
 "_ZNSt11__copy_moveILb0ELb0ESt26random_access_iterator_tagE8__copy_mIPKiPiEET0_T_S7_S6_"
 "_ZNSt11__copy_moveILb0ELb0ESt26random_access_iterator_tagE8__copy_mIPKNSt7__cxx1112basic_stringIcSt11char_traitsIcESaIcEEEN4Rcpp8internal14Proxy_IteratorINSC_12string_proxyILi16ENSB_15PreserveStorageEEEEEEET0_T_SJ_SI_"
 "_ZNSt11__copy_moveILb0ELb1ESt26random_access_iterator_tagE8__copy_mIiEEPT_PKS3_S6_S4_"
 "_ZNSt11char_traitsIcE12to_char_typeERKi"
 "_ZNSt11char_traitsIcE3eofEv"
 "_ZNSt11char_traitsIcE4copyEPcPKcy"
 "_ZNSt11char_traitsIcE6assignERcRKc"
 "_ZNSt11char_traitsIcE6lengthEPKc"
 "_ZNSt12_Destroy_auxILb0EE9__destroyIPiEEvT_S3_"
 "_ZNSt12_Destroy_auxILb0EE9__destroyIPNSt7__cxx1112basic_stringIcSt11char_traitsIcESaIcEEEEEvT_S9_"
 "_ZNSt12_Destroy_auxILb1EE9__destroyIPiEEvT_S3_"
 "_ZNSt12_Vector_baseIiSaIiEE11_M_allocateEy"
 "_ZNSt12_Vector_baseIiSaIiEE12_Vector_implC1EOS2_"
 "_ZNSt12_Vector_baseIiSaIiEE12_Vector_implC1ERKS0_"
 "_ZNSt12_Vector_baseIiSaIiEE12_Vector_implD1Ev"
 "_ZNSt12_Vector_baseIiSaIiEE13_M_deallocateEPiy"
 "_ZNSt12_Vector_baseIiSaIiEE17_M_create_storageEy"
 "_ZNSt12_Vector_baseIiSaIiEE17_Vector_impl_dataC2EOS2_"
 "_ZNSt12_Vector_baseIiSaIiEE17_Vector_impl_dataC2Ev"
 "_ZNSt12_Vector_baseIiSaIiEE19_M_get_Tp_allocatorEv"
 "_ZNSt12_Vector_baseIiSaIiEEC2EOS1_"
 "_ZNSt12_Vector_baseIiSaIiEEC2ERKS0_"
 "_ZNSt12_Vector_baseIiSaIiEEC2EyRKS0_"
 "_ZNSt12_Vector_baseIiSaIiEED2Ev"
 "_ZNSt12_Vector_baseINSt7__cxx1112basic_stringIcSt11char_traitsIcESaIcEEESaIS5_EE12_Vector_implC1Ev"
 "_ZNSt12_Vector_baseINSt7__cxx1112basic_stringIcSt11char_traitsIcESaIcEEESaIS5_EE12_Vector_implD1Ev"
 "_ZNSt12_Vector_baseINSt7__cxx1112basic_stringIcSt11char_traitsIcESaIcEEESaIS5_EE13_M_deallocateEPS5_y"
 "_ZNSt12_Vector_baseINSt7__cxx1112basic_stringIcSt11char_traitsIcESaIcEEESaIS5_EE17_Vector_impl_dataC2Ev"
 "_ZNSt12_Vector_baseINSt7__cxx1112basic_stringIcSt11char_traitsIcESaIcEEESaIS5_EE19_M_get_Tp_allocatorEv"
 "_ZNSt12_Vector_baseINSt7__cxx1112basic_stringIcSt11char_traitsIcESaIcEEESaIS5_EEC2Ev"
 "_ZNSt12_Vector_baseINSt7__cxx1112basic_stringIcSt11char_traitsIcESaIcEEESaIS5_EED2Ev"
 "_ZNSt15__new_allocatorIcE10deallocateEPcy"
 "_ZNSt15__new_allocatorIcE8allocateEyPKv"
 "_ZNSt15__new_allocatorIiE10deallocateEPiy"
 "_ZNSt15__new_allocatorIiE8allocateEyPKv"
 "_ZNSt15__new_allocatorIiEC2ERKS0_"
 "_ZNSt15__new_allocatorIiEC2Ev"
 "_ZNSt15__new_allocatorINSt7__cxx1112basic_stringIcSt11char_traitsIcESaIcEEEE10deallocateEPS5_y"
 "_ZNSt15__new_allocatorINSt7__cxx1112basic_stringIcSt11char_traitsIcESaIcEEEEC2Ev"
 "_ZNSt16allocator_traitsISaIcEE10deallocateERS0_Pcy"
 "_ZNSt16allocator_traitsISaIcEE37select_on_container_copy_constructionERKS0_"
 "_ZNSt16allocator_traitsISaIcEE8allocateERS0_y"
 "_ZNSt16allocator_traitsISaIcEE8max_sizeERKS0_"
 "_ZNSt16allocator_traitsISaIiEE10deallocateERS0_Piy"
 "_ZNSt16allocator_traitsISaIiEE37select_on_container_copy_constructionERKS0_"
 "_ZNSt16allocator_traitsISaIiEE8allocateERS0_y"
 "_ZNSt16allocator_traitsISaIiEE8max_sizeERKS0_"
 "_ZNSt16allocator_traitsISaINSt7__cxx1112basic_stringIcSt11char_traitsIcESaIcEEEEE10deallocateERS6_PS5_y"
 "_ZNSt19__ptr_traits_ptr_toIPccLb0EE10pointer_toERc"
 "_ZNSt19__ptr_traits_ptr_toIPKcS0_Lb0EE10pointer_toERS0_"
 "_ZNSt20__uninitialized_copyILb1EE13__uninit_copyIN9__gnu_cxx17__normal_iteratorIPKiSt6vectorIiSaIiEEEEPiEET0_T_SC_SB_"
 "_ZNSt20__uninitialized_copyILb1EE13__uninit_copyIPiS2_EET0_T_S4_S3_"
 "_ZNSt27__uninitialized_default_n_1ILb1EE18__uninit_default_nIPiyEET_S3_T0_"
 "_ZNSt6vectorIiSaIiEE11_S_max_sizeERKS0_"
 "_ZNSt6vectorIiSaIiEE17_S_check_init_lenEyRKS0_"
 "_ZNSt6vectorIiSaIiEE19_M_range_initializeIPiEEvT_S4_St20forward_iterator_tag"
 "_ZNSt6vectorIiSaIiEE21_M_default_initializeEy"
 "_ZNSt6vectorIiSaIiEE5beginEv"
 "_ZNSt6vectorIiSaIiEEC1EOS1_"
 "_ZNSt6vectorIiSaIiEEC1ERKS1_"
 "_ZNSt6vectorIiSaIiEEC1EyRKS0_"
 "_ZNSt6vectorIiSaIiEEC1IPivEET_S4_RKS0_"
 "_ZNSt6vectorIiSaIiEED1Ev"
 "_ZNSt6vectorINSt7__cxx1112basic_stringIcSt11char_traitsIcESaIcEEESaIS5_EEC1Ev"
 "_ZNSt6vectorINSt7__cxx1112basic_stringIcSt11char_traitsIcESaIcEEESaIS5_EED1Ev"
 "_ZNSt7__cxx1112basic_stringIcSt11char_traitsIcESaIcEE10_M_destroyEy"
 "_ZNSt7__cxx1112basic_stringIcSt11char_traitsIcESaIcEE10_M_disposeEv"
 "_ZNSt7__cxx1112basic_stringIcSt11char_traitsIcESaIcEE11_M_capacityEy"
 "_ZNSt7__cxx1112basic_stringIcSt11char_traitsIcESaIcEE12_Alloc_hiderC1EPcOS3_"
 "_ZNSt7__cxx1112basic_stringIcSt11char_traitsIcESaIcEE12_Alloc_hiderC1EPcRKS3_"
 "_ZNSt7__cxx1112basic_stringIcSt11char_traitsIcESaIcEE12_Alloc_hiderD1Ev"
 "_ZNSt7__cxx1112basic_stringIcSt11char_traitsIcESaIcEE12_M_constructIPcEEvT_S7_St20forward_iterator_tag"
 "_ZNSt7__cxx1112basic_stringIcSt11char_traitsIcESaIcEE12_M_constructIPKcEEvT_S8_St20forward_iterator_tag"
 "_ZNSt7__cxx1112basic_stringIcSt11char_traitsIcESaIcEE13_M_local_dataEv"
 "_ZNSt7__cxx1112basic_stringIcSt11char_traitsIcESaIcEE13_M_set_lengthEy"
 "_ZNSt7__cxx1112basic_stringIcSt11char_traitsIcESaIcEE13_S_copy_charsEPcPKcS7_"
 "_ZNSt7__cxx1112basic_stringIcSt11char_traitsIcESaIcEE13_S_copy_charsEPcS5_S5_"
 "_ZNSt7__cxx1112basic_stringIcSt11char_traitsIcESaIcEE16_M_get_allocatorEv"
 "_ZNSt7__cxx1112basic_stringIcSt11char_traitsIcESaIcEE7_M_dataEPc"
 "_ZNSt7__cxx1112basic_stringIcSt11char_traitsIcESaIcEE7_S_copyEPcPKcy"
 "_ZNSt7__cxx1112basic_stringIcSt11char_traitsIcESaIcEE9_M_createERyy"
 "_ZNSt7__cxx1112basic_stringIcSt11char_traitsIcESaIcEE9_M_lengthEy"
 "_ZNSt7__cxx1112basic_stringIcSt11char_traitsIcESaIcEEC1ERKS4_"
 "_ZNSt7__cxx1112basic_stringIcSt11char_traitsIcESaIcEEC1IS3_EEPKcRKS3_"
 "_ZNSt7__cxx1112basic_stringIcSt11char_traitsIcESaIcEED1Ev"
 "_ZNSt7__cxx1112basic_stringIcSt11char_traitsIcESaIcEEixEy"
 "_ZNSt8ios_base4setfESt13_Ios_Fmtflags"
 "_ZNSt8ios_base4setfESt13_Ios_FmtflagsS0_"
 "_ZNSt8ios_base5flagsESt13_Ios_Fmtflags"
 "_ZNSt8ios_base5widthEx"
 "_ZNSt8ios_base6unsetfESt13_Ios_Fmtflags"
 "_ZNSt8ios_base9precisionEx"
 "_ZNSt9exceptionC2Ev"
 "_ZnwyPv"
 "_ZSt10__distanceIN9__gnu_cxx17__normal_iteratorIPKNSt7__cxx1112basic_stringIcSt11char_traitsIcESaIcEEESt6vectorIS7_SaIS7_EEEEENSt15iterator_traitsIT_E15difference_typeESF_SF_St26random_access_iterator_tag"
 "_ZSt10__distanceIPcENSt15iterator_traitsIT_E15difference_typeES2_S2_St26random_access_iterator_tag"
 "_ZSt10__distanceIPiENSt15iterator_traitsIT_E15difference_typeES2_S2_St26random_access_iterator_tag"
 "_ZSt10__distanceIPKcENSt15iterator_traitsIT_E15difference_typeES3_S3_St26random_access_iterator_tag"
 "_ZSt10__fill_n_aIPiyiET_S1_T0_RKT1_St26random_access_iterator_tag"
 "_ZSt10_ConstructIiJEEvPT_DpOT0_"
 "_ZSt10_ConstructIiJRiEEvPT_DpOT0_"
 "_ZSt10_ConstructIiJRKiEEvPT_DpOT0_"
 "_ZSt10destroy_atIiEvPT_"
 "_ZSt10destroy_atINSt7__cxx1112basic_stringIcSt11char_traitsIcESaIcEEEEvPT_"
 "_ZSt11__addressofIcEPT_RS0_"
 "_ZSt11__addressofIiEPT_RS0_"
 "_ZSt11__addressofIKcEPT_RS1_"
 "_ZSt11__addressofINSt7__cxx1112basic_stringIcSt11char_traitsIcESaIcEEEEPT_RS6_"
 "_ZSt12__miter_baseIN9__gnu_cxx17__normal_iteratorIPKiSt6vectorIiSaIiEEEEET_S8_"
 "_ZSt12__miter_baseIN9__gnu_cxx17__normal_iteratorIPKNSt7__cxx1112basic_stringIcSt11char_traitsIcESaIcEEESt6vectorIS7_SaIS7_EEEEET_SE_"
 "_ZSt12__miter_baseIPiET_S1_"
 "_ZSt12__niter_baseIN4Rcpp8internal14Proxy_IteratorINS1_12string_proxyILi16ENS0_15PreserveStorageEEEEEET_S7_"
 "_ZSt12__niter_baseIPiET_S1_"
 "_ZSt12__niter_baseIPiSt6vectorIiSaIiEEET_N9__gnu_cxx17__normal_iteratorIS4_T0_EE"
 "_ZSt12__niter_baseIPKiSt6vectorIiSaIiEEET_N9__gnu_cxx17__normal_iteratorIS5_T0_EE"
 "_ZSt12__niter_baseIPKNSt7__cxx1112basic_stringIcSt11char_traitsIcESaIcEEESt6vectorIS5_SaIS5_EEET_N9__gnu_cxx17__normal_iteratorISB_T0_EE"
 "_ZSt12__niter_wrapIN4Rcpp8internal14Proxy_IteratorINS1_12string_proxyILi16ENS0_15PreserveStorageEEEEEET_RKS7_S7_"
 "_ZSt12__niter_wrapIN9__gnu_cxx17__normal_iteratorIPiSt6vectorIiSaIiEEEES2_ET_S7_T0_"
 "_ZSt12__niter_wrapIPiET_RKS1_S1_"
 "_ZSt12construct_atIcJRKcEEDTgsnwcvPvLi0E_T_pispcl7declvalIT0_EEEEPS3_DpOS4_"
 "_ZSt12construct_atIiJEEDTgsnwcvPvLi0E_T_pispcl7declvalIT0_EEEEPS1_DpOS2_"
 "_ZSt12construct_atIiJRiEEDTgsnwcvPvLi0E_T_pispcl7declvalIT0_EEEEPS2_DpOS3_"
 "_ZSt12construct_atIiJRKiEEDTgsnwcvPvLi0E_T_pispcl7declvalIT0_EEEEPS3_DpOS4_"
 "_ZSt13__copy_move_aILb0EN9__gnu_cxx17__normal_iteratorIPKiSt6vectorIiSaIiEEEEPiET1_T0_SA_S9_"
 "_ZSt13__copy_move_aILb0EN9__gnu_cxx17__normal_iteratorIPKNSt7__cxx1112basic_stringIcSt11char_traitsIcESaIcEEESt6vectorIS7_SaIS7_EEEEN4Rcpp8internal14Proxy_IteratorINSF_12string_proxyILi16ENSE_15PreserveStorageEEEEEET1_T0_SM_SL_"
 "_ZSt13__copy_move_aILb0EPiN9__gnu_cxx17__normal_iteratorIS0_St6vectorIiSaIiEEEEET1_T0_S8_S7_"
 "_ZSt13__copy_move_aILb0EPiS0_ET1_T0_S2_S1_"
 "_ZSt14__copy_move_a1ILb0EPiS0_ET1_T0_S2_S1_"
 "_ZSt14__copy_move_a1ILb0EPKiPiET1_T0_S4_S3_"
 "_ZSt14__copy_move_a1ILb0EPKNSt7__cxx1112basic_stringIcSt11char_traitsIcESaIcEEEN4Rcpp8internal14Proxy_IteratorINS9_12string_proxyILi16ENS8_15PreserveStorageEEEEEET1_T0_SG_SF_"
 "_ZSt14__copy_move_a2ILb0EPiS0_ET1_T0_S2_S1_"
 "_ZSt14__copy_move_a2ILb0EPKiPiET1_T0_S4_S3_"
 "_ZSt14__copy_move_a2ILb0EPKNSt7__cxx1112basic_stringIcSt11char_traitsIcESaIcEEEN4Rcpp8internal14Proxy_IteratorINS9_12string_proxyILi16ENS8_15PreserveStorageEEEEEET1_T0_SG_SF_"
 "_ZSt16__do_uninit_copyIN9__gnu_cxx17__normal_iteratorIPKiSt6vectorIiSaIiEEEEPiET0_T_SA_S9_"
 "_ZSt16__do_uninit_copyIPiS0_ET0_T_S2_S1_"
 "_ZSt17__size_to_integery"
 "_ZSt18uninitialized_copyIN9__gnu_cxx17__normal_iteratorIPKiSt6vectorIiSaIiEEEEPiET0_T_SA_S9_"
 "_ZSt18uninitialized_copyIPiS0_ET0_T_S2_S1_"
 "_ZSt19__iterator_categoryIN9__gnu_cxx17__normal_iteratorIPKNSt7__cxx1112basic_stringIcSt11char_traitsIcESaIcEEESt6vectorIS7_SaIS7_EEEEENSt15iterator_traitsIT_E17iterator_categoryERKSF_"
 "_ZSt19__iterator_categoryIPcENSt15iterator_traitsIT_E17iterator_categoryERKS2_"
 "_ZSt19__iterator_categoryIPiENSt15iterator_traitsIT_E17iterator_categoryERKS2_"
 "_ZSt19__iterator_categoryIPKcENSt15iterator_traitsIT_E17iterator_categoryERKS3_"
 "_ZSt21is_constant_evaluatedv"
 "_ZSt22__uninitialized_copy_aIN9__gnu_cxx17__normal_iteratorIPKiSt6vectorIiSaIiEEEEPiiET0_T_SA_S9_RSaIT1_E"
 "_ZSt22__uninitialized_copy_aIPiS0_iET0_T_S2_S1_RSaIT1_E"
 "_ZSt23__is_constant_evaluatedv"
 "_ZSt25__uninitialized_default_nIPiyET_S1_T0_"
 "_ZSt27__uninitialized_default_n_aIPiyiET_S1_T0_RSaIT1_E"
 "_ZSt3minIiERKT_S2_S2_"
 "_ZSt3minIyERKT_S2_S2_"
 "_ZSt4copyIN9__gnu_cxx17__normal_iteratorIPKiSt6vectorIiSaIiEEEEPiET0_T_SA_S9_"
 "_ZSt4copyIN9__gnu_cxx17__normal_iteratorIPKNSt7__cxx1112basic_stringIcSt11char_traitsIcESaIcEEESt6vectorIS7_SaIS7_EEEEN4Rcpp8internal14Proxy_IteratorINSF_12string_proxyILi16ENSE_15PreserveStorageEEEEEET0_T_SM_SL_"
 "_ZSt4copyIPiN9__gnu_cxx17__normal_iteratorIS0_St6vectorIiSaIiEEEEET0_T_S8_S7_"
 "_ZSt4copyIPiS0_ET0_T_S2_S1_"
 "_ZSt4moveIRNSt12_Vector_baseIiSaIiEE12_Vector_implEEONSt16remove_referenceIT_E4typeEOS6_"
 "_ZSt4moveIRSaIcEEONSt16remove_referenceIT_E4typeEOS3_"
 "_ZSt6fill_nIPiyiET_S1_T0_RKT1_"
 "_ZSt7forwardIiEOT_RNSt16remove_referenceIS0_E4typeE"
 "_ZSt7forwardIPKcEOT_RNSt16remove_referenceIS2_E4typeE"
 "_ZSt7forwardIRiEOT_RNSt16remove_referenceIS1_E4typeE"
 "_ZSt7forwardIRKcEOT_RNSt16remove_referenceIS2_E4typeE"
 "_ZSt7forwardIRKiEOT_RNSt16remove_referenceIS2_E4typeE"
 "_ZSt7forwardIRKPKcEOT_RNSt16remove_referenceIS4_E4typeE"
 "_ZSt8__fill_aIPiiEvT_S1_RKT0_"
 "_ZSt8_DestroyIiEvPT_"
 "_ZSt8_DestroyINSt7__cxx1112basic_stringIcSt11char_traitsIcESaIcEEEEvPT_"
 "_ZSt8_DestroyIPiEvT_S1_"
 "_ZSt8_DestroyIPiiEvT_S1_RSaIT0_E"
 "_ZSt8_DestroyIPNSt7__cxx1112basic_stringIcSt11char_traitsIcESaIcEEEEvT_S7_"
 "_ZSt8_DestroyIPNSt7__cxx1112basic_stringIcSt11char_traitsIcESaIcEEES5_EvT_S7_RSaIT0_E"
 "_ZSt8distanceIN9__gnu_cxx17__normal_iteratorIPKNSt7__cxx1112basic_stringIcSt11char_traitsIcESaIcEEESt6vectorIS7_SaIS7_EEEEENSt15iterator_traitsIT_E15difference_typeESF_SF_"
 "_ZSt8distanceIPcENSt15iterator_traitsIT_E15difference_typeES2_S2_"
 "_ZSt8distanceIPiENSt15iterator_traitsIT_E15difference_typeES2_S2_"
 "_ZSt8distanceIPKcENSt15iterator_traitsIT_E15difference_typeES3_S3_"
 "_ZSt9__fill_a1IPiiEN9__gnu_cxx11__enable_ifIXsrSt11__is_scalarIT0_E7__valueEvE6__typeET_S8_RKS4_"
 "_ZSt9addressofIcEPT_RS0_"
 "_ZSt9addressofIKcEPT_RS1_"
 "_ZStaNRSt13_Ios_FmtflagsS_"
 "_ZStanSt13_Ios_FmtflagsS_"
 "_ZStcoSt13_Ios_Fmtflags"
 "_ZStoRRSt13_Ios_FmtflagsS_"
 "_ZStorSt13_Ios_FmtflagsS_"
 "_ZTCN4Rcpp8RostreamILb0EEE0_So"
 "_ZTCN4Rcpp8RostreamILb1EEE0_So"
 "_ZTIN4Rcpp10eval_errorE"
 "_ZTIN4Rcpp10RstreambufILb0EEE"
 "_ZTIN4Rcpp10RstreambufILb1EEE"
 "_ZTIN4Rcpp14not_compatibleE"
 "_ZTIN4Rcpp17LongjumpExceptionE"
 "_ZTIN4Rcpp8internal20InterruptedExceptionE"
 "_ZTIN4Rcpp8RostreamILb0EEE"
 "_ZTIN4Rcpp8RostreamILb1EEE"
 "_ZTIN4Rcpp9exceptionE"
 "_ZTISt9exception"
 "_ZTSN4Rcpp10eval_errorE"
 "_ZTSN4Rcpp10RstreambufILb0EEE"
 "_ZTSN4Rcpp10RstreambufILb1EEE"
 "_ZTSN4Rcpp14not_compatibleE"
 "_ZTSN4Rcpp17LongjumpExceptionE"
 "_ZTSN4Rcpp8internal20InterruptedExceptionE"
 "_ZTSN4Rcpp8RostreamILb0EEE"
 "_ZTSN4Rcpp8RostreamILb1EEE"
 "_ZTSN4Rcpp9exceptionE"
 "_ZTSSt9exception"
 "_ZTTN4Rcpp8RostreamILb0EEE"
 "_ZTTN4Rcpp8RostreamILb1EEE"
 "_ZTv0_n24_N4Rcpp8RostreamILb0EED0Ev"
 "_ZTv0_n24_N4Rcpp8RostreamILb0EED1Ev"
 "_ZTv0_n24_N4Rcpp8RostreamILb1EED0Ev"
 "_ZTv0_n24_N4Rcpp8RostreamILb1EED1Ev"
 "_ZTVN4Rcpp10RstreambufILb0EEE"
 "_ZTVN4Rcpp10RstreambufILb1EEE"
 "_ZTVN4Rcpp14not_compatibleE"
 "_ZTVN4Rcpp8RostreamILb0EEE"
 "_ZTVN4Rcpp8RostreamILb1EEE"
 "_ZTVN4Rcpp9exceptionE"
 "_ZZ20rcpp_get_stack_tracevE3fun"
 "_ZZ20rcpp_set_stack_traceP7SEXPRECE3fun"
 "_ZZ7dataptrP7SEXPRECE3fun"
 "_ZZ8demangleRKNSt7__cxx1112basic_stringIcSt11char_traitsIcESaIcEEEE3funB5cxx11"
 "_ZZN4Rcpp20Rcpp_precious_removeEP7SEXPRECE3fun"
 "_ZZN4Rcpp22Rcpp_precious_preserveEP7SEXPRECE3fun"
 "_ZZN4Rcpp8internal12exitRNGScopeEvE3fun"
 "_ZZN4Rcpp8internal13enterRNGScopeEvE3fun"
 "_ZZNSt7__cxx1112basic_stringIcSt11char_traitsIcESaIcEE12_M_constructIPcEEvT_S7_St20forward_iterator_tagEN6_GuardC1EPS4_"
 "_ZZNSt7__cxx1112basic_stringIcSt11char_traitsIcESaIcEE12_M_constructIPcEEvT_S7_St20forward_iterator_tagEN6_GuardD1Ev"
 "_ZZNSt7__cxx1112basic_stringIcSt11char_traitsIcESaIcEE12_M_constructIPKcEEvT_S8_St20forward_iterator_tagEN6_GuardC1EPS4_"
 "_ZZNSt7__cxx1112basic_stringIcSt11char_traitsIcESaIcEE12_M_constructIPKcEEvT_S8_St20forward_iterator_tagEN6_GuardD1Ev"
 "R_init_frogger"
 "_Z10get_opts_rN4Rcpp6VectorILi19ENS_15PreserveStorageEEESt6vectorIiSaIiEE"
 "_Z14build_output_rIN8leapfrog10ChildModelEEDaN9LeapfrogRILNS0_8LanguageE1EdT_E11OutputStateESt6vectorIiSaIiEE"
 "_Z14build_output_rIN8leapfrog10ChildModelEEDaN9LeapfrogRILNS0_8LanguageE1EdT_E5StateE"
 "_Z14build_output_rIN8leapfrog21DemographicProjectionEEDaN9LeapfrogRILNS0_8LanguageE1EdT_E11OutputStateESt6vectorIiSaIiEE"
 "_Z14build_output_rIN8leapfrog21DemographicProjectionEEDaN9LeapfrogRILNS0_8LanguageE1EdT_E5StateE"
 "_Z14build_output_rIN8leapfrog24HivFullAgeStratificationEEDaN9LeapfrogRILNS0_8LanguageE1EdT_E11OutputStateESt6vectorIiSaIiEE"
 "_Z14build_output_rIN8leapfrog24HivFullAgeStratificationEEDaN9LeapfrogRILNS0_8LanguageE1EdT_E5StateE"
 "_Z14build_output_rIN8leapfrog26HivCoarseAgeStratificationEEDaN9LeapfrogRILNS0_8LanguageE1EdT_E11OutputStateESt6vectorIiSaIiEE"
 "_Z14build_output_rIN8leapfrog26HivCoarseAgeStratificationEEDaN9LeapfrogRILNS0_8LanguageE1EdT_E5StateE"
 "_Z14run_base_modelN4Rcpp6VectorILi19ENS_15PreserveStorageEEENSt7__cxx1112basic_stringIcSt11char_traitsIcESaIcEEESt6vectorIiSaIiEE"
 "_Z14simulate_modelIN8leapfrog10ChildModelEEN4Rcpp6VectorILi19ENS2_15PreserveStorageEEES5_S5_i"
 "_Z14simulate_modelIN8leapfrog10ChildModelEEN4Rcpp6VectorILi19ENS2_15PreserveStorageEEES5_St6vectorIiSaIiEE"
 "_Z14simulate_modelIN8leapfrog10ChildModelEEN4Rcpp6VectorILi19ENS2_15PreserveStorageEEES5_St6vectorIiSaIiEES5_i"
 "_Z14simulate_modelIN8leapfrog21DemographicProjectionEEN4Rcpp6VectorILi19ENS2_15PreserveStorageEEES5_S5_i"
 "_Z14simulate_modelIN8leapfrog21DemographicProjectionEEN4Rcpp6VectorILi19ENS2_15PreserveStorageEEES5_St6vectorIiSaIiEE"
 "_Z14simulate_modelIN8leapfrog21DemographicProjectionEEN4Rcpp6VectorILi19ENS2_15PreserveStorageEEES5_St6vectorIiSaIiEES5_i"
 "_Z14simulate_modelIN8leapfrog24HivFullAgeStratificationEEN4Rcpp6VectorILi19ENS2_15PreserveStorageEEES5_S5_i"
 "_Z14simulate_modelIN8leapfrog24HivFullAgeStratificationEEN4Rcpp6VectorILi19ENS2_15PreserveStorageEEES5_St6vectorIiSaIiEE"
 "_Z14simulate_modelIN8leapfrog24HivFullAgeStratificationEEN4Rcpp6VectorILi19ENS2_15PreserveStorageEEES5_St6vectorIiSaIiEES5_i"
 "_Z14simulate_modelIN8leapfrog26HivCoarseAgeStratificationEEN4Rcpp6VectorILi19ENS2_15PreserveStorageEEES5_S5_i"
 "_Z14simulate_modelIN8leapfrog26HivCoarseAgeStratificationEEN4Rcpp6VectorILi19ENS2_15PreserveStorageEEES5_St6vectorIiSaIiEE"
 "_Z14simulate_modelIN8leapfrog26HivCoarseAgeStratificationEEN4Rcpp6VectorILi19ENS2_15PreserveStorageEEES5_St6vectorIiSaIiEES5_i"
 "_Z25list_model_configurationsB5cxx11v"
 "_Z25run_base_model_from_stateN4Rcpp6VectorILi19ENS_15PreserveStorageEEENSt7__cxx1112basic_stringIcSt11char_traitsIcESaIcEEES2_iSt6vectorIiSaIiEE"
 "_Z26run_base_model_single_yearN4Rcpp6VectorILi19ENS_15PreserveStorageEEENSt7__cxx1112basic_stringIcSt11char_traitsIcESaIcEEES2_i"
 "_Z7dataptrP7SEXPREC"
 "_Z9sim_modelIJRKN4Rcpp6VectorILi19ENS0_15PreserveStorageEEERKSt6vectorIiSaIiEEEEDaNSt7__cxx1112basic_stringIcSt11char_traitsIcESaIcEEEDpOT_"
 "_Z9sim_modelIJRKN4Rcpp6VectorILi19ENS0_15PreserveStorageEEERKSt6vectorIiSaIiEES5_RiEEDaNSt7__cxx1112basic_stringIcSt11char_traitsIcESaIcEEEDpOT_"
 "_Z9sim_modelIJRKN4Rcpp6VectorILi19ENS0_15PreserveStorageEEES5_RiEEDaNSt7__cxx1112basic_stringIcSt11char_traitsIcESaIcEEEDpOT_"
 "_ZdlPvS_"
 "_ZGVZ7dataptrP7SEXPRECE3fun"
 "_ZGVZN4Rcpp20Rcpp_precious_removeEP7SEXPRECE3fun"
 "_ZGVZN4Rcpp22Rcpp_precious_preserveEP7SEXPRECE3fun"
 "_ZN10tinyformat10FormatListC2EPNS_6detail9FormatArgEi"
 "_ZN10tinyformat11formatValueIiEEvRSoPKcS3_iRKT_"
 "_ZN10tinyformat11formatValueINSt7__cxx1112basic_stringIcSt11char_traitsIcESaIcEEEEEvRSoPKcS9_iRKT_"
 "_ZN10tinyformat11formatValueIPKcEEvRSoS2_S2_iRKT_"
 "_ZN10tinyformat14makeFormatListIJEEENS_6detail11FormatListNIXsZT_EEEDpRKT_"
 "_ZN10tinyformat14makeFormatListIJiEEENS_6detail11FormatListNIXsZT_EEEDpRKT_"
 "_ZN10tinyformat14makeFormatListIJNSt7__cxx1112basic_stringIcSt11char_traitsIcESaIcEEEEEENS_6detail11FormatListNIXsZT_EEEDpRKT_"
 "_ZN10tinyformat14makeFormatListIJNSt7__cxx1112basic_stringIcSt11char_traitsIcESaIcEEEiiEEENS_6detail11FormatListNIXsZT_EEEDpRKT_"
 "_ZN10tinyformat14makeFormatListIJPKciEEENS_6detail11FormatListNIXsZT_EEEDpRKT_"
 "_ZN10tinyformat6detail10formatImplERSoPKcPKNS0_9FormatArgEi"
 "_ZN10tinyformat6detail11FormatListNILi0EEC1Ev"
 "_ZN10tinyformat6detail11FormatListNILi1EEC1IJiEEEDpRKT_"
 "_ZN10tinyformat6detail11FormatListNILi1EEC1IJNSt7__cxx1112basic_stringIcSt11char_traitsIcESaIcEEEEEEDpRKT_"
 "_ZN10tinyformat6detail11FormatListNILi2EEC1IJPKciEEEDpRKT_"
 "_ZN10tinyformat6detail11FormatListNILi3EEC1IJNSt7__cxx1112basic_stringIcSt11char_traitsIcESaIcEEEiiEEEDpRKT_"
 "_ZN10tinyformat6detail12convertToIntIiLb1EE6invokeERKi"
 "_ZN10tinyformat6detail12convertToIntINSt7__cxx1112basic_stringIcSt11char_traitsIcESaIcEEELb0EE6invokeERKS7_"
 "_ZN10tinyformat6detail12convertToIntIPKcLb0EE6invokeERKS3_"
 "_ZN10tinyformat6detail15formatTruncatedERSoPKci"
 "_ZN10tinyformat6detail15formatTruncatedIiEEvRSoRKT_i"
 "_ZN10tinyformat6detail15formatTruncatedINSt7__cxx1112basic_stringIcSt11char_traitsIcESaIcEEEEEvRSoRKT_i"
 "_ZN10tinyformat6detail17formatValueAsTypeIicLb1EE6invokeERSoRKi"
 "_ZN10tinyformat6detail17formatValueAsTypeIPKcPKvLb1EE6invokeERSoRKS3_"
 "_ZN10tinyformat6detail18parseIntAndAdvanceERPKc"
 "_ZN10tinyformat6detail21streamStateFromFormatERSoRbRiPKcPKNS0_9FormatArgES3_i"
 "_ZN10tinyformat6detail24printFormatStringLiteralERSoPKc"
 "_ZN10tinyformat6detail9FormatArg10formatImplIiEEvRSoPKcS5_iPKv"
 "_ZN10tinyformat6detail9FormatArg10formatImplINSt7__cxx1112basic_stringIcSt11char_traitsIcESaIcEEEEEvRSoPKcSB_iPKv"
 "_ZN10tinyformat6detail9FormatArg10formatImplIPKcEEvRSoS4_S4_iPKv"
 "_ZN10tinyformat6detail9FormatArg9toIntImplIiEEiPKv"
 "_ZN10tinyformat6detail9FormatArg9toIntImplINSt7__cxx1112basic_stringIcSt11char_traitsIcESaIcEEEEEiPKv"
 "_ZN10tinyformat6detail9FormatArg9toIntImplIPKcEEiPKv"
 "_ZN10tinyformat6detail9FormatArgC1IiEERKT_"
 "_ZN10tinyformat6detail9FormatArgC1INSt7__cxx1112basic_stringIcSt11char_traitsIcESaIcEEEEERKT_"
 "_ZN10tinyformat6detail9FormatArgC1IPKcEERKT_"
 "_ZN10tinyformat6formatIJEEENSt7__cxx1112basic_stringIcSt11char_traitsIcESaIcEEEPKcDpRKT_"
 "_ZN10tinyformat6formatIJEEEvRSoPKcDpRKT_"
 "_ZN10tinyformat6formatIJiEEENSt7__cxx1112basic_stringIcSt11char_traitsIcESaIcEEEPKcDpRKT_"
 "_ZN10tinyformat6formatIJiEEEvRSoPKcDpRKT_"
 "_ZN10tinyformat6formatIJNSt7__cxx1112basic_stringIcSt11char_traitsIcESaIcEEEEEES6_PKcDpRKT_"
 "_ZN10tinyformat6formatIJNSt7__cxx1112basic_stringIcSt11char_traitsIcESaIcEEEEEEvRSoPKcDpRKT_"
 "_ZN10tinyformat6formatIJNSt7__cxx1112basic_stringIcSt11char_traitsIcESaIcEEEiiEEES6_PKcDpRKT_"
 "_ZN10tinyformat6formatIJNSt7__cxx1112basic_stringIcSt11char_traitsIcESaIcEEEiiEEEvRSoPKcDpRKT_"
 "_ZN10tinyformat6formatIJPKciEEENSt7__cxx1112basic_stringIcSt11char_traitsIcESaIcEEES2_DpRKT_"
 "_ZN10tinyformat6formatIJPKciEEEvRSoS2_DpRKT_"
 "_ZN10tinyformat7vformatERSoPKcRKNS_10FormatListE"
 "_ZN4Rcpp10RstreambufILb0EE4syncEv"
 "_ZN4Rcpp10RstreambufILb0EE6xsputnEPKcx"
 "_ZN4Rcpp10RstreambufILb0EE8overflowEi"
 "_ZN4Rcpp10RstreambufILb0EEC1Ev"
 "_ZN4Rcpp10RstreambufILb0EED0Ev"
 "_ZN4Rcpp10RstreambufILb0EED1Ev"
 "_ZN4Rcpp10RstreambufILb1EE4syncEv"
 "_ZN4Rcpp10RstreambufILb1EE6xsputnEPKcx"
 "_ZN4Rcpp10RstreambufILb1EE8overflowEi"
 "_ZN4Rcpp10RstreambufILb1EEC1Ev"
 "_ZN4Rcpp10RstreambufILb1EED0Ev"
 "_ZN4Rcpp10RstreambufILb1EED1Ev"
 "_ZN4Rcpp12Rcpp_protectEP7SEXPREC"
 "_ZN4Rcpp13unwindProtectEPFP7SEXPRECPvES2_"
 "_ZN4Rcpp14not_compatibleC1IJiEEEPKcDpOT_"
 "_ZN4Rcpp14not_compatibleC1IJPKciEEES3_DpOT_"
 "_ZN4Rcpp14not_compatibleD0Ev"
 "_ZN4Rcpp14not_compatibleD1Ev"
 "_ZN4Rcpp14Rcpp_fast_evalEP7SEXPRECS1_"
 "_ZN4Rcpp14Rcpp_unprotectEi"
 "_ZN4Rcpp15PreserveStorageINS_6VectorILi13ES0_EEE5set__EP7SEXPREC"
 "_ZN4Rcpp15PreserveStorageINS_6VectorILi13ES0_EEEC2Ev"
 "_ZN4Rcpp15PreserveStorageINS_6VectorILi13ES0_EEED2Ev"
 "_ZN4Rcpp15PreserveStorageINS_6VectorILi14ES0_EEE5set__EP7SEXPREC"
 "_ZN4Rcpp15PreserveStorageINS_6VectorILi14ES0_EEEC2Ev"
 "_ZN4Rcpp15PreserveStorageINS_6VectorILi14ES0_EEED2Ev"
 "_ZN4Rcpp15PreserveStorageINS_6VectorILi16ES0_EEE5set__EP7SEXPREC"
 "_ZN4Rcpp15PreserveStorageINS_6VectorILi16ES0_EEEC2Ev"
 "_ZN4Rcpp15PreserveStorageINS_6VectorILi16ES0_EEED2Ev"
 "_ZN4Rcpp15PreserveStorageINS_6VectorILi19ES0_EEE5set__EP7SEXPREC"
 "_ZN4Rcpp15PreserveStorageINS_6VectorILi19ES0_EEE6copy__IS2_EERT_RKS5_"
 "_ZN4Rcpp15PreserveStorageINS_6VectorILi19ES0_EEEC2Ev"
 "_ZN4Rcpp15PreserveStorageINS_6VectorILi19ES0_EEED2Ev"
 "_ZN4Rcpp17LongjumpExceptionC1EP7SEXPREC"
 "_ZN4Rcpp19index_out_of_boundsC1IJEEEPKcDpOT_"
 "_ZN4Rcpp19index_out_of_boundsC1IJRKNSt7__cxx1112basic_stringIcSt11char_traitsIcESaIcEEEEEEPKcDpOT_"
 "_ZN4Rcpp19index_out_of_boundsD0Ev"
 "_ZN4Rcpp19index_out_of_boundsD1Ev"
 "_ZN4Rcpp20AttributeProxyPolicyINS_6VectorILi14ENS_15PreserveStorageEEEE14AttributeProxy3setEP7SEXPREC"
 "_ZN4Rcpp20AttributeProxyPolicyINS_6VectorILi14ENS_15PreserveStorageEEEE14AttributeProxyaSINS1_ILi13ES2_EEEERS5_RKT_"
 "_ZN4Rcpp20AttributeProxyPolicyINS_6VectorILi14ENS_15PreserveStorageEEEE14AttributeProxyC1ERS3_RKNSt7__cxx1112basic_stringIcSt11char_traitsIcESaIcEEE"
 "_ZN4Rcpp20AttributeProxyPolicyINS_6VectorILi14ENS_15PreserveStorageEEEE4attrERKNSt7__cxx1112basic_stringIcSt11char_traitsIcESaIcEEE"
 "_ZN4Rcpp20AttributeProxyPolicyINS_6VectorILi19ENS_15PreserveStorageEEEE14AttributeProxy3setEP7SEXPREC"
 "_ZN4Rcpp20AttributeProxyPolicyINS_6VectorILi19ENS_15PreserveStorageEEEE14AttributeProxyaSINS1_ILi16ES2_EEEERS5_RKT_"
 "_ZN4Rcpp20AttributeProxyPolicyINS_6VectorILi19ENS_15PreserveStorageEEEE14AttributeProxyC1ERS3_RKNSt7__cxx1112basic_stringIcSt11char_traitsIcESaIcEEE"
 "_ZN4Rcpp20AttributeProxyPolicyINS_6VectorILi19ENS_15PreserveStorageEEEE4attrERKNSt7__cxx1112basic_stringIcSt11char_traitsIcESaIcEEE"
 "_ZN4Rcpp20Rcpp_precious_removeEP7SEXPREC"
 "_ZN4Rcpp20Rcpp_PreciousReleaseEP7SEXPREC"
 "_ZN4Rcpp21Rcpp_PreciousPreserveEP7SEXPREC"
 "_ZN4Rcpp22Rcpp_precious_preserveEP7SEXPREC"
 "_ZN4Rcpp2asIdEET_P7SEXPREC"
 "_ZN4Rcpp2asIiEET_P7SEXPREC"
 "_ZN4Rcpp2asINSt7__cxx1112basic_stringIcSt11char_traitsIcESaIcEEEEET_P7SEXPREC"
 "_ZN4Rcpp4stopERKNSt7__cxx1112basic_stringIcSt11char_traitsIcESaIcEEE"
 "_ZN4Rcpp4stopIJRKNSt7__cxx1112basic_stringIcSt11char_traitsIcESaIcEEERiiEEEvPKcDpOT_"
 "_ZN4Rcpp4wrapIdEEP7SEXPRECRKT_"
 "_ZN4Rcpp4wrapINS_6VectorILi13ENS_15PreserveStorageEEEEEP7SEXPRECRKT_"
 "_ZN4Rcpp4wrapINS_6VectorILi14ENS_15PreserveStorageEEEEEP7SEXPRECRKT_"
 "_ZN4Rcpp4wrapINS_6VectorILi16ENS_15PreserveStorageEEEEEP7SEXPRECRKT_"
 "_ZN4Rcpp6r_castILi13EEEP7SEXPRECS2_"
 "_ZN4Rcpp6r_castILi14EEEP7SEXPRECS2_"
 "_ZN4Rcpp6r_castILi16EEEP7SEXPRECS2_"
 "_ZN4Rcpp6ShieldIP7SEXPRECEC1ES2_"
 "_ZN4Rcpp6ShieldIP7SEXPRECED1Ev"
 "_ZN4Rcpp6traits11proxy_cacheILi16ENS_15PreserveStorageEE3refEx"
 "_ZN4Rcpp6traits11proxy_cacheILi16ENS_15PreserveStorageEE6updateERKNS_6VectorILi16ES2_EE"
 "_ZN4Rcpp6traits11proxy_cacheILi16ENS_15PreserveStorageEEC1Ev"
 "_ZN4Rcpp6traits11proxy_cacheILi16ENS_15PreserveStorageEED1Ev"
 "_ZN4Rcpp6traits11proxy_cacheILi19ENS_15PreserveStorageEE3refEx"
 "_ZN4Rcpp6traits11proxy_cacheILi19ENS_15PreserveStorageEE6updateERKNS_6VectorILi19ES2_EE"
 "_ZN4Rcpp6traits11proxy_cacheILi19ENS_15PreserveStorageEEC1Ev"
 "_ZN4Rcpp6traits11proxy_cacheILi19ENS_15PreserveStorageEED1Ev"
 "_ZN4Rcpp6traits14r_vector_cacheILi13ENS_15PreserveStorageEE6updateERKNS_6VectorILi13ES2_EE"
 "_ZN4Rcpp6traits14r_vector_cacheILi13ENS_15PreserveStorageEEC1Ev"
 "_ZN4Rcpp6traits14r_vector_cacheILi14ENS_15PreserveStorageEE6updateERKNS_6VectorILi14ES2_EE"
 "_ZN4Rcpp6traits14r_vector_cacheILi14ENS_15PreserveStorageEEC1Ev"
 "_ZN4Rcpp6VectorILi13ENS_15PreserveStorageEE16create__dispatchIiEES2_NS_6traits17integral_constantIbLb0EEERKT_"
 "_ZN4Rcpp6VectorILi13ENS_15PreserveStorageEE16create__dispatchIiiEES2_NS_6traits17integral_constantIbLb0EEERKT_RKT0_"
 "_ZN4Rcpp6VectorILi13ENS_15PreserveStorageEE16create__dispatchIiiiEES2_NS_6traits17integral_constantIbLb0EEERKT_RKT0_RKT1_"
 "_ZN4Rcpp6VectorILi13ENS_15PreserveStorageEE16create__dispatchIiiiiEES2_NS_6traits17integral_constantIbLb0EEERKT_RKT0_RKT1_RKT2_"
 "_ZN4Rcpp6VectorILi13ENS_15PreserveStorageEE16create__dispatchIiiiiyEES2_NS_6traits17integral_constantIbLb0EEERKT_RKT0_RKT1_RKT2_RKT3_"
 "_ZN4Rcpp6VectorILi13ENS_15PreserveStorageEE16create__dispatchIiiiyEES2_NS_6traits17integral_constantIbLb0EEERKT_RKT0_RKT1_RKT2_"
 "_ZN4Rcpp6VectorILi13ENS_15PreserveStorageEE16create__dispatchIiiyEES2_NS_6traits17integral_constantIbLb0EEERKT_RKT0_RKT1_"
 "_ZN4Rcpp6VectorILi13ENS_15PreserveStorageEE16create__dispatchIiyEES2_NS_6traits17integral_constantIbLb0EEERKT_RKT0_"
 "_ZN4Rcpp6VectorILi13ENS_15PreserveStorageEE16create__dispatchIyEES2_NS_6traits17integral_constantIbLb0EEERKT_"
 "_ZN4Rcpp6VectorILi13ENS_15PreserveStorageEE4initEv"
 "_ZN4Rcpp6VectorILi13ENS_15PreserveStorageEE5beginEv"
 "_ZN4Rcpp6VectorILi13ENS_15PreserveStorageEE6createIiEES2_RKT_"
 "_ZN4Rcpp6VectorILi13ENS_15PreserveStorageEE6createIiiEES2_RKT_RKT0_"
 "_ZN4Rcpp6VectorILi13ENS_15PreserveStorageEE6createIiiiEES2_RKT_RKT0_RKT1_"
 "_ZN4Rcpp6VectorILi13ENS_15PreserveStorageEE6createIiiiiEES2_RKT_RKT0_RKT1_RKT2_"
 "_ZN4Rcpp6VectorILi13ENS_15PreserveStorageEE6createIiiiiyEES2_RKT_RKT0_RKT1_RKT2_RKT3_"
 "_ZN4Rcpp6VectorILi13ENS_15PreserveStorageEE6createIiiiyEES2_RKT_RKT0_RKT1_RKT2_"
 "_ZN4Rcpp6VectorILi13ENS_15PreserveStorageEE6createIiiyEES2_RKT_RKT0_RKT1_"
 "_ZN4Rcpp6VectorILi13ENS_15PreserveStorageEE6createIiyEES2_RKT_RKT0_"
 "_ZN4Rcpp6VectorILi13ENS_15PreserveStorageEE6createIyEES2_RKT_"
 "_ZN4Rcpp6VectorILi13ENS_15PreserveStorageEE6updateEP7SEXPREC"
 "_ZN4Rcpp6VectorILi13ENS_15PreserveStorageEEC1ERKi"
 "_ZN4Rcpp6VectorILi13ENS_15PreserveStorageEED1Ev"
 "_ZN4Rcpp6VectorILi14ENS_15PreserveStorageEE4initEv"
 "_ZN4Rcpp6VectorILi14ENS_15PreserveStorageEE6updateEP7SEXPREC"
 "_ZN4Rcpp6VectorILi14ENS_15PreserveStorageEEC1ERKi"
 "_ZN4Rcpp6VectorILi14ENS_15PreserveStorageEEC1IyEET_PNS_6traits9enable_ifIXsrNS5_13is_arithmeticIS4_EE5valueEvE4typeE"
 "_ZN4Rcpp6VectorILi14ENS_15PreserveStorageEED1Ev"
 "_ZN4Rcpp6VectorILi16ENS_15PreserveStorageEE4initEv"
 "_ZN4Rcpp6VectorILi16ENS_15PreserveStorageEE6updateEP7SEXPREC"
 "_ZN4Rcpp6VectorILi16ENS_15PreserveStorageEEC1ERKi"
 "_ZN4Rcpp6VectorILi16ENS_15PreserveStorageEED1Ev"
 "_ZN4Rcpp6VectorILi16ENS_15PreserveStorageEEixEx"
 "_ZN4Rcpp6VectorILi19ENS_15PreserveStorageEE4initEv"
 "_ZN4Rcpp6VectorILi19ENS_15PreserveStorageEE6updateEP7SEXPREC"
 "_ZN4Rcpp6VectorILi19ENS_15PreserveStorageEEC1ERKi"
 "_ZN4Rcpp6VectorILi19ENS_15PreserveStorageEEC1ERKS2_"
 "_ZN4Rcpp6VectorILi19ENS_15PreserveStorageEED1Ev"
 "_ZN4Rcpp6VectorILi19ENS_15PreserveStorageEEixEx"
 "_ZN4Rcpp8internal10basic_castILi13EEEP7SEXPRECS3_"
 "_ZN4Rcpp8internal10basic_castILi14EEEP7SEXPRECS3_"
 "_ZN4Rcpp8internal11r_true_castILi13EEEP7SEXPRECS3_"
 "_ZN4Rcpp8internal11r_true_castILi14EEEP7SEXPRECS3_"
 "_ZN4Rcpp8internal11r_true_castILi16EEEP7SEXPRECS3_"
 "_ZN4Rcpp8internal12primitive_asIdEET_P7SEXPREC"
 "_ZN4Rcpp8internal12primitive_asIiEET_P7SEXPREC"
 "_ZN4Rcpp8internal12string_proxyILi16ENS_15PreserveStorageEE3setEP7SEXPREC"
 "_ZN4Rcpp8internal12string_proxyILi16ENS_15PreserveStorageEEaSEPKc"
 "_ZN4Rcpp8internal12string_proxyILi16ENS_15PreserveStorageEEC1ERNS_6VectorILi16ES2_EEx"
 "_ZN4Rcpp8internal13generic_proxyILi19ENS_15PreserveStorageEE3setEP7SEXPREC"
 "_ZN4Rcpp8internal13generic_proxyILi19ENS_15PreserveStorageEEaSIdEERS3_RKT_"
 "_ZN4Rcpp8internal13generic_proxyILi19ENS_15PreserveStorageEEaSINS_6VectorILi14ES2_EEEERS3_RKT_"
 "_ZN4Rcpp8internal13generic_proxyILi19ENS_15PreserveStorageEEC1ERNS_6VectorILi19ES2_EEx"
 "_ZN4Rcpp8internal13r_init_vectorILi13EEEvP7SEXPREC"
 "_ZN4Rcpp8internal13r_init_vectorILi14EEEvP7SEXPREC"
 "_ZN4Rcpp8internal13r_init_vectorILi16EEEvP7SEXPREC"
 "_ZN4Rcpp8internal13r_init_vectorILi19EEEvP7SEXPREC"
 "_ZN4Rcpp8internal13wrap_dispatchIdEEP7SEXPRECRKT_NS_6traits23wrap_type_primitive_tagE"
 "_ZN4Rcpp8internal13wrap_dispatchINS_6VectorILi13ENS_15PreserveStorageEEEEEP7SEXPRECRKT_NS_6traits21wrap_type_unknown_tagE"
 "_ZN4Rcpp8internal13wrap_dispatchINS_6VectorILi14ENS_15PreserveStorageEEEEEP7SEXPRECRKT_NS_6traits21wrap_type_unknown_tagE"
 "_ZN4Rcpp8internal13wrap_dispatchINS_6VectorILi16ENS_15PreserveStorageEEEEEP7SEXPRECRKT_NS_6traits21wrap_type_unknown_tagE"
 "_ZN4Rcpp8internal14primitive_wrapIdEEP7SEXPRECRKT_"
 "_ZN4Rcpp8internal14r_vector_startILi13EEEPNS_6traits12storage_typeIXT_EE4typeEP7SEXPREC"
 "_ZN4Rcpp8internal14r_vector_startILi14EEEPNS_6traits12storage_typeIXT_EE4typeEP7SEXPREC"
 "_ZN4Rcpp8internal16getLongjumpTokenEP7SEXPREC"
 "_ZN4Rcpp8internal16NamedPlaceHolderC1Ev"
 "_ZN4Rcpp8internal16NamedPlaceHolderD1Ev"
 "_ZN4Rcpp8internal17element_converterILi13EE3getERKi"
 "_ZN4Rcpp8internal17element_converterILi13EE3getIyEEiRKT_"
 "_ZN4Rcpp8internal18generic_name_proxyILi19ENS_15PreserveStorageEEC1ERNS_6VectorILi19ES2_EERKNSt7__cxx1112basic_stringIcSt11char_traitsIcESaIcEEE"
 "_ZN4Rcpp8internal18generic_name_proxyILi19ENS_15PreserveStorageEED1Ev"
 "_ZN4Rcpp8internal18isLongjumpSentinelEP7SEXPREC"
 "_ZN4Rcpp8internal19check_single_stringEP7SEXPREC"
 "_ZN4Rcpp8internal19Rcpp_protected_evalEPv"
 "_ZN4Rcpp8internal19wrap_dispatch_eigenINS_6VectorILi13ENS_15PreserveStorageEEEEEP7SEXPRECRKT_NS_6traits17integral_constantIbLb0EEE"
 "_ZN4Rcpp8internal19wrap_dispatch_eigenINS_6VectorILi14ENS_15PreserveStorageEEEEEP7SEXPRECRKT_NS_6traits17integral_constantIbLb0EEE"
 "_ZN4Rcpp8internal19wrap_dispatch_eigenINS_6VectorILi16ENS_15PreserveStorageEEEEEP7SEXPRECRKT_NS_6traits17integral_constantIbLb0EEE"
 "_ZN4Rcpp8internal20primitive_wrap__implIdEEP7SEXPRECRKT_NS_6traits20r_type_primitive_tagE"
 "_ZN4Rcpp8internal21wrap_dispatch_unknownINS_6VectorILi13ENS_15PreserveStorageEEEEEP7SEXPRECRKT_NS_6traits17integral_constantIbLb1EEE"
 "_ZN4Rcpp8internal21wrap_dispatch_unknownINS_6VectorILi14ENS_15PreserveStorageEEEEEP7SEXPRECRKT_NS_6traits17integral_constantIbLb1EEE"
 "_ZN4Rcpp8internal21wrap_dispatch_unknownINS_6VectorILi16ENS_15PreserveStorageEEEEEP7SEXPRECRKT_NS_6traits17integral_constantIbLb1EEE"
 "_ZN4Rcpp8internal26primitive_wrap__impl__castIdEEP7SEXPRECRKT_NS_6traits17integral_constantIbLb0EEE"
 "_ZN4Rcpp8internal2asIdEET_P7SEXPRECNS_6traits20r_type_primitive_tagE"
 "_ZN4Rcpp8internal2asIiEET_P7SEXPRECNS_6traits20r_type_primitive_tagE"
 "_ZN4Rcpp8internal2asINSt7__cxx1112basic_stringIcSt11char_traitsIcESaIcEEEEET_P7SEXPRECNS_6traits17r_type_string_tagE"
 "_ZN4Rcpp8internal32wrap_dispatch_unknown_importableINS_6VectorILi13ENS_15PreserveStorageEEEEEP7SEXPRECRKT_NS_6traits17integral_constantIbLb0EEE"
 "_ZN4Rcpp8internal32wrap_dispatch_unknown_importableINS_6VectorILi14ENS_15PreserveStorageEEEEEP7SEXPRECRKT_NS_6traits17integral_constantIbLb0EEE"
 "_ZN4Rcpp8internal32wrap_dispatch_unknown_importableINS_6VectorILi16ENS_15PreserveStorageEEEEEP7SEXPRECRKT_NS_6traits17integral_constantIbLb0EEE"
 "_ZN4Rcpp8internal6casterIddEET0_T_"
 "_ZN4Rcpp8internal6casterIiiEET0_T_"
 "_ZN4Rcpp8internal6casterIyiEET0_T_"
 "_ZN4Rcpp8internal8EvalDataC1EP7SEXPRECS3_"
 "_ZN4Rcpp8internal8get_zeroILi13EiEET0_v"
 "_ZN4Rcpp8internal8get_zeroILi14EdEET0_v"
 "_ZN4Rcpp8internal9as_stringINSt7__cxx1112basic_stringIcSt11char_traitsIcESaIcEEEEET_P7SEXPRECNS_6traits17integral_constantIbLb0EEE"
 "_ZN4Rcpp8internal9maybeJumpEPv8Rboolean"
 "_ZN4Rcpp8RostreamILb0EEC1Ev"
 "_ZN4Rcpp8RostreamILb0EED0Ev"
 "_ZN4Rcpp8RostreamILb0EED1Ev"
 "_ZN4Rcpp8RostreamILb1EEC1Ev"
 "_ZN4Rcpp8RostreamILb1EED0Ev"
 "_ZN4Rcpp8RostreamILb1EED1Ev"
 "_ZN4Rcpp9exception18record_stack_traceEv"
 "_ZN4Rcpp9exceptionC1EPKcb"
 "_ZN4Rcpp9exceptionD0Ev"
 "_ZN4Rcpp9exceptionD1Ev"
 "_ZN5Eigen10TensorBaseINS_15TensorFixedSizeIdNS_5SizesIJLx2EEEELi0ExEELi1EE11setConstantERKd"
 "_ZN5Eigen10TensorBaseINS_15TensorFixedSizeIdNS_5SizesIJLx2EEEELi0ExEELi1EE7derivedEv"
 "_ZN5Eigen10TensorBaseINS_15TensorFixedSizeIdNS_5SizesIJLx2EEEELi0ExEELi1EE7setZeroEv"
 "_ZN5Eigen10TensorBaseINS_15TensorFixedSizeIdNS_5SizesIJLx3EEEELi0ExEELi1EE11setConstantERKd"
 "_ZN5Eigen10TensorBaseINS_15TensorFixedSizeIdNS_5SizesIJLx3EEEELi0ExEELi1EE7derivedEv"
 "_ZN5Eigen10TensorBaseINS_15TensorFixedSizeIdNS_5SizesIJLx3EEEELi0ExEELi1EE7setZeroEv"
 "_ZN5Eigen10TensorBaseINS_15TensorFixedSizeIdNS_5SizesIJLx3ELx6ELx10ELx2EEEELi0ExEELi1EE11setConstantERKd"
 "_ZN5Eigen10TensorBaseINS_15TensorFixedSizeIdNS_5SizesIJLx3ELx6ELx10ELx2EEEELi0ExEELi1EE7derivedEv"
 "_ZN5Eigen10TensorBaseINS_15TensorFixedSizeIdNS_5SizesIJLx3ELx6ELx10ELx2EEEELi0ExEELi1EE7setZeroEv"
 "_ZN5Eigen10TensorBaseINS_15TensorFixedSizeIdNS_5SizesIJLx3ELx7ELx2EEEELi0ExEELi1EE11setConstantERKd"
 "_ZN5Eigen10TensorBaseINS_15TensorFixedSizeIdNS_5SizesIJLx3ELx7ELx2EEEELi0ExEELi1EE7derivedEv"
 "_ZN5Eigen10TensorBaseINS_15TensorFixedSizeIdNS_5SizesIJLx3ELx7ELx2EEEELi0ExEELi1EE7setZeroEv"
 "_ZN5Eigen10TensorBaseINS_15TensorFixedSizeIdNS_5SizesIJLx3ELx7ELx5ELx2EEEELi0ExEELi1EE11setConstantERKd"
 "_ZN5Eigen10TensorBaseINS_15TensorFixedSizeIdNS_5SizesIJLx3ELx7ELx5ELx2EEEELi0ExEELi1EE7derivedEv"
 "_ZN5Eigen10TensorBaseINS_15TensorFixedSizeIdNS_5SizesIJLx3ELx7ELx5ELx2EEEELi0ExEELi1EE7setZeroEv"
 "_ZN5Eigen10TensorBaseINS_15TensorFixedSizeIdNS_5SizesIJLx3ELx7ELx66ELx2EEEELi0ExEELi1EE11setConstantERKd"
 "_ZN5Eigen10TensorBaseINS_15TensorFixedSizeIdNS_5SizesIJLx3ELx7ELx66ELx2EEEELi0ExEELi1EE7derivedEv"
 "_ZN5Eigen10TensorBaseINS_15TensorFixedSizeIdNS_5SizesIJLx3ELx7ELx66ELx2EEEELi0ExEELi1EE7setZeroEv"
 "_ZN5Eigen10TensorBaseINS_15TensorFixedSizeIdNS_5SizesIJLx3ELx7ELx9ELx2EEEELi0ExEELi1EE11setConstantERKd"
 "_ZN5Eigen10TensorBaseINS_15TensorFixedSizeIdNS_5SizesIJLx3ELx7ELx9ELx2EEEELi0ExEELi1EE7derivedEv"
 "_ZN5Eigen10TensorBaseINS_15TensorFixedSizeIdNS_5SizesIJLx3ELx7ELx9ELx2EEEELi0ExEELi1EE7setZeroEv"
 "_ZN5Eigen10TensorBaseINS_15TensorFixedSizeIdNS_5SizesIJLx4EEEELi0ExEELi1EE11setConstantERKd"
 "_ZN5Eigen10TensorBaseINS_15TensorFixedSizeIdNS_5SizesIJLx4EEEELi0ExEELi1EE7derivedEv"
 "_ZN5Eigen10TensorBaseINS_15TensorFixedSizeIdNS_5SizesIJLx4EEEELi0ExEELi1EE7setZeroEv"
 "_ZN5Eigen10TensorBaseINS_15TensorFixedSizeIdNS_5SizesIJLx4ELx5ELx2EEEELi0ExEELi1EE11setConstantERKd"
 "_ZN5Eigen10TensorBaseINS_15TensorFixedSizeIdNS_5SizesIJLx4ELx5ELx2EEEELi0ExEELi1EE7derivedEv"
 "_ZN5Eigen10TensorBaseINS_15TensorFixedSizeIdNS_5SizesIJLx4ELx5ELx2EEEELi0ExEELi1EE7setZeroEv"
 "_ZN5Eigen10TensorBaseINS_15TensorFixedSizeIdNS_5SizesIJLx66EEEELi0ExEELi1EE11setConstantERKd"
 "_ZN5Eigen10TensorBaseINS_15TensorFixedSizeIdNS_5SizesIJLx66EEEELi0ExEELi1EE7derivedEv"
 "_ZN5Eigen10TensorBaseINS_15TensorFixedSizeIdNS_5SizesIJLx66EEEELi0ExEELi1EE7setZeroEv"
 "_ZN5Eigen10TensorBaseINS_15TensorFixedSizeIdNS_5SizesIJLx66ELx2EEEELi0ExEELi1EE11setConstantERKd"
 "_ZN5Eigen10TensorBaseINS_15TensorFixedSizeIdNS_5SizesIJLx66ELx2EEEELi0ExEELi1EE7derivedEv"
 "_ZN5Eigen10TensorBaseINS_15TensorFixedSizeIdNS_5SizesIJLx66ELx2EEEELi0ExEELi1EE7setZeroEv"
 "_ZN5Eigen10TensorBaseINS_15TensorFixedSizeIdNS_5SizesIJLx6ELx4ELx10ELx2EEEELi0ExEELi1EE11setConstantERKd"
 "_ZN5Eigen10TensorBaseINS_15TensorFixedSizeIdNS_5SizesIJLx6ELx4ELx10ELx2EEEELi0ExEELi1EE7derivedEv"
 "_ZN5Eigen10TensorBaseINS_15TensorFixedSizeIdNS_5SizesIJLx6ELx4ELx10ELx2EEEELi0ExEELi1EE7setZeroEv"
 "_ZN5Eigen10TensorBaseINS_15TensorFixedSizeIdNS_5SizesIJLx6ELx4ELx5ELx2EEEELi0ExEELi1EE11setConstantERKd"
 "_ZN5Eigen10TensorBaseINS_15TensorFixedSizeIdNS_5SizesIJLx6ELx4ELx5ELx2EEEELi0ExEELi1EE7derivedEv"
 "_ZN5Eigen10TensorBaseINS_15TensorFixedSizeIdNS_5SizesIJLx6ELx4ELx5ELx2EEEELi0ExEELi1EE7setZeroEv"
 "_ZN5Eigen10TensorBaseINS_15TensorFixedSizeIdNS_5SizesIJLx7EEEELi0ExEELi1EE11setConstantERKd"
 "_ZN5Eigen10TensorBaseINS_15TensorFixedSizeIdNS_5SizesIJLx7EEEELi0ExEELi1EE7derivedEv"
 "_ZN5Eigen10TensorBaseINS_15TensorFixedSizeIdNS_5SizesIJLx7EEEELi0ExEELi1EE7setZeroEv"
 "_ZN5Eigen10TensorBaseINS_15TensorFixedSizeIdNS_5SizesIJLx7ELx15ELx2EEEELi0ExEELi1EE11setConstantERKd"
 "_ZN5Eigen10TensorBaseINS_15TensorFixedSizeIdNS_5SizesIJLx7ELx15ELx2EEEELi0ExEELi1EE7derivedEv"
 "_ZN5Eigen10TensorBaseINS_15TensorFixedSizeIdNS_5SizesIJLx7ELx15ELx2EEEELi0ExEELi1EE7setZeroEv"
 "_ZN5Eigen10TensorBaseINS_15TensorFixedSizeIdNS_5SizesIJLx7ELx2EEEELi0ExEELi1EE11setConstantERKd"
 "_ZN5Eigen10TensorBaseINS_15TensorFixedSizeIdNS_5SizesIJLx7ELx2EEEELi0ExEELi1EE7derivedEv"
 "_ZN5Eigen10TensorBaseINS_15TensorFixedSizeIdNS_5SizesIJLx7ELx2EEEELi0ExEELi1EE7setZeroEv"
 "_ZN5Eigen10TensorBaseINS_15TensorFixedSizeIdNS_5SizesIJLx7ELx4ELx15ELx2EEEELi0ExEELi1EE11setConstantERKd"
 "_ZN5Eigen10TensorBaseINS_15TensorFixedSizeIdNS_5SizesIJLx7ELx4ELx15ELx2EEEELi0ExEELi1EE7derivedEv"
 "_ZN5Eigen10TensorBaseINS_15TensorFixedSizeIdNS_5SizesIJLx7ELx4ELx15ELx2EEEELi0ExEELi1EE7setZeroEv"
 "_ZN5Eigen10TensorBaseINS_15TensorFixedSizeIdNS_5SizesIJLx7ELx4ELx5ELx2EEEELi0ExEELi1EE11setConstantERKd"
 "_ZN5Eigen10TensorBaseINS_15TensorFixedSizeIdNS_5SizesIJLx7ELx4ELx5ELx2EEEELi0ExEELi1EE7derivedEv"
 "_ZN5Eigen10TensorBaseINS_15TensorFixedSizeIdNS_5SizesIJLx7ELx4ELx5ELx2EEEELi0ExEELi1EE7setZeroEv"
 "_ZN5Eigen10TensorBaseINS_15TensorFixedSizeIdNS_5SizesIJLx7ELx4ELx66ELx2EEEELi0ExEELi1EE11setConstantERKd"
 "_ZN5Eigen10TensorBaseINS_15TensorFixedSizeIdNS_5SizesIJLx7ELx4ELx66ELx2EEEELi0ExEELi1EE7derivedEv"
 "_ZN5Eigen10TensorBaseINS_15TensorFixedSizeIdNS_5SizesIJLx7ELx4ELx66ELx2EEEELi0ExEELi1EE7setZeroEv"
 "_ZN5Eigen10TensorBaseINS_15TensorFixedSizeIdNS_5SizesIJLx7ELx66EEEELi0ExEELi1EE11setConstantERKd"
 "_ZN5Eigen10TensorBaseINS_15TensorFixedSizeIdNS_5SizesIJLx7ELx66EEEELi0ExEELi1EE7derivedEv"
 "_ZN5Eigen10TensorBaseINS_15TensorFixedSizeIdNS_5SizesIJLx7ELx66EEEELi0ExEELi1EE7setZeroEv"
 "_ZN5Eigen10TensorBaseINS_15TensorFixedSizeIdNS_5SizesIJLx7ELx66ELx2EEEELi0ExEELi1EE11setConstantERKd"
 "_ZN5Eigen10TensorBaseINS_15TensorFixedSizeIdNS_5SizesIJLx7ELx66ELx2EEEELi0ExEELi1EE7derivedEv"
 "_ZN5Eigen10TensorBaseINS_15TensorFixedSizeIdNS_5SizesIJLx7ELx66ELx2EEEELi0ExEELi1EE7setZeroEv"
 "_ZN5Eigen10TensorBaseINS_15TensorFixedSizeIdNS_5SizesIJLx7ELx9EEEELi0ExEELi1EE11setConstantERKd"
 "_ZN5Eigen10TensorBaseINS_15TensorFixedSizeIdNS_5SizesIJLx7ELx9EEEELi0ExEELi1EE7derivedEv"
 "_ZN5Eigen10TensorBaseINS_15TensorFixedSizeIdNS_5SizesIJLx7ELx9EEEELi0ExEELi1EE7setZeroEv"
 "_ZN5Eigen10TensorBaseINS_15TensorFixedSizeIdNS_5SizesIJLx7ELx9ELx2EEEELi0ExEELi1EE11setConstantERKd"
 "_ZN5Eigen10TensorBaseINS_15TensorFixedSizeIdNS_5SizesIJLx7ELx9ELx2EEEELi0ExEELi1EE7derivedEv"
 "_ZN5Eigen10TensorBaseINS_15TensorFixedSizeIdNS_5SizesIJLx7ELx9ELx2EEEELi0ExEELi1EE7setZeroEv"
 "_ZN5Eigen10TensorBaseINS_15TensorFixedSizeIdNS_5SizesIJLx81EEEELi0ExEELi1EE11setConstantERKd"
 "_ZN5Eigen10TensorBaseINS_15TensorFixedSizeIdNS_5SizesIJLx81EEEELi0ExEELi1EE7derivedEv"
 "_ZN5Eigen10TensorBaseINS_15TensorFixedSizeIdNS_5SizesIJLx81EEEELi0ExEELi1EE7setZeroEv"
 "_ZN5Eigen10TensorBaseINS_15TensorFixedSizeIdNS_5SizesIJLx81ELx2EEEELi0ExEELi1EE11setConstantERKd"
 "_ZN5Eigen10TensorBaseINS_15TensorFixedSizeIdNS_5SizesIJLx81ELx2EEEELi0ExEELi1EE7derivedEv"
 "_ZN5Eigen10TensorBaseINS_15TensorFixedSizeIdNS_5SizesIJLx81ELx2EEEELi0ExEELi1EE7setZeroEv"
 "_ZN5Eigen10TensorBaseINS_15TensorFixedSizeIdNS_5SizesIJLx9EEEELi0ExEELi1EE11setConstantERKd"
 "_ZN5Eigen10TensorBaseINS_15TensorFixedSizeIdNS_5SizesIJLx9EEEELi0ExEELi1EE7derivedEv"
 "_ZN5Eigen10TensorBaseINS_15TensorFixedSizeIdNS_5SizesIJLx9EEEELi0ExEELi1EE7setZeroEv"
 "_ZN5Eigen10TensorBaseINS_15TensorFixedSizeIdNS_5SizesIJLx9ELx2EEEELi0ExEELi1EE11setConstantERKd"
 "_ZN5Eigen10TensorBaseINS_15TensorFixedSizeIdNS_5SizesIJLx9ELx2EEEELi0ExEELi1EE7derivedEv"
 "_ZN5Eigen10TensorBaseINS_15TensorFixedSizeIdNS_5SizesIJLx9ELx2EEEELi0ExEELi1EE7setZeroEv"
 "_ZN5Eigen10TensorBaseINS_6TensorIdLi1ELi0ExEELi1EE11setConstantERKd"
 "_ZN5Eigen10TensorBaseINS_6TensorIdLi1ELi0ExEELi1EE7derivedEv"
 "_ZN5Eigen10TensorBaseINS_6TensorIdLi1ELi0ExEELi1EE7setZeroEv"
 "_ZN5Eigen10TensorBaseINS_6TensorIdLi2ELi0ExEELi1EE11setConstantERKd"
 "_ZN5Eigen10TensorBaseINS_6TensorIdLi2ELi0ExEELi1EE4chipExx"
 "_ZN5Eigen10TensorBaseINS_6TensorIdLi2ELi0ExEELi1EE7derivedEv"
 "_ZN5Eigen10TensorBaseINS_6TensorIdLi2ELi0ExEELi1EE7setZeroEv"
 "_ZN5Eigen10TensorBaseINS_6TensorIdLi3ELi0ExEELi1EE11setConstantERKd"
 "_ZN5Eigen10TensorBaseINS_6TensorIdLi3ELi0ExEELi1EE4chipExx"
 "_ZN5Eigen10TensorBaseINS_6TensorIdLi3ELi0ExEELi1EE7derivedEv"
 "_ZN5Eigen10TensorBaseINS_6TensorIdLi3ELi0ExEELi1EE7setZeroEv"
 "_ZN5Eigen10TensorBaseINS_6TensorIdLi4ELi0ExEELi1EE11setConstantERKd"
 "_ZN5Eigen10TensorBaseINS_6TensorIdLi4ELi0ExEELi1EE4chipExx"
 "_ZN5Eigen10TensorBaseINS_6TensorIdLi4ELi0ExEELi1EE7derivedEv"
 "_ZN5Eigen10TensorBaseINS_6TensorIdLi4ELi0ExEELi1EE7setZeroEv"
 "_ZN5Eigen10TensorBaseINS_6TensorIdLi5ELi0ExEELi1EE11setConstantERKd"
 "_ZN5Eigen10TensorBaseINS_6TensorIdLi5ELi0ExEELi1EE4chipExx"
 "_ZN5Eigen10TensorBaseINS_6TensorIdLi5ELi0ExEELi1EE7derivedEv"
 "_ZN5Eigen10TensorBaseINS_6TensorIdLi5ELi0ExEELi1EE7setZeroEv"
 "_ZN5Eigen13TensorStorageIdNS_5SizesIJLx2EEEELi0EE4dataEv"
 "_ZN5Eigen13TensorStorageIdNS_5SizesIJLx2EEEELi0EEC1Ev"
 "_ZN5Eigen13TensorStorageIdNS_5SizesIJLx3EEEELi0EE4dataEv"
 "_ZN5Eigen13TensorStorageIdNS_5SizesIJLx3EEEELi0EEC1Ev"
 "_ZN5Eigen13TensorStorageIdNS_5SizesIJLx3ELx6ELx10ELx2EEEELi0EE4dataEv"
 "_ZN5Eigen13TensorStorageIdNS_5SizesIJLx3ELx6ELx10ELx2EEEELi0EEC1Ev"
 "_ZN5Eigen13TensorStorageIdNS_5SizesIJLx3ELx7ELx2EEEELi0EE4dataEv"
 "_ZN5Eigen13TensorStorageIdNS_5SizesIJLx3ELx7ELx2EEEELi0EEC1Ev"
 "_ZN5Eigen13TensorStorageIdNS_5SizesIJLx3ELx7ELx5ELx2EEEELi0EE4dataEv"
 "_ZN5Eigen13TensorStorageIdNS_5SizesIJLx3ELx7ELx5ELx2EEEELi0EEC1Ev"
 "_ZN5Eigen13TensorStorageIdNS_5SizesIJLx3ELx7ELx66ELx2EEEELi0EE4dataEv"
 "_ZN5Eigen13TensorStorageIdNS_5SizesIJLx3ELx7ELx66ELx2EEEELi0EEC1Ev"
 "_ZN5Eigen13TensorStorageIdNS_5SizesIJLx3ELx7ELx9ELx2EEEELi0EE4dataEv"
 "_ZN5Eigen13TensorStorageIdNS_5SizesIJLx3ELx7ELx9ELx2EEEELi0EEC1Ev"
 "_ZN5Eigen13TensorStorageIdNS_5SizesIJLx4EEEELi0EE4dataEv"
 "_ZN5Eigen13TensorStorageIdNS_5SizesIJLx4EEEELi0EEC1Ev"
 "_ZN5Eigen13TensorStorageIdNS_5SizesIJLx4ELx5ELx2EEEELi0EE4dataEv"
 "_ZN5Eigen13TensorStorageIdNS_5SizesIJLx4ELx5ELx2EEEELi0EEC1Ev"
 "_ZN5Eigen13TensorStorageIdNS_5SizesIJLx66EEEELi0EE4dataEv"
 "_ZN5Eigen13TensorStorageIdNS_5SizesIJLx66EEEELi0EEC1Ev"
 "_ZN5Eigen13TensorStorageIdNS_5SizesIJLx66ELx2EEEELi0EE4dataEv"
 "_ZN5Eigen13TensorStorageIdNS_5SizesIJLx66ELx2EEEELi0EEC1Ev"
 "_ZN5Eigen13TensorStorageIdNS_5SizesIJLx6ELx4ELx10ELx2EEEELi0EE4dataEv"
 "_ZN5Eigen13TensorStorageIdNS_5SizesIJLx6ELx4ELx10ELx2EEEELi0EEC1Ev"
 "_ZN5Eigen13TensorStorageIdNS_5SizesIJLx6ELx4ELx5ELx2EEEELi0EE4dataEv"
 "_ZN5Eigen13TensorStorageIdNS_5SizesIJLx6ELx4ELx5ELx2EEEELi0EEC1Ev"
 "_ZN5Eigen13TensorStorageIdNS_5SizesIJLx7EEEELi0EE4dataEv"
 "_ZN5Eigen13TensorStorageIdNS_5SizesIJLx7EEEELi0EEC1Ev"
 "_ZN5Eigen13TensorStorageIdNS_5SizesIJLx7ELx15ELx2EEEELi0EE4dataEv"
 "_ZN5Eigen13TensorStorageIdNS_5SizesIJLx7ELx15ELx2EEEELi0EEC1Ev"
 "_ZN5Eigen13TensorStorageIdNS_5SizesIJLx7ELx2EEEELi0EE4dataEv"
 "_ZN5Eigen13TensorStorageIdNS_5SizesIJLx7ELx2EEEELi0EEC1Ev"
 "_ZN5Eigen13TensorStorageIdNS_5SizesIJLx7ELx4ELx15ELx2EEEELi0EE4dataEv"
 "_ZN5Eigen13TensorStorageIdNS_5SizesIJLx7ELx4ELx15ELx2EEEELi0EEC1Ev"
 "_ZN5Eigen13TensorStorageIdNS_5SizesIJLx7ELx4ELx5ELx2EEEELi0EE4dataEv"
 "_ZN5Eigen13TensorStorageIdNS_5SizesIJLx7ELx4ELx5ELx2EEEELi0EEC1Ev"
 "_ZN5Eigen13TensorStorageIdNS_5SizesIJLx7ELx4ELx66ELx2EEEELi0EE4dataEv"
 "_ZN5Eigen13TensorStorageIdNS_5SizesIJLx7ELx4ELx66ELx2EEEELi0EEC1Ev"
 "_ZN5Eigen13TensorStorageIdNS_5SizesIJLx7ELx66EEEELi0EE4dataEv"
 "_ZN5Eigen13TensorStorageIdNS_5SizesIJLx7ELx66EEEELi0EEC1Ev"
 "_ZN5Eigen13TensorStorageIdNS_5SizesIJLx7ELx66ELx2EEEELi0EE4dataEv"
 "_ZN5Eigen13TensorStorageIdNS_5SizesIJLx7ELx66ELx2EEEELi0EEC1Ev"
 "_ZN5Eigen13TensorStorageIdNS_5SizesIJLx7ELx9EEEELi0EE4dataEv"
 "_ZN5Eigen13TensorStorageIdNS_5SizesIJLx7ELx9EEEELi0EEC1Ev"
 "_ZN5Eigen13TensorStorageIdNS_5SizesIJLx7ELx9ELx2EEEELi0EE4dataEv"
 "_ZN5Eigen13TensorStorageIdNS_5SizesIJLx7ELx9ELx2EEEELi0EEC1Ev"
 "_ZN5Eigen13TensorStorageIdNS_5SizesIJLx81EEEELi0EE4dataEv"
 "_ZN5Eigen13TensorStorageIdNS_5SizesIJLx81EEEELi0EEC1Ev"
 "_ZN5Eigen13TensorStorageIdNS_5SizesIJLx81ELx2EEEELi0EE4dataEv"
 "_ZN5Eigen13TensorStorageIdNS_5SizesIJLx81ELx2EEEELi0EEC1Ev"
 "_ZN5Eigen13TensorStorageIdNS_5SizesIJLx9EEEELi0EE4dataEv"
 "_ZN5Eigen13TensorStorageIdNS_5SizesIJLx9EEEELi0EEC1Ev"
 "_ZN5Eigen13TensorStorageIdNS_5SizesIJLx9ELx2EEEELi0EE4dataEv"
 "_ZN5Eigen13TensorStorageIdNS_5SizesIJLx9ELx2EEEELi0EEC1Ev"
 "_ZN5Eigen13TensorStorageIdNS_6DSizesIxLi1EEELi0EE4dataEv"
 "_ZN5Eigen13TensorStorageIdNS_6DSizesIxLi1EEELi0EE6resizeExRKSt5arrayIxLy1EE"
 "_ZN5Eigen13TensorStorageIdNS_6DSizesIxLi1EEELi0EEC1ERKS3_"
 "_ZN5Eigen13TensorStorageIdNS_6DSizesIxLi1EEELi0EEC1IJxEEEDpT_"
 "_ZN5Eigen13TensorStorageIdNS_6DSizesIxLi1EEELi0EED1Ev"
 "_ZN5Eigen13TensorStorageIdNS_6DSizesIxLi2EEELi0EE6resizeExRKSt5arrayIxLy2EE"
 "_ZN5Eigen13TensorStorageIdNS_6DSizesIxLi2EEELi0EEC1ERKS3_"
 "_ZN5Eigen13TensorStorageIdNS_6DSizesIxLi2EEELi0EEC1IJxiEEEDpT_"
 "_ZN5Eigen13TensorStorageIdNS_6DSizesIxLi2EEELi0EED1Ev"
 "_ZN5Eigen13TensorStorageIdNS_6DSizesIxLi3EEELi0EE6resizeExRKSt5arrayIxLy3EE"
 "_ZN5Eigen13TensorStorageIdNS_6DSizesIxLi3EEELi0EEC1ERKS3_"
 "_ZN5Eigen13TensorStorageIdNS_6DSizesIxLi3EEELi0EEC1IJxiiEEEDpT_"
 "_ZN5Eigen13TensorStorageIdNS_6DSizesIxLi3EEELi0EED1Ev"
 "_ZN5Eigen13TensorStorageIdNS_6DSizesIxLi4EEELi0EE6resizeExRKSt5arrayIxLy4EE"
 "_ZN5Eigen13TensorStorageIdNS_6DSizesIxLi4EEELi0EEC1ERKS3_"
 "_ZN5Eigen13TensorStorageIdNS_6DSizesIxLi4EEELi0EEC1IJxiiiEEEDpT_"
 "_ZN5Eigen13TensorStorageIdNS_6DSizesIxLi4EEELi0EED1Ev"
 "_ZN5Eigen13TensorStorageIdNS_6DSizesIxLi5EEELi0EE6resizeExRKSt5arrayIxLy5EE"
 "_ZN5Eigen13TensorStorageIdNS_6DSizesIxLi5EEELi0EEC1ERKS3_"
 "_ZN5Eigen13TensorStorageIdNS_6DSizesIxLi5EEELi0EEC1IJxiiiiEEEDpT_"
 "_ZN5Eigen13TensorStorageIdNS_6DSizesIxLi5EEELi0EED1Ev"
 "_ZN5Eigen14TensorAssignOpINS_15TensorFixedSizeIdNS_5SizesIJLx2EEEELi0ExEEKNS_20TensorCwiseNullaryOpINS_8internal18scalar_constant_opIdEEKS4_EEEC1ERS4_RSB_"
 "_ZN5Eigen14TensorAssignOpINS_15TensorFixedSizeIdNS_5SizesIJLx3EEEELi0ExEEKNS_20TensorCwiseNullaryOpINS_8internal18scalar_constant_opIdEEKS4_EEEC1ERS4_RSB_"
 "_ZN5Eigen14TensorAssignOpINS_15TensorFixedSizeIdNS_5SizesIJLx3ELx6ELx10ELx2EEEELi0ExEEKNS_20TensorCwiseNullaryOpINS_8internal18scalar_constant_opIdEEKS4_EEEC1ERS4_RSB_"
 "_ZN5Eigen14TensorAssignOpINS_15TensorFixedSizeIdNS_5SizesIJLx3ELx6ELx10ELx2EEEELi0ExEEKNS_9TensorMapINS_6TensorIdLi4ELi0ExEELi0ENS_11MakePointerEEEEC1ERS4_RSA_"
 "_ZN5Eigen14TensorAssignOpINS_15TensorFixedSizeIdNS_5SizesIJLx3ELx6ELx10ELx2EEEELi0ExEEKS4_EC1ERS4_RS5_"
 "_ZN5Eigen14TensorAssignOpINS_15TensorFixedSizeIdNS_5SizesIJLx3ELx7ELx2EEEELi0ExEEKNS_20TensorCwiseNullaryOpINS_8internal18scalar_constant_opIdEEKS4_EEEC1ERS4_RSB_"
 "_ZN5Eigen14TensorAssignOpINS_15TensorFixedSizeIdNS_5SizesIJLx3ELx7ELx5ELx2EEEELi0ExEEKNS_20TensorCwiseNullaryOpINS_8internal18scalar_constant_opIdEEKS4_EEEC1ERS4_RSB_"
 "_ZN5Eigen14TensorAssignOpINS_15TensorFixedSizeIdNS_5SizesIJLx3ELx7ELx5ELx2EEEELi0ExEEKNS_9TensorMapINS_6TensorIdLi4ELi0ExEELi0ENS_11MakePointerEEEEC1ERS4_RSA_"
 "_ZN5Eigen14TensorAssignOpINS_15TensorFixedSizeIdNS_5SizesIJLx3ELx7ELx5ELx2EEEELi0ExEEKS4_EC1ERS4_RS5_"
 "_ZN5Eigen14TensorAssignOpINS_15TensorFixedSizeIdNS_5SizesIJLx3ELx7ELx66ELx2EEEELi0ExEEKNS_20TensorCwiseNullaryOpINS_8internal18scalar_constant_opIdEEKS4_EEEC1ERS4_RSB_"
 "_ZN5Eigen14TensorAssignOpINS_15TensorFixedSizeIdNS_5SizesIJLx3ELx7ELx66ELx2EEEELi0ExEEKNS_9TensorMapINS_6TensorIdLi4ELi0ExEELi0ENS_11MakePointerEEEEC1ERS4_RSA_"
 "_ZN5Eigen14TensorAssignOpINS_15TensorFixedSizeIdNS_5SizesIJLx3ELx7ELx66ELx2EEEELi0ExEEKS4_EC1ERS4_RS5_"
 "_ZN5Eigen14TensorAssignOpINS_15TensorFixedSizeIdNS_5SizesIJLx3ELx7ELx9ELx2EEEELi0ExEEKNS_20TensorCwiseNullaryOpINS_8internal18scalar_constant_opIdEEKS4_EEEC1ERS4_RSB_"
 "_ZN5Eigen14TensorAssignOpINS_15TensorFixedSizeIdNS_5SizesIJLx3ELx7ELx9ELx2EEEELi0ExEEKNS_9TensorMapINS_6TensorIdLi4ELi0ExEELi0ENS_11MakePointerEEEEC1ERS4_RSA_"
 "_ZN5Eigen14TensorAssignOpINS_15TensorFixedSizeIdNS_5SizesIJLx3ELx7ELx9ELx2EEEELi0ExEEKS4_EC1ERS4_RS5_"
 "_ZN5Eigen14TensorAssignOpINS_15TensorFixedSizeIdNS_5SizesIJLx4EEEELi0ExEEKNS_20TensorCwiseNullaryOpINS_8internal18scalar_constant_opIdEEKS4_EEEC1ERS4_RSB_"
 "_ZN5Eigen14TensorAssignOpINS_15TensorFixedSizeIdNS_5SizesIJLx4EEEELi0ExEEKNS_9TensorMapINS_6TensorIdLi1ELi0ExEELi0ENS_11MakePointerEEEEC1ERS4_RSA_"
 "_ZN5Eigen14TensorAssignOpINS_15TensorFixedSizeIdNS_5SizesIJLx4EEEELi0ExEEKS4_EC1ERS4_RS5_"
 "_ZN5Eigen14TensorAssignOpINS_15TensorFixedSizeIdNS_5SizesIJLx4ELx5ELx2EEEELi0ExEEKNS_20TensorCwiseNullaryOpINS_8internal18scalar_constant_opIdEEKS4_EEEC1ERS4_RSB_"
 "_ZN5Eigen14TensorAssignOpINS_15TensorFixedSizeIdNS_5SizesIJLx4ELx5ELx2EEEELi0ExEEKNS_9TensorMapINS_6TensorIdLi3ELi0ExEELi0ENS_11MakePointerEEEEC1ERS4_RSA_"
 "_ZN5Eigen14TensorAssignOpINS_15TensorFixedSizeIdNS_5SizesIJLx4ELx5ELx2EEEELi0ExEEKS4_EC1ERS4_RS5_"
 "_ZN5Eigen14TensorAssignOpINS_15TensorFixedSizeIdNS_5SizesIJLx66EEEELi0ExEEKNS_20TensorCwiseNullaryOpINS_8internal18scalar_constant_opIdEEKS4_EEEC1ERS4_RSB_"
 "_ZN5Eigen14TensorAssignOpINS_15TensorFixedSizeIdNS_5SizesIJLx66ELx2EEEELi0ExEEKNS_20TensorCwiseNullaryOpINS_8internal18scalar_constant_opIdEEKS4_EEEC1ERS4_RSB_"
 "_ZN5Eigen14TensorAssignOpINS_15TensorFixedSizeIdNS_5SizesIJLx6ELx4ELx10ELx2EEEELi0ExEEKNS_20TensorCwiseNullaryOpINS_8internal18scalar_constant_opIdEEKS4_EEEC1ERS4_RSB_"
 "_ZN5Eigen14TensorAssignOpINS_15TensorFixedSizeIdNS_5SizesIJLx6ELx4ELx10ELx2EEEELi0ExEEKNS_9TensorMapINS_6TensorIdLi4ELi0ExEELi0ENS_11MakePointerEEEEC1ERS4_RSA_"
 "_ZN5Eigen14TensorAssignOpINS_15TensorFixedSizeIdNS_5SizesIJLx6ELx4ELx10ELx2EEEELi0ExEEKS4_EC1ERS4_RS5_"
 "_ZN5Eigen14TensorAssignOpINS_15TensorFixedSizeIdNS_5SizesIJLx6ELx4ELx5ELx2EEEELi0ExEEKNS_20TensorCwiseNullaryOpINS_8internal18scalar_constant_opIdEEKS4_EEEC1ERS4_RSB_"
 "_ZN5Eigen14TensorAssignOpINS_15TensorFixedSizeIdNS_5SizesIJLx6ELx4ELx5ELx2EEEELi0ExEEKNS_9TensorMapINS_6TensorIdLi4ELi0ExEELi0ENS_11MakePointerEEEEC1ERS4_RSA_"
 "_ZN5Eigen14TensorAssignOpINS_15TensorFixedSizeIdNS_5SizesIJLx6ELx4ELx5ELx2EEEELi0ExEEKS4_EC1ERS4_RS5_"
 "_ZN5Eigen14TensorAssignOpINS_15TensorFixedSizeIdNS_5SizesIJLx7EEEELi0ExEEKNS_20TensorCwiseNullaryOpINS_8internal18scalar_constant_opIdEEKS4_EEEC1ERS4_RSB_"
 "_ZN5Eigen14TensorAssignOpINS_15TensorFixedSizeIdNS_5SizesIJLx7ELx15ELx2EEEELi0ExEEKNS_20TensorCwiseNullaryOpINS_8internal18scalar_constant_opIdEEKS4_EEEC1ERS4_RSB_"
 "_ZN5Eigen14TensorAssignOpINS_15TensorFixedSizeIdNS_5SizesIJLx7ELx2EEEELi0ExEEKNS_20TensorCwiseNullaryOpINS_8internal18scalar_constant_opIdEEKS4_EEEC1ERS4_RSB_"
 "_ZN5Eigen14TensorAssignOpINS_15TensorFixedSizeIdNS_5SizesIJLx7ELx4ELx15ELx2EEEELi0ExEEKNS_20TensorCwiseNullaryOpINS_8internal18scalar_constant_opIdEEKS4_EEEC1ERS4_RSB_"
 "_ZN5Eigen14TensorAssignOpINS_15TensorFixedSizeIdNS_5SizesIJLx7ELx4ELx15ELx2EEEELi0ExEEKNS_9TensorMapINS_6TensorIdLi4ELi0ExEELi0ENS_11MakePointerEEEEC1ERS4_RSA_"
 "_ZN5Eigen14TensorAssignOpINS_15TensorFixedSizeIdNS_5SizesIJLx7ELx4ELx15ELx2EEEELi0ExEEKS4_EC1ERS4_RS5_"
 "_ZN5Eigen14TensorAssignOpINS_15TensorFixedSizeIdNS_5SizesIJLx7ELx4ELx5ELx2EEEELi0ExEEKNS_20TensorCwiseNullaryOpINS_8internal18scalar_constant_opIdEEKS4_EEEC1ERS4_RSB_"
 "_ZN5Eigen14TensorAssignOpINS_15TensorFixedSizeIdNS_5SizesIJLx7ELx4ELx5ELx2EEEELi0ExEEKNS_9TensorMapINS_6TensorIdLi4ELi0ExEELi0ENS_11MakePointerEEEEC1ERS4_RSA_"
 "_ZN5Eigen14TensorAssignOpINS_15TensorFixedSizeIdNS_5SizesIJLx7ELx4ELx5ELx2EEEELi0ExEEKS4_EC1ERS4_RS5_"
 "_ZN5Eigen14TensorAssignOpINS_15TensorFixedSizeIdNS_5SizesIJLx7ELx4ELx66ELx2EEEELi0ExEEKNS_20TensorCwiseNullaryOpINS_8internal18scalar_constant_opIdEEKS4_EEEC1ERS4_RSB_"
 "_ZN5Eigen14TensorAssignOpINS_15TensorFixedSizeIdNS_5SizesIJLx7ELx66EEEELi0ExEEKNS_20TensorCwiseNullaryOpINS_8internal18scalar_constant_opIdEEKS4_EEEC1ERS4_RSB_"
 "_ZN5Eigen14TensorAssignOpINS_15TensorFixedSizeIdNS_5SizesIJLx7ELx66ELx2EEEELi0ExEEKNS_20TensorCwiseNullaryOpINS_8internal18scalar_constant_opIdEEKS4_EEEC1ERS4_RSB_"
 "_ZN5Eigen14TensorAssignOpINS_15TensorFixedSizeIdNS_5SizesIJLx7ELx66ELx2EEEELi0ExEEKNS_9TensorMapINS_6TensorIdLi3ELi0ExEELi0ENS_11MakePointerEEEEC1ERS4_RSA_"
 "_ZN5Eigen14TensorAssignOpINS_15TensorFixedSizeIdNS_5SizesIJLx7ELx66ELx2EEEELi0ExEEKS4_EC1ERS4_RS5_"
 "_ZN5Eigen14TensorAssignOpINS_15TensorFixedSizeIdNS_5SizesIJLx7ELx9EEEELi0ExEEKNS_20TensorCwiseNullaryOpINS_8internal18scalar_constant_opIdEEKS4_EEEC1ERS4_RSB_"
 "_ZN5Eigen14TensorAssignOpINS_15TensorFixedSizeIdNS_5SizesIJLx7ELx9ELx2EEEELi0ExEEKNS_20TensorCwiseNullaryOpINS_8internal18scalar_constant_opIdEEKS4_EEEC1ERS4_RSB_"
 "_ZN5Eigen14TensorAssignOpINS_15TensorFixedSizeIdNS_5SizesIJLx7ELx9ELx2EEEELi0ExEEKNS_9TensorMapINS_6TensorIdLi3ELi0ExEELi0ENS_11MakePointerEEEEC1ERS4_RSA_"
 "_ZN5Eigen14TensorAssignOpINS_15TensorFixedSizeIdNS_5SizesIJLx7ELx9ELx2EEEELi0ExEEKS4_EC1ERS4_RS5_"
 "_ZN5Eigen14TensorAssignOpINS_15TensorFixedSizeIdNS_5SizesIJLx81EEEELi0ExEEKNS_20TensorCwiseNullaryOpINS_8internal18scalar_constant_opIdEEKS4_EEEC1ERS4_RSB_"
 "_ZN5Eigen14TensorAssignOpINS_15TensorFixedSizeIdNS_5SizesIJLx81ELx2EEEELi0ExEEKNS_20TensorCwiseNullaryOpINS_8internal18scalar_constant_opIdEEKS4_EEEC1ERS4_RSB_"
 "_ZN5Eigen14TensorAssignOpINS_15TensorFixedSizeIdNS_5SizesIJLx81ELx2EEEELi0ExEEKNS_9TensorMapINS_6TensorIdLi2ELi0ExEELi0ENS_11MakePointerEEEEC1ERS4_RSA_"
 "_ZN5Eigen14TensorAssignOpINS_15TensorFixedSizeIdNS_5SizesIJLx81ELx2EEEELi0ExEEKS4_EC1ERS4_RS5_"
 "_ZN5Eigen14TensorAssignOpINS_15TensorFixedSizeIdNS_5SizesIJLx9EEEELi0ExEEKNS_20TensorCwiseNullaryOpINS_8internal18scalar_constant_opIdEEKS4_EEEC1ERS4_RSB_"
 "_ZN5Eigen14TensorAssignOpINS_15TensorFixedSizeIdNS_5SizesIJLx9ELx2EEEELi0ExEEKNS_20TensorCwiseNullaryOpINS_8internal18scalar_constant_opIdEEKS4_EEEC1ERS4_RSB_"
 "_ZN5Eigen14TensorAssignOpINS_16TensorChippingOpILxn1ENS_6TensorIdLi2ELi0ExEEEEKNS_15TensorFixedSizeIdNS_5SizesIJLx4EEEELi0ExEEEC1ERS4_RS9_"
 "_ZN5Eigen14TensorAssignOpINS_16TensorChippingOpILxn1ENS_6TensorIdLi3ELi0ExEEEEKNS_15TensorFixedSizeIdNS_5SizesIJLx81ELx2EEEELi0ExEEEC1ERS4_RS9_"
 "_ZN5Eigen14TensorAssignOpINS_16TensorChippingOpILxn1ENS_6TensorIdLi4ELi0ExEEEEKNS_15TensorFixedSizeIdNS_5SizesIJLx4ELx5ELx2EEEELi0ExEEEC1ERS4_RS9_"
 "_ZN5Eigen14TensorAssignOpINS_16TensorChippingOpILxn1ENS_6TensorIdLi4ELi0ExEEEEKNS_15TensorFixedSizeIdNS_5SizesIJLx7ELx66ELx2EEEELi0ExEEEC1ERS4_RS9_"
 "_ZN5Eigen14TensorAssignOpINS_16TensorChippingOpILxn1ENS_6TensorIdLi4ELi0ExEEEEKNS_15TensorFixedSizeIdNS_5SizesIJLx7ELx9ELx2EEEELi0ExEEEC1ERS4_RS9_"
 "_ZN5Eigen14TensorAssignOpINS_16TensorChippingOpILxn1ENS_6TensorIdLi5ELi0ExEEEEKNS_15TensorFixedSizeIdNS_5SizesIJLx3ELx6ELx10ELx2EEEELi0ExEEEC1ERS4_RS9_"
 "_ZN5Eigen14TensorAssignOpINS_16TensorChippingOpILxn1ENS_6TensorIdLi5ELi0ExEEEEKNS_15TensorFixedSizeIdNS_5SizesIJLx3ELx7ELx5ELx2EEEELi0ExEEEC1ERS4_RS9_"
 "_ZN5Eigen14TensorAssignOpINS_16TensorChippingOpILxn1ENS_6TensorIdLi5ELi0ExEEEEKNS_15TensorFixedSizeIdNS_5SizesIJLx3ELx7ELx66ELx2EEEELi0ExEEEC1ERS4_RS9_"
 "_ZN5Eigen14TensorAssignOpINS_16TensorChippingOpILxn1ENS_6TensorIdLi5ELi0ExEEEEKNS_15TensorFixedSizeIdNS_5SizesIJLx3ELx7ELx9ELx2EEEELi0ExEEEC1ERS4_RS9_"
 "_ZN5Eigen14TensorAssignOpINS_16TensorChippingOpILxn1ENS_6TensorIdLi5ELi0ExEEEEKNS_15TensorFixedSizeIdNS_5SizesIJLx6ELx4ELx10ELx2EEEELi0ExEEEC1ERS4_RS9_"
 "_ZN5Eigen14TensorAssignOpINS_16TensorChippingOpILxn1ENS_6TensorIdLi5ELi0ExEEEEKNS_15TensorFixedSizeIdNS_5SizesIJLx6ELx4ELx5ELx2EEEELi0ExEEEC1ERS4_RS9_"
 "_ZN5Eigen14TensorAssignOpINS_16TensorChippingOpILxn1ENS_6TensorIdLi5ELi0ExEEEEKNS_15TensorFixedSizeIdNS_5SizesIJLx7ELx4ELx15ELx2EEEELi0ExEEEC1ERS4_RS9_"
 "_ZN5Eigen14TensorAssignOpINS_16TensorChippingOpILxn1ENS_6TensorIdLi5ELi0ExEEEEKNS_15TensorFixedSizeIdNS_5SizesIJLx7ELx4ELx5ELx2EEEELi0ExEEEC1ERS4_RS9_"
 "_ZN5Eigen14TensorAssignOpINS_6TensorIdLi1ELi0ExEEKNS_20TensorCwiseNullaryOpINS_8internal18scalar_constant_opIdEEKS2_EEEC1ERS2_RS9_"
 "_ZN5Eigen14TensorAssignOpINS_6TensorIdLi2ELi0ExEEKNS_20TensorCwiseNullaryOpINS_8internal18scalar_constant_opIdEEKS2_EEEC1ERS2_RS9_"
 "_ZN5Eigen14TensorAssignOpINS_6TensorIdLi3ELi0ExEEKNS_20TensorCwiseNullaryOpINS_8internal18scalar_constant_opIdEEKS2_EEEC1ERS2_RS9_"
 "_ZN5Eigen14TensorAssignOpINS_6TensorIdLi4ELi0ExEEKNS_20TensorCwiseNullaryOpINS_8internal18scalar_constant_opIdEEKS2_EEEC1ERS2_RS9_"
 "_ZN5Eigen14TensorAssignOpINS_6TensorIdLi5ELi0ExEEKNS_20TensorCwiseNullaryOpINS_8internal18scalar_constant_opIdEEKS2_EEEC1ERS2_RS9_"
 "_ZN5Eigen15TensorEvaluatorIKNS_14TensorAssignOpINS_15TensorFixedSizeIdNS_5SizesIJLx2EEEELi0ExEEKNS_20TensorCwiseNullaryOpINS_8internal18scalar_constant_opIdEEKS5_EEEENS_13DefaultDeviceEE10evalPacketEx"
 "_ZN5Eigen15TensorEvaluatorIKNS_14TensorAssignOpINS_15TensorFixedSizeIdNS_5SizesIJLx2EEEELi0ExEEKNS_20TensorCwiseNullaryOpINS_8internal18scalar_constant_opIdEEKS5_EEEENS_13DefaultDeviceEE10evalScalarEx"
 "_ZN5Eigen15TensorEvaluatorIKNS_14TensorAssignOpINS_15TensorFixedSizeIdNS_5SizesIJLx2EEEELi0ExEEKNS_20TensorCwiseNullaryOpINS_8internal18scalar_constant_opIdEEKS5_EEEENS_13DefaultDeviceEE20evalSubExprsIfNeededEPd"
 "_ZN5Eigen15TensorEvaluatorIKNS_14TensorAssignOpINS_15TensorFixedSizeIdNS_5SizesIJLx2EEEELi0ExEEKNS_20TensorCwiseNullaryOpINS_8internal18scalar_constant_opIdEEKS5_EEEENS_13DefaultDeviceEE7cleanupEv"
 "_ZN5Eigen15TensorEvaluatorIKNS_14TensorAssignOpINS_15TensorFixedSizeIdNS_5SizesIJLx2EEEELi0ExEEKNS_20TensorCwiseNullaryOpINS_8internal18scalar_constant_opIdEEKS5_EEEENS_13DefaultDeviceEEC1ERSE_RKSF_"
 "_ZN5Eigen15TensorEvaluatorIKNS_14TensorAssignOpINS_15TensorFixedSizeIdNS_5SizesIJLx3EEEELi0ExEEKNS_20TensorCwiseNullaryOpINS_8internal18scalar_constant_opIdEEKS5_EEEENS_13DefaultDeviceEE10evalPacketEx"
 "_ZN5Eigen15TensorEvaluatorIKNS_14TensorAssignOpINS_15TensorFixedSizeIdNS_5SizesIJLx3EEEELi0ExEEKNS_20TensorCwiseNullaryOpINS_8internal18scalar_constant_opIdEEKS5_EEEENS_13DefaultDeviceEE10evalScalarEx"
 "_ZN5Eigen15TensorEvaluatorIKNS_14TensorAssignOpINS_15TensorFixedSizeIdNS_5SizesIJLx3EEEELi0ExEEKNS_20TensorCwiseNullaryOpINS_8internal18scalar_constant_opIdEEKS5_EEEENS_13DefaultDeviceEE20evalSubExprsIfNeededEPd"
 "_ZN5Eigen15TensorEvaluatorIKNS_14TensorAssignOpINS_15TensorFixedSizeIdNS_5SizesIJLx3EEEELi0ExEEKNS_20TensorCwiseNullaryOpINS_8internal18scalar_constant_opIdEEKS5_EEEENS_13DefaultDeviceEE7cleanupEv"
 "_ZN5Eigen15TensorEvaluatorIKNS_14TensorAssignOpINS_15TensorFixedSizeIdNS_5SizesIJLx3EEEELi0ExEEKNS_20TensorCwiseNullaryOpINS_8internal18scalar_constant_opIdEEKS5_EEEENS_13DefaultDeviceEEC1ERSE_RKSF_"
 "_ZN5Eigen15TensorEvaluatorIKNS_14TensorAssignOpINS_15TensorFixedSizeIdNS_5SizesIJLx3ELx6ELx10ELx2EEEELi0ExEEKNS_20TensorCwiseNullaryOpINS_8internal18scalar_constant_opIdEEKS5_EEEENS_13DefaultDeviceEE10evalPacketEx"
 "_ZN5Eigen15TensorEvaluatorIKNS_14TensorAssignOpINS_15TensorFixedSizeIdNS_5SizesIJLx3ELx6ELx10ELx2EEEELi0ExEEKNS_20TensorCwiseNullaryOpINS_8internal18scalar_constant_opIdEEKS5_EEEENS_13DefaultDeviceEE10evalScalarEx"
 "_ZN5Eigen15TensorEvaluatorIKNS_14TensorAssignOpINS_15TensorFixedSizeIdNS_5SizesIJLx3ELx6ELx10ELx2EEEELi0ExEEKNS_20TensorCwiseNullaryOpINS_8internal18scalar_constant_opIdEEKS5_EEEENS_13DefaultDeviceEE20evalSubExprsIfNeededEPd"
 "_ZN5Eigen15TensorEvaluatorIKNS_14TensorAssignOpINS_15TensorFixedSizeIdNS_5SizesIJLx3ELx6ELx10ELx2EEEELi0ExEEKNS_20TensorCwiseNullaryOpINS_8internal18scalar_constant_opIdEEKS5_EEEENS_13DefaultDeviceEE7cleanupEv"
 "_ZN5Eigen15TensorEvaluatorIKNS_14TensorAssignOpINS_15TensorFixedSizeIdNS_5SizesIJLx3ELx6ELx10ELx2EEEELi0ExEEKNS_20TensorCwiseNullaryOpINS_8internal18scalar_constant_opIdEEKS5_EEEENS_13DefaultDeviceEEC1ERSE_RKSF_"
 "_ZN5Eigen15TensorEvaluatorIKNS_14TensorAssignOpINS_15TensorFixedSizeIdNS_5SizesIJLx3ELx6ELx10ELx2EEEELi0ExEEKNS_9TensorMapINS_6TensorIdLi4ELi0ExEELi0ENS_11MakePointerEEEEENS_13DefaultDeviceEE10evalPacketEx"
 "_ZN5Eigen15TensorEvaluatorIKNS_14TensorAssignOpINS_15TensorFixedSizeIdNS_5SizesIJLx3ELx6ELx10ELx2EEEELi0ExEEKNS_9TensorMapINS_6TensorIdLi4ELi0ExEELi0ENS_11MakePointerEEEEENS_13DefaultDeviceEE10evalScalarEx"
 "_ZN5Eigen15TensorEvaluatorIKNS_14TensorAssignOpINS_15TensorFixedSizeIdNS_5SizesIJLx3ELx6ELx10ELx2EEEELi0ExEEKNS_9TensorMapINS_6TensorIdLi4ELi0ExEELi0ENS_11MakePointerEEEEENS_13DefaultDeviceEE20evalSubExprsIfNeededEPd"
 "_ZN5Eigen15TensorEvaluatorIKNS_14TensorAssignOpINS_15TensorFixedSizeIdNS_5SizesIJLx3ELx6ELx10ELx2EEEELi0ExEEKNS_9TensorMapINS_6TensorIdLi4ELi0ExEELi0ENS_11MakePointerEEEEENS_13DefaultDeviceEE7cleanupEv"
 "_ZN5Eigen15TensorEvaluatorIKNS_14TensorAssignOpINS_15TensorFixedSizeIdNS_5SizesIJLx3ELx6ELx10ELx2EEEELi0ExEEKNS_9TensorMapINS_6TensorIdLi4ELi0ExEELi0ENS_11MakePointerEEEEENS_13DefaultDeviceEEC1ERSD_RKSE_"
 "_ZN5Eigen15TensorEvaluatorIKNS_14TensorAssignOpINS_15TensorFixedSizeIdNS_5SizesIJLx3ELx6ELx10ELx2EEEELi0ExEEKS5_EENS_13DefaultDeviceEE10evalPacketEx"
 "_ZN5Eigen15TensorEvaluatorIKNS_14TensorAssignOpINS_15TensorFixedSizeIdNS_5SizesIJLx3ELx6ELx10ELx2EEEELi0ExEEKS5_EENS_13DefaultDeviceEE10evalScalarEx"
 "_ZN5Eigen15TensorEvaluatorIKNS_14TensorAssignOpINS_15TensorFixedSizeIdNS_5SizesIJLx3ELx6ELx10ELx2EEEELi0ExEEKS5_EENS_13DefaultDeviceEE20evalSubExprsIfNeededEPd"
 "_ZN5Eigen15TensorEvaluatorIKNS_14TensorAssignOpINS_15TensorFixedSizeIdNS_5SizesIJLx3ELx6ELx10ELx2EEEELi0ExEEKS5_EENS_13DefaultDeviceEE7cleanupEv"
 "_ZN5Eigen15TensorEvaluatorIKNS_14TensorAssignOpINS_15TensorFixedSizeIdNS_5SizesIJLx3ELx6ELx10ELx2EEEELi0ExEEKS5_EENS_13DefaultDeviceEEC1ERS8_RKS9_"
 "_ZN5Eigen15TensorEvaluatorIKNS_14TensorAssignOpINS_15TensorFixedSizeIdNS_5SizesIJLx3ELx7ELx2EEEELi0ExEEKNS_20TensorCwiseNullaryOpINS_8internal18scalar_constant_opIdEEKS5_EEEENS_13DefaultDeviceEE10evalPacketEx"
 "_ZN5Eigen15TensorEvaluatorIKNS_14TensorAssignOpINS_15TensorFixedSizeIdNS_5SizesIJLx3ELx7ELx2EEEELi0ExEEKNS_20TensorCwiseNullaryOpINS_8internal18scalar_constant_opIdEEKS5_EEEENS_13DefaultDeviceEE10evalScalarEx"
 "_ZN5Eigen15TensorEvaluatorIKNS_14TensorAssignOpINS_15TensorFixedSizeIdNS_5SizesIJLx3ELx7ELx2EEEELi0ExEEKNS_20TensorCwiseNullaryOpINS_8internal18scalar_constant_opIdEEKS5_EEEENS_13DefaultDeviceEE20evalSubExprsIfNeededEPd"
 "_ZN5Eigen15TensorEvaluatorIKNS_14TensorAssignOpINS_15TensorFixedSizeIdNS_5SizesIJLx3ELx7ELx2EEEELi0ExEEKNS_20TensorCwiseNullaryOpINS_8internal18scalar_constant_opIdEEKS5_EEEENS_13DefaultDeviceEE7cleanupEv"
 "_ZN5Eigen15TensorEvaluatorIKNS_14TensorAssignOpINS_15TensorFixedSizeIdNS_5SizesIJLx3ELx7ELx2EEEELi0ExEEKNS_20TensorCwiseNullaryOpINS_8internal18scalar_constant_opIdEEKS5_EEEENS_13DefaultDeviceEEC1ERSE_RKSF_"
 "_ZN5Eigen15TensorEvaluatorIKNS_14TensorAssignOpINS_15TensorFixedSizeIdNS_5SizesIJLx3ELx7ELx5ELx2EEEELi0ExEEKNS_20TensorCwiseNullaryOpINS_8internal18scalar_constant_opIdEEKS5_EEEENS_13DefaultDeviceEE10evalPacketEx"
 "_ZN5Eigen15TensorEvaluatorIKNS_14TensorAssignOpINS_15TensorFixedSizeIdNS_5SizesIJLx3ELx7ELx5ELx2EEEELi0ExEEKNS_20TensorCwiseNullaryOpINS_8internal18scalar_constant_opIdEEKS5_EEEENS_13DefaultDeviceEE10evalScalarEx"
 "_ZN5Eigen15TensorEvaluatorIKNS_14TensorAssignOpINS_15TensorFixedSizeIdNS_5SizesIJLx3ELx7ELx5ELx2EEEELi0ExEEKNS_20TensorCwiseNullaryOpINS_8internal18scalar_constant_opIdEEKS5_EEEENS_13DefaultDeviceEE20evalSubExprsIfNeededEPd"
 "_ZN5Eigen15TensorEvaluatorIKNS_14TensorAssignOpINS_15TensorFixedSizeIdNS_5SizesIJLx3ELx7ELx5ELx2EEEELi0ExEEKNS_20TensorCwiseNullaryOpINS_8internal18scalar_constant_opIdEEKS5_EEEENS_13DefaultDeviceEE7cleanupEv"
 "_ZN5Eigen15TensorEvaluatorIKNS_14TensorAssignOpINS_15TensorFixedSizeIdNS_5SizesIJLx3ELx7ELx5ELx2EEEELi0ExEEKNS_20TensorCwiseNullaryOpINS_8internal18scalar_constant_opIdEEKS5_EEEENS_13DefaultDeviceEEC1ERSE_RKSF_"
 "_ZN5Eigen15TensorEvaluatorIKNS_14TensorAssignOpINS_15TensorFixedSizeIdNS_5SizesIJLx3ELx7ELx5ELx2EEEELi0ExEEKNS_9TensorMapINS_6TensorIdLi4ELi0ExEELi0ENS_11MakePointerEEEEENS_13DefaultDeviceEE10evalPacketEx"
 "_ZN5Eigen15TensorEvaluatorIKNS_14TensorAssignOpINS_15TensorFixedSizeIdNS_5SizesIJLx3ELx7ELx5ELx2EEEELi0ExEEKNS_9TensorMapINS_6TensorIdLi4ELi0ExEELi0ENS_11MakePointerEEEEENS_13DefaultDeviceEE10evalScalarEx"
 "_ZN5Eigen15TensorEvaluatorIKNS_14TensorAssignOpINS_15TensorFixedSizeIdNS_5SizesIJLx3ELx7ELx5ELx2EEEELi0ExEEKNS_9TensorMapINS_6TensorIdLi4ELi0ExEELi0ENS_11MakePointerEEEEENS_13DefaultDeviceEE20evalSubExprsIfNeededEPd"
 "_ZN5Eigen15TensorEvaluatorIKNS_14TensorAssignOpINS_15TensorFixedSizeIdNS_5SizesIJLx3ELx7ELx5ELx2EEEELi0ExEEKNS_9TensorMapINS_6TensorIdLi4ELi0ExEELi0ENS_11MakePointerEEEEENS_13DefaultDeviceEE7cleanupEv"
 "_ZN5Eigen15TensorEvaluatorIKNS_14TensorAssignOpINS_15TensorFixedSizeIdNS_5SizesIJLx3ELx7ELx5ELx2EEEELi0ExEEKNS_9TensorMapINS_6TensorIdLi4ELi0ExEELi0ENS_11MakePointerEEEEENS_13DefaultDeviceEEC1ERSD_RKSE_"
 "_ZN5Eigen15TensorEvaluatorIKNS_14TensorAssignOpINS_15TensorFixedSizeIdNS_5SizesIJLx3ELx7ELx5ELx2EEEELi0ExEEKS5_EENS_13DefaultDeviceEE10evalPacketEx"
 "_ZN5Eigen15TensorEvaluatorIKNS_14TensorAssignOpINS_15TensorFixedSizeIdNS_5SizesIJLx3ELx7ELx5ELx2EEEELi0ExEEKS5_EENS_13DefaultDeviceEE10evalScalarEx"
 "_ZN5Eigen15TensorEvaluatorIKNS_14TensorAssignOpINS_15TensorFixedSizeIdNS_5SizesIJLx3ELx7ELx5ELx2EEEELi0ExEEKS5_EENS_13DefaultDeviceEE20evalSubExprsIfNeededEPd"
 "_ZN5Eigen15TensorEvaluatorIKNS_14TensorAssignOpINS_15TensorFixedSizeIdNS_5SizesIJLx3ELx7ELx5ELx2EEEELi0ExEEKS5_EENS_13DefaultDeviceEE7cleanupEv"
 "_ZN5Eigen15TensorEvaluatorIKNS_14TensorAssignOpINS_15TensorFixedSizeIdNS_5SizesIJLx3ELx7ELx5ELx2EEEELi0ExEEKS5_EENS_13DefaultDeviceEEC1ERS8_RKS9_"
 "_ZN5Eigen15TensorEvaluatorIKNS_14TensorAssignOpINS_15TensorFixedSizeIdNS_5SizesIJLx3ELx7ELx66ELx2EEEELi0ExEEKNS_20TensorCwiseNullaryOpINS_8internal18scalar_constant_opIdEEKS5_EEEENS_13DefaultDeviceEE10evalPacketEx"
 "_ZN5Eigen15TensorEvaluatorIKNS_14TensorAssignOpINS_15TensorFixedSizeIdNS_5SizesIJLx3ELx7ELx66ELx2EEEELi0ExEEKNS_20TensorCwiseNullaryOpINS_8internal18scalar_constant_opIdEEKS5_EEEENS_13DefaultDeviceEE10evalScalarEx"
 "_ZN5Eigen15TensorEvaluatorIKNS_14TensorAssignOpINS_15TensorFixedSizeIdNS_5SizesIJLx3ELx7ELx66ELx2EEEELi0ExEEKNS_20TensorCwiseNullaryOpINS_8internal18scalar_constant_opIdEEKS5_EEEENS_13DefaultDeviceEE20evalSubExprsIfNeededEPd"
 "_ZN5Eigen15TensorEvaluatorIKNS_14TensorAssignOpINS_15TensorFixedSizeIdNS_5SizesIJLx3ELx7ELx66ELx2EEEELi0ExEEKNS_20TensorCwiseNullaryOpINS_8internal18scalar_constant_opIdEEKS5_EEEENS_13DefaultDeviceEE7cleanupEv"
 "_ZN5Eigen15TensorEvaluatorIKNS_14TensorAssignOpINS_15TensorFixedSizeIdNS_5SizesIJLx3ELx7ELx66ELx2EEEELi0ExEEKNS_20TensorCwiseNullaryOpINS_8internal18scalar_constant_opIdEEKS5_EEEENS_13DefaultDeviceEEC1ERSE_RKSF_"
 "_ZN5Eigen15TensorEvaluatorIKNS_14TensorAssignOpINS_15TensorFixedSizeIdNS_5SizesIJLx3ELx7ELx66ELx2EEEELi0ExEEKNS_9TensorMapINS_6TensorIdLi4ELi0ExEELi0ENS_11MakePointerEEEEENS_13DefaultDeviceEE10evalPacketEx"
 "_ZN5Eigen15TensorEvaluatorIKNS_14TensorAssignOpINS_15TensorFixedSizeIdNS_5SizesIJLx3ELx7ELx66ELx2EEEELi0ExEEKNS_9TensorMapINS_6TensorIdLi4ELi0ExEELi0ENS_11MakePointerEEEEENS_13DefaultDeviceEE10evalScalarEx"
 "_ZN5Eigen15TensorEvaluatorIKNS_14TensorAssignOpINS_15TensorFixedSizeIdNS_5SizesIJLx3ELx7ELx66ELx2EEEELi0ExEEKNS_9TensorMapINS_6TensorIdLi4ELi0ExEELi0ENS_11MakePointerEEEEENS_13DefaultDeviceEE20evalSubExprsIfNeededEPd"
 "_ZN5Eigen15TensorEvaluatorIKNS_14TensorAssignOpINS_15TensorFixedSizeIdNS_5SizesIJLx3ELx7ELx66ELx2EEEELi0ExEEKNS_9TensorMapINS_6TensorIdLi4ELi0ExEELi0ENS_11MakePointerEEEEENS_13DefaultDeviceEE7cleanupEv"
 "_ZN5Eigen15TensorEvaluatorIKNS_14TensorAssignOpINS_15TensorFixedSizeIdNS_5SizesIJLx3ELx7ELx66ELx2EEEELi0ExEEKNS_9TensorMapINS_6TensorIdLi4ELi0ExEELi0ENS_11MakePointerEEEEENS_13DefaultDeviceEEC1ERSD_RKSE_"
 "_ZN5Eigen15TensorEvaluatorIKNS_14TensorAssignOpINS_15TensorFixedSizeIdNS_5SizesIJLx3ELx7ELx66ELx2EEEELi0ExEEKS5_EENS_13DefaultDeviceEE10evalPacketEx"
 "_ZN5Eigen15TensorEvaluatorIKNS_14TensorAssignOpINS_15TensorFixedSizeIdNS_5SizesIJLx3ELx7ELx66ELx2EEEELi0ExEEKS5_EENS_13DefaultDeviceEE10evalScalarEx"
 "_ZN5Eigen15TensorEvaluatorIKNS_14TensorAssignOpINS_15TensorFixedSizeIdNS_5SizesIJLx3ELx7ELx66ELx2EEEELi0ExEEKS5_EENS_13DefaultDeviceEE20evalSubExprsIfNeededEPd"
 "_ZN5Eigen15TensorEvaluatorIKNS_14TensorAssignOpINS_15TensorFixedSizeIdNS_5SizesIJLx3ELx7ELx66ELx2EEEELi0ExEEKS5_EENS_13DefaultDeviceEE7cleanupEv"
 "_ZN5Eigen15TensorEvaluatorIKNS_14TensorAssignOpINS_15TensorFixedSizeIdNS_5SizesIJLx3ELx7ELx66ELx2EEEELi0ExEEKS5_EENS_13DefaultDeviceEEC1ERS8_RKS9_"
 "_ZN5Eigen15TensorEvaluatorIKNS_14TensorAssignOpINS_15TensorFixedSizeIdNS_5SizesIJLx3ELx7ELx9ELx2EEEELi0ExEEKNS_20TensorCwiseNullaryOpINS_8internal18scalar_constant_opIdEEKS5_EEEENS_13DefaultDeviceEE10evalPacketEx"
 "_ZN5Eigen15TensorEvaluatorIKNS_14TensorAssignOpINS_15TensorFixedSizeIdNS_5SizesIJLx3ELx7ELx9ELx2EEEELi0ExEEKNS_20TensorCwiseNullaryOpINS_8internal18scalar_constant_opIdEEKS5_EEEENS_13DefaultDeviceEE10evalScalarEx"
 "_ZN5Eigen15TensorEvaluatorIKNS_14TensorAssignOpINS_15TensorFixedSizeIdNS_5SizesIJLx3ELx7ELx9ELx2EEEELi0ExEEKNS_20TensorCwiseNullaryOpINS_8internal18scalar_constant_opIdEEKS5_EEEENS_13DefaultDeviceEE20evalSubExprsIfNeededEPd"
 "_ZN5Eigen15TensorEvaluatorIKNS_14TensorAssignOpINS_15TensorFixedSizeIdNS_5SizesIJLx3ELx7ELx9ELx2EEEELi0ExEEKNS_20TensorCwiseNullaryOpINS_8internal18scalar_constant_opIdEEKS5_EEEENS_13DefaultDeviceEE7cleanupEv"
 "_ZN5Eigen15TensorEvaluatorIKNS_14TensorAssignOpINS_15TensorFixedSizeIdNS_5SizesIJLx3ELx7ELx9ELx2EEEELi0ExEEKNS_20TensorCwiseNullaryOpINS_8internal18scalar_constant_opIdEEKS5_EEEENS_13DefaultDeviceEEC1ERSE_RKSF_"
 "_ZN5Eigen15TensorEvaluatorIKNS_14TensorAssignOpINS_15TensorFixedSizeIdNS_5SizesIJLx3ELx7ELx9ELx2EEEELi0ExEEKNS_9TensorMapINS_6TensorIdLi4ELi0ExEELi0ENS_11MakePointerEEEEENS_13DefaultDeviceEE10evalPacketEx"
 "_ZN5Eigen15TensorEvaluatorIKNS_14TensorAssignOpINS_15TensorFixedSizeIdNS_5SizesIJLx3ELx7ELx9ELx2EEEELi0ExEEKNS_9TensorMapINS_6TensorIdLi4ELi0ExEELi0ENS_11MakePointerEEEEENS_13DefaultDeviceEE10evalScalarEx"
 "_ZN5Eigen15TensorEvaluatorIKNS_14TensorAssignOpINS_15TensorFixedSizeIdNS_5SizesIJLx3ELx7ELx9ELx2EEEELi0ExEEKNS_9TensorMapINS_6TensorIdLi4ELi0ExEELi0ENS_11MakePointerEEEEENS_13DefaultDeviceEE20evalSubExprsIfNeededEPd"
 "_ZN5Eigen15TensorEvaluatorIKNS_14TensorAssignOpINS_15TensorFixedSizeIdNS_5SizesIJLx3ELx7ELx9ELx2EEEELi0ExEEKNS_9TensorMapINS_6TensorIdLi4ELi0ExEELi0ENS_11MakePointerEEEEENS_13DefaultDeviceEE7cleanupEv"
 "_ZN5Eigen15TensorEvaluatorIKNS_14TensorAssignOpINS_15TensorFixedSizeIdNS_5SizesIJLx3ELx7ELx9ELx2EEEELi0ExEEKNS_9TensorMapINS_6TensorIdLi4ELi0ExEELi0ENS_11MakePointerEEEEENS_13DefaultDeviceEEC1ERSD_RKSE_"
 "_ZN5Eigen15TensorEvaluatorIKNS_14TensorAssignOpINS_15TensorFixedSizeIdNS_5SizesIJLx3ELx7ELx9ELx2EEEELi0ExEEKS5_EENS_13DefaultDeviceEE10evalPacketEx"
 "_ZN5Eigen15TensorEvaluatorIKNS_14TensorAssignOpINS_15TensorFixedSizeIdNS_5SizesIJLx3ELx7ELx9ELx2EEEELi0ExEEKS5_EENS_13DefaultDeviceEE10evalScalarEx"
 "_ZN5Eigen15TensorEvaluatorIKNS_14TensorAssignOpINS_15TensorFixedSizeIdNS_5SizesIJLx3ELx7ELx9ELx2EEEELi0ExEEKS5_EENS_13DefaultDeviceEE20evalSubExprsIfNeededEPd"
 "_ZN5Eigen15TensorEvaluatorIKNS_14TensorAssignOpINS_15TensorFixedSizeIdNS_5SizesIJLx3ELx7ELx9ELx2EEEELi0ExEEKS5_EENS_13DefaultDeviceEE7cleanupEv"
 "_ZN5Eigen15TensorEvaluatorIKNS_14TensorAssignOpINS_15TensorFixedSizeIdNS_5SizesIJLx3ELx7ELx9ELx2EEEELi0ExEEKS5_EENS_13DefaultDeviceEEC1ERS8_RKS9_"
 "_ZN5Eigen15TensorEvaluatorIKNS_14TensorAssignOpINS_15TensorFixedSizeIdNS_5SizesIJLx4EEEELi0ExEEKNS_20TensorCwiseNullaryOpINS_8internal18scalar_constant_opIdEEKS5_EEEENS_13DefaultDeviceEE10evalPacketEx"
 "_ZN5Eigen15TensorEvaluatorIKNS_14TensorAssignOpINS_15TensorFixedSizeIdNS_5SizesIJLx4EEEELi0ExEEKNS_20TensorCwiseNullaryOpINS_8internal18scalar_constant_opIdEEKS5_EEEENS_13DefaultDeviceEE10evalScalarEx"
 "_ZN5Eigen15TensorEvaluatorIKNS_14TensorAssignOpINS_15TensorFixedSizeIdNS_5SizesIJLx4EEEELi0ExEEKNS_20TensorCwiseNullaryOpINS_8internal18scalar_constant_opIdEEKS5_EEEENS_13DefaultDeviceEE20evalSubExprsIfNeededEPd"
 "_ZN5Eigen15TensorEvaluatorIKNS_14TensorAssignOpINS_15TensorFixedSizeIdNS_5SizesIJLx4EEEELi0ExEEKNS_20TensorCwiseNullaryOpINS_8internal18scalar_constant_opIdEEKS5_EEEENS_13DefaultDeviceEE7cleanupEv"
 "_ZN5Eigen15TensorEvaluatorIKNS_14TensorAssignOpINS_15TensorFixedSizeIdNS_5SizesIJLx4EEEELi0ExEEKNS_20TensorCwiseNullaryOpINS_8internal18scalar_constant_opIdEEKS5_EEEENS_13DefaultDeviceEEC1ERSE_RKSF_"
 "_ZN5Eigen15TensorEvaluatorIKNS_14TensorAssignOpINS_15TensorFixedSizeIdNS_5SizesIJLx4EEEELi0ExEEKNS_9TensorMapINS_6TensorIdLi1ELi0ExEELi0ENS_11MakePointerEEEEENS_13DefaultDeviceEE10evalPacketEx"
 "_ZN5Eigen15TensorEvaluatorIKNS_14TensorAssignOpINS_15TensorFixedSizeIdNS_5SizesIJLx4EEEELi0ExEEKNS_9TensorMapINS_6TensorIdLi1ELi0ExEELi0ENS_11MakePointerEEEEENS_13DefaultDeviceEE10evalScalarEx"
 "_ZN5Eigen15TensorEvaluatorIKNS_14TensorAssignOpINS_15TensorFixedSizeIdNS_5SizesIJLx4EEEELi0ExEEKNS_9TensorMapINS_6TensorIdLi1ELi0ExEELi0ENS_11MakePointerEEEEENS_13DefaultDeviceEE20evalSubExprsIfNeededEPd"
 "_ZN5Eigen15TensorEvaluatorIKNS_14TensorAssignOpINS_15TensorFixedSizeIdNS_5SizesIJLx4EEEELi0ExEEKNS_9TensorMapINS_6TensorIdLi1ELi0ExEELi0ENS_11MakePointerEEEEENS_13DefaultDeviceEE7cleanupEv"
 "_ZN5Eigen15TensorEvaluatorIKNS_14TensorAssignOpINS_15TensorFixedSizeIdNS_5SizesIJLx4EEEELi0ExEEKNS_9TensorMapINS_6TensorIdLi1ELi0ExEELi0ENS_11MakePointerEEEEENS_13DefaultDeviceEEC1ERSD_RKSE_"
 "_ZN5Eigen15TensorEvaluatorIKNS_14TensorAssignOpINS_15TensorFixedSizeIdNS_5SizesIJLx4EEEELi0ExEEKS5_EENS_13DefaultDeviceEE10evalPacketEx"
 "_ZN5Eigen15TensorEvaluatorIKNS_14TensorAssignOpINS_15TensorFixedSizeIdNS_5SizesIJLx4EEEELi0ExEEKS5_EENS_13DefaultDeviceEE10evalScalarEx"
 "_ZN5Eigen15TensorEvaluatorIKNS_14TensorAssignOpINS_15TensorFixedSizeIdNS_5SizesIJLx4EEEELi0ExEEKS5_EENS_13DefaultDeviceEE20evalSubExprsIfNeededEPd"
 "_ZN5Eigen15TensorEvaluatorIKNS_14TensorAssignOpINS_15TensorFixedSizeIdNS_5SizesIJLx4EEEELi0ExEEKS5_EENS_13DefaultDeviceEE7cleanupEv"
 "_ZN5Eigen15TensorEvaluatorIKNS_14TensorAssignOpINS_15TensorFixedSizeIdNS_5SizesIJLx4EEEELi0ExEEKS5_EENS_13DefaultDeviceEEC1ERS8_RKS9_"
 "_ZN5Eigen15TensorEvaluatorIKNS_14TensorAssignOpINS_15TensorFixedSizeIdNS_5SizesIJLx4ELx5ELx2EEEELi0ExEEKNS_20TensorCwiseNullaryOpINS_8internal18scalar_constant_opIdEEKS5_EEEENS_13DefaultDeviceEE10evalPacketEx"
 "_ZN5Eigen15TensorEvaluatorIKNS_14TensorAssignOpINS_15TensorFixedSizeIdNS_5SizesIJLx4ELx5ELx2EEEELi0ExEEKNS_20TensorCwiseNullaryOpINS_8internal18scalar_constant_opIdEEKS5_EEEENS_13DefaultDeviceEE10evalScalarEx"
 "_ZN5Eigen15TensorEvaluatorIKNS_14TensorAssignOpINS_15TensorFixedSizeIdNS_5SizesIJLx4ELx5ELx2EEEELi0ExEEKNS_20TensorCwiseNullaryOpINS_8internal18scalar_constant_opIdEEKS5_EEEENS_13DefaultDeviceEE20evalSubExprsIfNeededEPd"
 "_ZN5Eigen15TensorEvaluatorIKNS_14TensorAssignOpINS_15TensorFixedSizeIdNS_5SizesIJLx4ELx5ELx2EEEELi0ExEEKNS_20TensorCwiseNullaryOpINS_8internal18scalar_constant_opIdEEKS5_EEEENS_13DefaultDeviceEE7cleanupEv"
 "_ZN5Eigen15TensorEvaluatorIKNS_14TensorAssignOpINS_15TensorFixedSizeIdNS_5SizesIJLx4ELx5ELx2EEEELi0ExEEKNS_20TensorCwiseNullaryOpINS_8internal18scalar_constant_opIdEEKS5_EEEENS_13DefaultDeviceEEC1ERSE_RKSF_"
 "_ZN5Eigen15TensorEvaluatorIKNS_14TensorAssignOpINS_15TensorFixedSizeIdNS_5SizesIJLx4ELx5ELx2EEEELi0ExEEKNS_9TensorMapINS_6TensorIdLi3ELi0ExEELi0ENS_11MakePointerEEEEENS_13DefaultDeviceEE10evalPacketEx"
 "_ZN5Eigen15TensorEvaluatorIKNS_14TensorAssignOpINS_15TensorFixedSizeIdNS_5SizesIJLx4ELx5ELx2EEEELi0ExEEKNS_9TensorMapINS_6TensorIdLi3ELi0ExEELi0ENS_11MakePointerEEEEENS_13DefaultDeviceEE10evalScalarEx"
 "_ZN5Eigen15TensorEvaluatorIKNS_14TensorAssignOpINS_15TensorFixedSizeIdNS_5SizesIJLx4ELx5ELx2EEEELi0ExEEKNS_9TensorMapINS_6TensorIdLi3ELi0ExEELi0ENS_11MakePointerEEEEENS_13DefaultDeviceEE20evalSubExprsIfNeededEPd"
 "_ZN5Eigen15TensorEvaluatorIKNS_14TensorAssignOpINS_15TensorFixedSizeIdNS_5SizesIJLx4ELx5ELx2EEEELi0ExEEKNS_9TensorMapINS_6TensorIdLi3ELi0ExEELi0ENS_11MakePointerEEEEENS_13DefaultDeviceEE7cleanupEv"
 "_ZN5Eigen15TensorEvaluatorIKNS_14TensorAssignOpINS_15TensorFixedSizeIdNS_5SizesIJLx4ELx5ELx2EEEELi0ExEEKNS_9TensorMapINS_6TensorIdLi3ELi0ExEELi0ENS_11MakePointerEEEEENS_13DefaultDeviceEEC1ERSD_RKSE_"
 "_ZN5Eigen15TensorEvaluatorIKNS_14TensorAssignOpINS_15TensorFixedSizeIdNS_5SizesIJLx4ELx5ELx2EEEELi0ExEEKS5_EENS_13DefaultDeviceEE10evalPacketEx"
 "_ZN5Eigen15TensorEvaluatorIKNS_14TensorAssignOpINS_15TensorFixedSizeIdNS_5SizesIJLx4ELx5ELx2EEEELi0ExEEKS5_EENS_13DefaultDeviceEE10evalScalarEx"
 "_ZN5Eigen15TensorEvaluatorIKNS_14TensorAssignOpINS_15TensorFixedSizeIdNS_5SizesIJLx4ELx5ELx2EEEELi0ExEEKS5_EENS_13DefaultDeviceEE20evalSubExprsIfNeededEPd"
 "_ZN5Eigen15TensorEvaluatorIKNS_14TensorAssignOpINS_15TensorFixedSizeIdNS_5SizesIJLx4ELx5ELx2EEEELi0ExEEKS5_EENS_13DefaultDeviceEE7cleanupEv"
 "_ZN5Eigen15TensorEvaluatorIKNS_14TensorAssignOpINS_15TensorFixedSizeIdNS_5SizesIJLx4ELx5ELx2EEEELi0ExEEKS5_EENS_13DefaultDeviceEEC1ERS8_RKS9_"
 "_ZN5Eigen15TensorEvaluatorIKNS_14TensorAssignOpINS_15TensorFixedSizeIdNS_5SizesIJLx66EEEELi0ExEEKNS_20TensorCwiseNullaryOpINS_8internal18scalar_constant_opIdEEKS5_EEEENS_13DefaultDeviceEE10evalPacketEx"
 "_ZN5Eigen15TensorEvaluatorIKNS_14TensorAssignOpINS_15TensorFixedSizeIdNS_5SizesIJLx66EEEELi0ExEEKNS_20TensorCwiseNullaryOpINS_8internal18scalar_constant_opIdEEKS5_EEEENS_13DefaultDeviceEE10evalScalarEx"
 "_ZN5Eigen15TensorEvaluatorIKNS_14TensorAssignOpINS_15TensorFixedSizeIdNS_5SizesIJLx66EEEELi0ExEEKNS_20TensorCwiseNullaryOpINS_8internal18scalar_constant_opIdEEKS5_EEEENS_13DefaultDeviceEE20evalSubExprsIfNeededEPd"
 "_ZN5Eigen15TensorEvaluatorIKNS_14TensorAssignOpINS_15TensorFixedSizeIdNS_5SizesIJLx66EEEELi0ExEEKNS_20TensorCwiseNullaryOpINS_8internal18scalar_constant_opIdEEKS5_EEEENS_13DefaultDeviceEE7cleanupEv"
 "_ZN5Eigen15TensorEvaluatorIKNS_14TensorAssignOpINS_15TensorFixedSizeIdNS_5SizesIJLx66EEEELi0ExEEKNS_20TensorCwiseNullaryOpINS_8internal18scalar_constant_opIdEEKS5_EEEENS_13DefaultDeviceEEC1ERSE_RKSF_"
 "_ZN5Eigen15TensorEvaluatorIKNS_14TensorAssignOpINS_15TensorFixedSizeIdNS_5SizesIJLx66ELx2EEEELi0ExEEKNS_20TensorCwiseNullaryOpINS_8internal18scalar_constant_opIdEEKS5_EEEENS_13DefaultDeviceEE10evalPacketEx"
 "_ZN5Eigen15TensorEvaluatorIKNS_14TensorAssignOpINS_15TensorFixedSizeIdNS_5SizesIJLx66ELx2EEEELi0ExEEKNS_20TensorCwiseNullaryOpINS_8internal18scalar_constant_opIdEEKS5_EEEENS_13DefaultDeviceEE10evalScalarEx"
 "_ZN5Eigen15TensorEvaluatorIKNS_14TensorAssignOpINS_15TensorFixedSizeIdNS_5SizesIJLx66ELx2EEEELi0ExEEKNS_20TensorCwiseNullaryOpINS_8internal18scalar_constant_opIdEEKS5_EEEENS_13DefaultDeviceEE20evalSubExprsIfNeededEPd"
 "_ZN5Eigen15TensorEvaluatorIKNS_14TensorAssignOpINS_15TensorFixedSizeIdNS_5SizesIJLx66ELx2EEEELi0ExEEKNS_20TensorCwiseNullaryOpINS_8internal18scalar_constant_opIdEEKS5_EEEENS_13DefaultDeviceEE7cleanupEv"
 "_ZN5Eigen15TensorEvaluatorIKNS_14TensorAssignOpINS_15TensorFixedSizeIdNS_5SizesIJLx66ELx2EEEELi0ExEEKNS_20TensorCwiseNullaryOpINS_8internal18scalar_constant_opIdEEKS5_EEEENS_13DefaultDeviceEEC1ERSE_RKSF_"
 "_ZN5Eigen15TensorEvaluatorIKNS_14TensorAssignOpINS_15TensorFixedSizeIdNS_5SizesIJLx6ELx4ELx10ELx2EEEELi0ExEEKNS_20TensorCwiseNullaryOpINS_8internal18scalar_constant_opIdEEKS5_EEEENS_13DefaultDeviceEE10evalPacketEx"
 "_ZN5Eigen15TensorEvaluatorIKNS_14TensorAssignOpINS_15TensorFixedSizeIdNS_5SizesIJLx6ELx4ELx10ELx2EEEELi0ExEEKNS_20TensorCwiseNullaryOpINS_8internal18scalar_constant_opIdEEKS5_EEEENS_13DefaultDeviceEE10evalScalarEx"
 "_ZN5Eigen15TensorEvaluatorIKNS_14TensorAssignOpINS_15TensorFixedSizeIdNS_5SizesIJLx6ELx4ELx10ELx2EEEELi0ExEEKNS_20TensorCwiseNullaryOpINS_8internal18scalar_constant_opIdEEKS5_EEEENS_13DefaultDeviceEE20evalSubExprsIfNeededEPd"
 "_ZN5Eigen15TensorEvaluatorIKNS_14TensorAssignOpINS_15TensorFixedSizeIdNS_5SizesIJLx6ELx4ELx10ELx2EEEELi0ExEEKNS_20TensorCwiseNullaryOpINS_8internal18scalar_constant_opIdEEKS5_EEEENS_13DefaultDeviceEE7cleanupEv"
 "_ZN5Eigen15TensorEvaluatorIKNS_14TensorAssignOpINS_15TensorFixedSizeIdNS_5SizesIJLx6ELx4ELx10ELx2EEEELi0ExEEKNS_20TensorCwiseNullaryOpINS_8internal18scalar_constant_opIdEEKS5_EEEENS_13DefaultDeviceEEC1ERSE_RKSF_"
 "_ZN5Eigen15TensorEvaluatorIKNS_14TensorAssignOpINS_15TensorFixedSizeIdNS_5SizesIJLx6ELx4ELx10ELx2EEEELi0ExEEKNS_9TensorMapINS_6TensorIdLi4ELi0ExEELi0ENS_11MakePointerEEEEENS_13DefaultDeviceEE10evalPacketEx"
 "_ZN5Eigen15TensorEvaluatorIKNS_14TensorAssignOpINS_15TensorFixedSizeIdNS_5SizesIJLx6ELx4ELx10ELx2EEEELi0ExEEKNS_9TensorMapINS_6TensorIdLi4ELi0ExEELi0ENS_11MakePointerEEEEENS_13DefaultDeviceEE10evalScalarEx"
 "_ZN5Eigen15TensorEvaluatorIKNS_14TensorAssignOpINS_15TensorFixedSizeIdNS_5SizesIJLx6ELx4ELx10ELx2EEEELi0ExEEKNS_9TensorMapINS_6TensorIdLi4ELi0ExEELi0ENS_11MakePointerEEEEENS_13DefaultDeviceEE20evalSubExprsIfNeededEPd"
 "_ZN5Eigen15TensorEvaluatorIKNS_14TensorAssignOpINS_15TensorFixedSizeIdNS_5SizesIJLx6ELx4ELx10ELx2EEEELi0ExEEKNS_9TensorMapINS_6TensorIdLi4ELi0ExEELi0ENS_11MakePointerEEEEENS_13DefaultDeviceEE7cleanupEv"
 "_ZN5Eigen15TensorEvaluatorIKNS_14TensorAssignOpINS_15TensorFixedSizeIdNS_5SizesIJLx6ELx4ELx10ELx2EEEELi0ExEEKNS_9TensorMapINS_6TensorIdLi4ELi0ExEELi0ENS_11MakePointerEEEEENS_13DefaultDeviceEEC1ERSD_RKSE_"
 "_ZN5Eigen15TensorEvaluatorIKNS_14TensorAssignOpINS_15TensorFixedSizeIdNS_5SizesIJLx6ELx4ELx10ELx2EEEELi0ExEEKS5_EENS_13DefaultDeviceEE10evalPacketEx"
 "_ZN5Eigen15TensorEvaluatorIKNS_14TensorAssignOpINS_15TensorFixedSizeIdNS_5SizesIJLx6ELx4ELx10ELx2EEEELi0ExEEKS5_EENS_13DefaultDeviceEE10evalScalarEx"
 "_ZN5Eigen15TensorEvaluatorIKNS_14TensorAssignOpINS_15TensorFixedSizeIdNS_5SizesIJLx6ELx4ELx10ELx2EEEELi0ExEEKS5_EENS_13DefaultDeviceEE20evalSubExprsIfNeededEPd"
 "_ZN5Eigen15TensorEvaluatorIKNS_14TensorAssignOpINS_15TensorFixedSizeIdNS_5SizesIJLx6ELx4ELx10ELx2EEEELi0ExEEKS5_EENS_13DefaultDeviceEE7cleanupEv"
 "_ZN5Eigen15TensorEvaluatorIKNS_14TensorAssignOpINS_15TensorFixedSizeIdNS_5SizesIJLx6ELx4ELx10ELx2EEEELi0ExEEKS5_EENS_13DefaultDeviceEEC1ERS8_RKS9_"
 "_ZN5Eigen15TensorEvaluatorIKNS_14TensorAssignOpINS_15TensorFixedSizeIdNS_5SizesIJLx6ELx4ELx5ELx2EEEELi0ExEEKNS_20TensorCwiseNullaryOpINS_8internal18scalar_constant_opIdEEKS5_EEEENS_13DefaultDeviceEE10evalPacketEx"
 "_ZN5Eigen15TensorEvaluatorIKNS_14TensorAssignOpINS_15TensorFixedSizeIdNS_5SizesIJLx6ELx4ELx5ELx2EEEELi0ExEEKNS_20TensorCwiseNullaryOpINS_8internal18scalar_constant_opIdEEKS5_EEEENS_13DefaultDeviceEE10evalScalarEx"
 "_ZN5Eigen15TensorEvaluatorIKNS_14TensorAssignOpINS_15TensorFixedSizeIdNS_5SizesIJLx6ELx4ELx5ELx2EEEELi0ExEEKNS_20TensorCwiseNullaryOpINS_8internal18scalar_constant_opIdEEKS5_EEEENS_13DefaultDeviceEE20evalSubExprsIfNeededEPd"
 "_ZN5Eigen15TensorEvaluatorIKNS_14TensorAssignOpINS_15TensorFixedSizeIdNS_5SizesIJLx6ELx4ELx5ELx2EEEELi0ExEEKNS_20TensorCwiseNullaryOpINS_8internal18scalar_constant_opIdEEKS5_EEEENS_13DefaultDeviceEE7cleanupEv"
 "_ZN5Eigen15TensorEvaluatorIKNS_14TensorAssignOpINS_15TensorFixedSizeIdNS_5SizesIJLx6ELx4ELx5ELx2EEEELi0ExEEKNS_20TensorCwiseNullaryOpINS_8internal18scalar_constant_opIdEEKS5_EEEENS_13DefaultDeviceEEC1ERSE_RKSF_"
 "_ZN5Eigen15TensorEvaluatorIKNS_14TensorAssignOpINS_15TensorFixedSizeIdNS_5SizesIJLx6ELx4ELx5ELx2EEEELi0ExEEKNS_9TensorMapINS_6TensorIdLi4ELi0ExEELi0ENS_11MakePointerEEEEENS_13DefaultDeviceEE10evalPacketEx"
 "_ZN5Eigen15TensorEvaluatorIKNS_14TensorAssignOpINS_15TensorFixedSizeIdNS_5SizesIJLx6ELx4ELx5ELx2EEEELi0ExEEKNS_9TensorMapINS_6TensorIdLi4ELi0ExEELi0ENS_11MakePointerEEEEENS_13DefaultDeviceEE10evalScalarEx"
 "_ZN5Eigen15TensorEvaluatorIKNS_14TensorAssignOpINS_15TensorFixedSizeIdNS_5SizesIJLx6ELx4ELx5ELx2EEEELi0ExEEKNS_9TensorMapINS_6TensorIdLi4ELi0ExEELi0ENS_11MakePointerEEEEENS_13DefaultDeviceEE20evalSubExprsIfNeededEPd"
 "_ZN5Eigen15TensorEvaluatorIKNS_14TensorAssignOpINS_15TensorFixedSizeIdNS_5SizesIJLx6ELx4ELx5ELx2EEEELi0ExEEKNS_9TensorMapINS_6TensorIdLi4ELi0ExEELi0ENS_11MakePointerEEEEENS_13DefaultDeviceEE7cleanupEv"
 "_ZN5Eigen15TensorEvaluatorIKNS_14TensorAssignOpINS_15TensorFixedSizeIdNS_5SizesIJLx6ELx4ELx5ELx2EEEELi0ExEEKNS_9TensorMapINS_6TensorIdLi4ELi0ExEELi0ENS_11MakePointerEEEEENS_13DefaultDeviceEEC1ERSD_RKSE_"
 "_ZN5Eigen15TensorEvaluatorIKNS_14TensorAssignOpINS_15TensorFixedSizeIdNS_5SizesIJLx6ELx4ELx5ELx2EEEELi0ExEEKS5_EENS_13DefaultDeviceEE10evalPacketEx"
 "_ZN5Eigen15TensorEvaluatorIKNS_14TensorAssignOpINS_15TensorFixedSizeIdNS_5SizesIJLx6ELx4ELx5ELx2EEEELi0ExEEKS5_EENS_13DefaultDeviceEE10evalScalarEx"
 "_ZN5Eigen15TensorEvaluatorIKNS_14TensorAssignOpINS_15TensorFixedSizeIdNS_5SizesIJLx6ELx4ELx5ELx2EEEELi0ExEEKS5_EENS_13DefaultDeviceEE20evalSubExprsIfNeededEPd"
 "_ZN5Eigen15TensorEvaluatorIKNS_14TensorAssignOpINS_15TensorFixedSizeIdNS_5SizesIJLx6ELx4ELx5ELx2EEEELi0ExEEKS5_EENS_13DefaultDeviceEE7cleanupEv"
 "_ZN5Eigen15TensorEvaluatorIKNS_14TensorAssignOpINS_15TensorFixedSizeIdNS_5SizesIJLx6ELx4ELx5ELx2EEEELi0ExEEKS5_EENS_13DefaultDeviceEEC1ERS8_RKS9_"
 "_ZN5Eigen15TensorEvaluatorIKNS_14TensorAssignOpINS_15TensorFixedSizeIdNS_5SizesIJLx7EEEELi0ExEEKNS_20TensorCwiseNullaryOpINS_8internal18scalar_constant_opIdEEKS5_EEEENS_13DefaultDeviceEE10evalPacketEx"
 "_ZN5Eigen15TensorEvaluatorIKNS_14TensorAssignOpINS_15TensorFixedSizeIdNS_5SizesIJLx7EEEELi0ExEEKNS_20TensorCwiseNullaryOpINS_8internal18scalar_constant_opIdEEKS5_EEEENS_13DefaultDeviceEE10evalScalarEx"
 "_ZN5Eigen15TensorEvaluatorIKNS_14TensorAssignOpINS_15TensorFixedSizeIdNS_5SizesIJLx7EEEELi0ExEEKNS_20TensorCwiseNullaryOpINS_8internal18scalar_constant_opIdEEKS5_EEEENS_13DefaultDeviceEE20evalSubExprsIfNeededEPd"
 "_ZN5Eigen15TensorEvaluatorIKNS_14TensorAssignOpINS_15TensorFixedSizeIdNS_5SizesIJLx7EEEELi0ExEEKNS_20TensorCwiseNullaryOpINS_8internal18scalar_constant_opIdEEKS5_EEEENS_13DefaultDeviceEE7cleanupEv"
 "_ZN5Eigen15TensorEvaluatorIKNS_14TensorAssignOpINS_15TensorFixedSizeIdNS_5SizesIJLx7EEEELi0ExEEKNS_20TensorCwiseNullaryOpINS_8internal18scalar_constant_opIdEEKS5_EEEENS_13DefaultDeviceEEC1ERSE_RKSF_"
 "_ZN5Eigen15TensorEvaluatorIKNS_14TensorAssignOpINS_15TensorFixedSizeIdNS_5SizesIJLx7ELx15ELx2EEEELi0ExEEKNS_20TensorCwiseNullaryOpINS_8internal18scalar_constant_opIdEEKS5_EEEENS_13DefaultDeviceEE10evalPacketEx"
 "_ZN5Eigen15TensorEvaluatorIKNS_14TensorAssignOpINS_15TensorFixedSizeIdNS_5SizesIJLx7ELx15ELx2EEEELi0ExEEKNS_20TensorCwiseNullaryOpINS_8internal18scalar_constant_opIdEEKS5_EEEENS_13DefaultDeviceEE10evalScalarEx"
 "_ZN5Eigen15TensorEvaluatorIKNS_14TensorAssignOpINS_15TensorFixedSizeIdNS_5SizesIJLx7ELx15ELx2EEEELi0ExEEKNS_20TensorCwiseNullaryOpINS_8internal18scalar_constant_opIdEEKS5_EEEENS_13DefaultDeviceEE20evalSubExprsIfNeededEPd"
 "_ZN5Eigen15TensorEvaluatorIKNS_14TensorAssignOpINS_15TensorFixedSizeIdNS_5SizesIJLx7ELx15ELx2EEEELi0ExEEKNS_20TensorCwiseNullaryOpINS_8internal18scalar_constant_opIdEEKS5_EEEENS_13DefaultDeviceEE7cleanupEv"
 "_ZN5Eigen15TensorEvaluatorIKNS_14TensorAssignOpINS_15TensorFixedSizeIdNS_5SizesIJLx7ELx15ELx2EEEELi0ExEEKNS_20TensorCwiseNullaryOpINS_8internal18scalar_constant_opIdEEKS5_EEEENS_13DefaultDeviceEEC1ERSE_RKSF_"
 "_ZN5Eigen15TensorEvaluatorIKNS_14TensorAssignOpINS_15TensorFixedSizeIdNS_5SizesIJLx7ELx2EEEELi0ExEEKNS_20TensorCwiseNullaryOpINS_8internal18scalar_constant_opIdEEKS5_EEEENS_13DefaultDeviceEE10evalPacketEx"
 "_ZN5Eigen15TensorEvaluatorIKNS_14TensorAssignOpINS_15TensorFixedSizeIdNS_5SizesIJLx7ELx2EEEELi0ExEEKNS_20TensorCwiseNullaryOpINS_8internal18scalar_constant_opIdEEKS5_EEEENS_13DefaultDeviceEE10evalScalarEx"
 "_ZN5Eigen15TensorEvaluatorIKNS_14TensorAssignOpINS_15TensorFixedSizeIdNS_5SizesIJLx7ELx2EEEELi0ExEEKNS_20TensorCwiseNullaryOpINS_8internal18scalar_constant_opIdEEKS5_EEEENS_13DefaultDeviceEE20evalSubExprsIfNeededEPd"
 "_ZN5Eigen15TensorEvaluatorIKNS_14TensorAssignOpINS_15TensorFixedSizeIdNS_5SizesIJLx7ELx2EEEELi0ExEEKNS_20TensorCwiseNullaryOpINS_8internal18scalar_constant_opIdEEKS5_EEEENS_13DefaultDeviceEE7cleanupEv"
 "_ZN5Eigen15TensorEvaluatorIKNS_14TensorAssignOpINS_15TensorFixedSizeIdNS_5SizesIJLx7ELx2EEEELi0ExEEKNS_20TensorCwiseNullaryOpINS_8internal18scalar_constant_opIdEEKS5_EEEENS_13DefaultDeviceEEC1ERSE_RKSF_"
 "_ZN5Eigen15TensorEvaluatorIKNS_14TensorAssignOpINS_15TensorFixedSizeIdNS_5SizesIJLx7ELx4ELx15ELx2EEEELi0ExEEKNS_20TensorCwiseNullaryOpINS_8internal18scalar_constant_opIdEEKS5_EEEENS_13DefaultDeviceEE10evalPacketEx"
 "_ZN5Eigen15TensorEvaluatorIKNS_14TensorAssignOpINS_15TensorFixedSizeIdNS_5SizesIJLx7ELx4ELx15ELx2EEEELi0ExEEKNS_20TensorCwiseNullaryOpINS_8internal18scalar_constant_opIdEEKS5_EEEENS_13DefaultDeviceEE10evalScalarEx"
 "_ZN5Eigen15TensorEvaluatorIKNS_14TensorAssignOpINS_15TensorFixedSizeIdNS_5SizesIJLx7ELx4ELx15ELx2EEEELi0ExEEKNS_20TensorCwiseNullaryOpINS_8internal18scalar_constant_opIdEEKS5_EEEENS_13DefaultDeviceEE20evalSubExprsIfNeededEPd"
 "_ZN5Eigen15TensorEvaluatorIKNS_14TensorAssignOpINS_15TensorFixedSizeIdNS_5SizesIJLx7ELx4ELx15ELx2EEEELi0ExEEKNS_20TensorCwiseNullaryOpINS_8internal18scalar_constant_opIdEEKS5_EEEENS_13DefaultDeviceEE7cleanupEv"
 "_ZN5Eigen15TensorEvaluatorIKNS_14TensorAssignOpINS_15TensorFixedSizeIdNS_5SizesIJLx7ELx4ELx15ELx2EEEELi0ExEEKNS_20TensorCwiseNullaryOpINS_8internal18scalar_constant_opIdEEKS5_EEEENS_13DefaultDeviceEEC1ERSE_RKSF_"
 "_ZN5Eigen15TensorEvaluatorIKNS_14TensorAssignOpINS_15TensorFixedSizeIdNS_5SizesIJLx7ELx4ELx15ELx2EEEELi0ExEEKNS_9TensorMapINS_6TensorIdLi4ELi0ExEELi0ENS_11MakePointerEEEEENS_13DefaultDeviceEE10evalPacketEx"
 "_ZN5Eigen15TensorEvaluatorIKNS_14TensorAssignOpINS_15TensorFixedSizeIdNS_5SizesIJLx7ELx4ELx15ELx2EEEELi0ExEEKNS_9TensorMapINS_6TensorIdLi4ELi0ExEELi0ENS_11MakePointerEEEEENS_13DefaultDeviceEE10evalScalarEx"
 "_ZN5Eigen15TensorEvaluatorIKNS_14TensorAssignOpINS_15TensorFixedSizeIdNS_5SizesIJLx7ELx4ELx15ELx2EEEELi0ExEEKNS_9TensorMapINS_6TensorIdLi4ELi0ExEELi0ENS_11MakePointerEEEEENS_13DefaultDeviceEE20evalSubExprsIfNeededEPd"
 "_ZN5Eigen15TensorEvaluatorIKNS_14TensorAssignOpINS_15TensorFixedSizeIdNS_5SizesIJLx7ELx4ELx15ELx2EEEELi0ExEEKNS_9TensorMapINS_6TensorIdLi4ELi0ExEELi0ENS_11MakePointerEEEEENS_13DefaultDeviceEE7cleanupEv"
 "_ZN5Eigen15TensorEvaluatorIKNS_14TensorAssignOpINS_15TensorFixedSizeIdNS_5SizesIJLx7ELx4ELx15ELx2EEEELi0ExEEKNS_9TensorMapINS_6TensorIdLi4ELi0ExEELi0ENS_11MakePointerEEEEENS_13DefaultDeviceEEC1ERSD_RKSE_"
 "_ZN5Eigen15TensorEvaluatorIKNS_14TensorAssignOpINS_15TensorFixedSizeIdNS_5SizesIJLx7ELx4ELx15ELx2EEEELi0ExEEKS5_EENS_13DefaultDeviceEE10evalPacketEx"
 "_ZN5Eigen15TensorEvaluatorIKNS_14TensorAssignOpINS_15TensorFixedSizeIdNS_5SizesIJLx7ELx4ELx15ELx2EEEELi0ExEEKS5_EENS_13DefaultDeviceEE10evalScalarEx"
 "_ZN5Eigen15TensorEvaluatorIKNS_14TensorAssignOpINS_15TensorFixedSizeIdNS_5SizesIJLx7ELx4ELx15ELx2EEEELi0ExEEKS5_EENS_13DefaultDeviceEE20evalSubExprsIfNeededEPd"
 "_ZN5Eigen15TensorEvaluatorIKNS_14TensorAssignOpINS_15TensorFixedSizeIdNS_5SizesIJLx7ELx4ELx15ELx2EEEELi0ExEEKS5_EENS_13DefaultDeviceEE7cleanupEv"
 "_ZN5Eigen15TensorEvaluatorIKNS_14TensorAssignOpINS_15TensorFixedSizeIdNS_5SizesIJLx7ELx4ELx15ELx2EEEELi0ExEEKS5_EENS_13DefaultDeviceEEC1ERS8_RKS9_"
 "_ZN5Eigen15TensorEvaluatorIKNS_14TensorAssignOpINS_15TensorFixedSizeIdNS_5SizesIJLx7ELx4ELx5ELx2EEEELi0ExEEKNS_20TensorCwiseNullaryOpINS_8internal18scalar_constant_opIdEEKS5_EEEENS_13DefaultDeviceEE10evalPacketEx"
 "_ZN5Eigen15TensorEvaluatorIKNS_14TensorAssignOpINS_15TensorFixedSizeIdNS_5SizesIJLx7ELx4ELx5ELx2EEEELi0ExEEKNS_20TensorCwiseNullaryOpINS_8internal18scalar_constant_opIdEEKS5_EEEENS_13DefaultDeviceEE10evalScalarEx"
 "_ZN5Eigen15TensorEvaluatorIKNS_14TensorAssignOpINS_15TensorFixedSizeIdNS_5SizesIJLx7ELx4ELx5ELx2EEEELi0ExEEKNS_20TensorCwiseNullaryOpINS_8internal18scalar_constant_opIdEEKS5_EEEENS_13DefaultDeviceEE20evalSubExprsIfNeededEPd"
 "_ZN5Eigen15TensorEvaluatorIKNS_14TensorAssignOpINS_15TensorFixedSizeIdNS_5SizesIJLx7ELx4ELx5ELx2EEEELi0ExEEKNS_20TensorCwiseNullaryOpINS_8internal18scalar_constant_opIdEEKS5_EEEENS_13DefaultDeviceEE7cleanupEv"
 "_ZN5Eigen15TensorEvaluatorIKNS_14TensorAssignOpINS_15TensorFixedSizeIdNS_5SizesIJLx7ELx4ELx5ELx2EEEELi0ExEEKNS_20TensorCwiseNullaryOpINS_8internal18scalar_constant_opIdEEKS5_EEEENS_13DefaultDeviceEEC1ERSE_RKSF_"
 "_ZN5Eigen15TensorEvaluatorIKNS_14TensorAssignOpINS_15TensorFixedSizeIdNS_5SizesIJLx7ELx4ELx5ELx2EEEELi0ExEEKNS_9TensorMapINS_6TensorIdLi4ELi0ExEELi0ENS_11MakePointerEEEEENS_13DefaultDeviceEE10evalPacketEx"
 "_ZN5Eigen15TensorEvaluatorIKNS_14TensorAssignOpINS_15TensorFixedSizeIdNS_5SizesIJLx7ELx4ELx5ELx2EEEELi0ExEEKNS_9TensorMapINS_6TensorIdLi4ELi0ExEELi0ENS_11MakePointerEEEEENS_13DefaultDeviceEE10evalScalarEx"
 "_ZN5Eigen15TensorEvaluatorIKNS_14TensorAssignOpINS_15TensorFixedSizeIdNS_5SizesIJLx7ELx4ELx5ELx2EEEELi0ExEEKNS_9TensorMapINS_6TensorIdLi4ELi0ExEELi0ENS_11MakePointerEEEEENS_13DefaultDeviceEE20evalSubExprsIfNeededEPd"
 "_ZN5Eigen15TensorEvaluatorIKNS_14TensorAssignOpINS_15TensorFixedSizeIdNS_5SizesIJLx7ELx4ELx5ELx2EEEELi0ExEEKNS_9TensorMapINS_6TensorIdLi4ELi0ExEELi0ENS_11MakePointerEEEEENS_13DefaultDeviceEE7cleanupEv"
 "_ZN5Eigen15TensorEvaluatorIKNS_14TensorAssignOpINS_15TensorFixedSizeIdNS_5SizesIJLx7ELx4ELx5ELx2EEEELi0ExEEKNS_9TensorMapINS_6TensorIdLi4ELi0ExEELi0ENS_11MakePointerEEEEENS_13DefaultDeviceEEC1ERSD_RKSE_"
 "_ZN5Eigen15TensorEvaluatorIKNS_14TensorAssignOpINS_15TensorFixedSizeIdNS_5SizesIJLx7ELx4ELx5ELx2EEEELi0ExEEKS5_EENS_13DefaultDeviceEE10evalPacketEx"
 "_ZN5Eigen15TensorEvaluatorIKNS_14TensorAssignOpINS_15TensorFixedSizeIdNS_5SizesIJLx7ELx4ELx5ELx2EEEELi0ExEEKS5_EENS_13DefaultDeviceEE10evalScalarEx"
 "_ZN5Eigen15TensorEvaluatorIKNS_14TensorAssignOpINS_15TensorFixedSizeIdNS_5SizesIJLx7ELx4ELx5ELx2EEEELi0ExEEKS5_EENS_13DefaultDeviceEE20evalSubExprsIfNeededEPd"
 "_ZN5Eigen15TensorEvaluatorIKNS_14TensorAssignOpINS_15TensorFixedSizeIdNS_5SizesIJLx7ELx4ELx5ELx2EEEELi0ExEEKS5_EENS_13DefaultDeviceEE7cleanupEv"
 "_ZN5Eigen15TensorEvaluatorIKNS_14TensorAssignOpINS_15TensorFixedSizeIdNS_5SizesIJLx7ELx4ELx5ELx2EEEELi0ExEEKS5_EENS_13DefaultDeviceEEC1ERS8_RKS9_"
 "_ZN5Eigen15TensorEvaluatorIKNS_14TensorAssignOpINS_15TensorFixedSizeIdNS_5SizesIJLx7ELx4ELx66ELx2EEEELi0ExEEKNS_20TensorCwiseNullaryOpINS_8internal18scalar_constant_opIdEEKS5_EEEENS_13DefaultDeviceEE10evalPacketEx"
 "_ZN5Eigen15TensorEvaluatorIKNS_14TensorAssignOpINS_15TensorFixedSizeIdNS_5SizesIJLx7ELx4ELx66ELx2EEEELi0ExEEKNS_20TensorCwiseNullaryOpINS_8internal18scalar_constant_opIdEEKS5_EEEENS_13DefaultDeviceEE10evalScalarEx"
 "_ZN5Eigen15TensorEvaluatorIKNS_14TensorAssignOpINS_15TensorFixedSizeIdNS_5SizesIJLx7ELx4ELx66ELx2EEEELi0ExEEKNS_20TensorCwiseNullaryOpINS_8internal18scalar_constant_opIdEEKS5_EEEENS_13DefaultDeviceEE20evalSubExprsIfNeededEPd"
 "_ZN5Eigen15TensorEvaluatorIKNS_14TensorAssignOpINS_15TensorFixedSizeIdNS_5SizesIJLx7ELx4ELx66ELx2EEEELi0ExEEKNS_20TensorCwiseNullaryOpINS_8internal18scalar_constant_opIdEEKS5_EEEENS_13DefaultDeviceEE7cleanupEv"
 "_ZN5Eigen15TensorEvaluatorIKNS_14TensorAssignOpINS_15TensorFixedSizeIdNS_5SizesIJLx7ELx4ELx66ELx2EEEELi0ExEEKNS_20TensorCwiseNullaryOpINS_8internal18scalar_constant_opIdEEKS5_EEEENS_13DefaultDeviceEEC1ERSE_RKSF_"
 "_ZN5Eigen15TensorEvaluatorIKNS_14TensorAssignOpINS_15TensorFixedSizeIdNS_5SizesIJLx7ELx66EEEELi0ExEEKNS_20TensorCwiseNullaryOpINS_8internal18scalar_constant_opIdEEKS5_EEEENS_13DefaultDeviceEE10evalPacketEx"
 "_ZN5Eigen15TensorEvaluatorIKNS_14TensorAssignOpINS_15TensorFixedSizeIdNS_5SizesIJLx7ELx66EEEELi0ExEEKNS_20TensorCwiseNullaryOpINS_8internal18scalar_constant_opIdEEKS5_EEEENS_13DefaultDeviceEE10evalScalarEx"
 "_ZN5Eigen15TensorEvaluatorIKNS_14TensorAssignOpINS_15TensorFixedSizeIdNS_5SizesIJLx7ELx66EEEELi0ExEEKNS_20TensorCwiseNullaryOpINS_8internal18scalar_constant_opIdEEKS5_EEEENS_13DefaultDeviceEE20evalSubExprsIfNeededEPd"
 "_ZN5Eigen15TensorEvaluatorIKNS_14TensorAssignOpINS_15TensorFixedSizeIdNS_5SizesIJLx7ELx66EEEELi0ExEEKNS_20TensorCwiseNullaryOpINS_8internal18scalar_constant_opIdEEKS5_EEEENS_13DefaultDeviceEE7cleanupEv"
 "_ZN5Eigen15TensorEvaluatorIKNS_14TensorAssignOpINS_15TensorFixedSizeIdNS_5SizesIJLx7ELx66EEEELi0ExEEKNS_20TensorCwiseNullaryOpINS_8internal18scalar_constant_opIdEEKS5_EEEENS_13DefaultDeviceEEC1ERSE_RKSF_"
 "_ZN5Eigen15TensorEvaluatorIKNS_14TensorAssignOpINS_15TensorFixedSizeIdNS_5SizesIJLx7ELx66ELx2EEEELi0ExEEKNS_20TensorCwiseNullaryOpINS_8internal18scalar_constant_opIdEEKS5_EEEENS_13DefaultDeviceEE10evalPacketEx"
 "_ZN5Eigen15TensorEvaluatorIKNS_14TensorAssignOpINS_15TensorFixedSizeIdNS_5SizesIJLx7ELx66ELx2EEEELi0ExEEKNS_20TensorCwiseNullaryOpINS_8internal18scalar_constant_opIdEEKS5_EEEENS_13DefaultDeviceEE10evalScalarEx"
 "_ZN5Eigen15TensorEvaluatorIKNS_14TensorAssignOpINS_15TensorFixedSizeIdNS_5SizesIJLx7ELx66ELx2EEEELi0ExEEKNS_20TensorCwiseNullaryOpINS_8internal18scalar_constant_opIdEEKS5_EEEENS_13DefaultDeviceEE20evalSubExprsIfNeededEPd"
 "_ZN5Eigen15TensorEvaluatorIKNS_14TensorAssignOpINS_15TensorFixedSizeIdNS_5SizesIJLx7ELx66ELx2EEEELi0ExEEKNS_20TensorCwiseNullaryOpINS_8internal18scalar_constant_opIdEEKS5_EEEENS_13DefaultDeviceEE7cleanupEv"
 "_ZN5Eigen15TensorEvaluatorIKNS_14TensorAssignOpINS_15TensorFixedSizeIdNS_5SizesIJLx7ELx66ELx2EEEELi0ExEEKNS_20TensorCwiseNullaryOpINS_8internal18scalar_constant_opIdEEKS5_EEEENS_13DefaultDeviceEEC1ERSE_RKSF_"
 "_ZN5Eigen15TensorEvaluatorIKNS_14TensorAssignOpINS_15TensorFixedSizeIdNS_5SizesIJLx7ELx66ELx2EEEELi0ExEEKNS_9TensorMapINS_6TensorIdLi3ELi0ExEELi0ENS_11MakePointerEEEEENS_13DefaultDeviceEE10evalPacketEx"
 "_ZN5Eigen15TensorEvaluatorIKNS_14TensorAssignOpINS_15TensorFixedSizeIdNS_5SizesIJLx7ELx66ELx2EEEELi0ExEEKNS_9TensorMapINS_6TensorIdLi3ELi0ExEELi0ENS_11MakePointerEEEEENS_13DefaultDeviceEE10evalScalarEx"
 "_ZN5Eigen15TensorEvaluatorIKNS_14TensorAssignOpINS_15TensorFixedSizeIdNS_5SizesIJLx7ELx66ELx2EEEELi0ExEEKNS_9TensorMapINS_6TensorIdLi3ELi0ExEELi0ENS_11MakePointerEEEEENS_13DefaultDeviceEE20evalSubExprsIfNeededEPd"
 "_ZN5Eigen15TensorEvaluatorIKNS_14TensorAssignOpINS_15TensorFixedSizeIdNS_5SizesIJLx7ELx66ELx2EEEELi0ExEEKNS_9TensorMapINS_6TensorIdLi3ELi0ExEELi0ENS_11MakePointerEEEEENS_13DefaultDeviceEE7cleanupEv"
 "_ZN5Eigen15TensorEvaluatorIKNS_14TensorAssignOpINS_15TensorFixedSizeIdNS_5SizesIJLx7ELx66ELx2EEEELi0ExEEKNS_9TensorMapINS_6TensorIdLi3ELi0ExEELi0ENS_11MakePointerEEEEENS_13DefaultDeviceEEC1ERSD_RKSE_"
 "_ZN5Eigen15TensorEvaluatorIKNS_14TensorAssignOpINS_15TensorFixedSizeIdNS_5SizesIJLx7ELx66ELx2EEEELi0ExEEKS5_EENS_13DefaultDeviceEE10evalPacketEx"
 "_ZN5Eigen15TensorEvaluatorIKNS_14TensorAssignOpINS_15TensorFixedSizeIdNS_5SizesIJLx7ELx66ELx2EEEELi0ExEEKS5_EENS_13DefaultDeviceEE10evalScalarEx"
 "_ZN5Eigen15TensorEvaluatorIKNS_14TensorAssignOpINS_15TensorFixedSizeIdNS_5SizesIJLx7ELx66ELx2EEEELi0ExEEKS5_EENS_13DefaultDeviceEE20evalSubExprsIfNeededEPd"
 "_ZN5Eigen15TensorEvaluatorIKNS_14TensorAssignOpINS_15TensorFixedSizeIdNS_5SizesIJLx7ELx66ELx2EEEELi0ExEEKS5_EENS_13DefaultDeviceEE7cleanupEv"
 "_ZN5Eigen15TensorEvaluatorIKNS_14TensorAssignOpINS_15TensorFixedSizeIdNS_5SizesIJLx7ELx66ELx2EEEELi0ExEEKS5_EENS_13DefaultDeviceEEC1ERS8_RKS9_"
 "_ZN5Eigen15TensorEvaluatorIKNS_14TensorAssignOpINS_15TensorFixedSizeIdNS_5SizesIJLx7ELx9EEEELi0ExEEKNS_20TensorCwiseNullaryOpINS_8internal18scalar_constant_opIdEEKS5_EEEENS_13DefaultDeviceEE10evalPacketEx"
 "_ZN5Eigen15TensorEvaluatorIKNS_14TensorAssignOpINS_15TensorFixedSizeIdNS_5SizesIJLx7ELx9EEEELi0ExEEKNS_20TensorCwiseNullaryOpINS_8internal18scalar_constant_opIdEEKS5_EEEENS_13DefaultDeviceEE10evalScalarEx"
 "_ZN5Eigen15TensorEvaluatorIKNS_14TensorAssignOpINS_15TensorFixedSizeIdNS_5SizesIJLx7ELx9EEEELi0ExEEKNS_20TensorCwiseNullaryOpINS_8internal18scalar_constant_opIdEEKS5_EEEENS_13DefaultDeviceEE20evalSubExprsIfNeededEPd"
 "_ZN5Eigen15TensorEvaluatorIKNS_14TensorAssignOpINS_15TensorFixedSizeIdNS_5SizesIJLx7ELx9EEEELi0ExEEKNS_20TensorCwiseNullaryOpINS_8internal18scalar_constant_opIdEEKS5_EEEENS_13DefaultDeviceEE7cleanupEv"
 "_ZN5Eigen15TensorEvaluatorIKNS_14TensorAssignOpINS_15TensorFixedSizeIdNS_5SizesIJLx7ELx9EEEELi0ExEEKNS_20TensorCwiseNullaryOpINS_8internal18scalar_constant_opIdEEKS5_EEEENS_13DefaultDeviceEEC1ERSE_RKSF_"
 "_ZN5Eigen15TensorEvaluatorIKNS_14TensorAssignOpINS_15TensorFixedSizeIdNS_5SizesIJLx7ELx9ELx2EEEELi0ExEEKNS_20TensorCwiseNullaryOpINS_8internal18scalar_constant_opIdEEKS5_EEEENS_13DefaultDeviceEE10evalPacketEx"
 "_ZN5Eigen15TensorEvaluatorIKNS_14TensorAssignOpINS_15TensorFixedSizeIdNS_5SizesIJLx7ELx9ELx2EEEELi0ExEEKNS_20TensorCwiseNullaryOpINS_8internal18scalar_constant_opIdEEKS5_EEEENS_13DefaultDeviceEE10evalScalarEx"
 "_ZN5Eigen15TensorEvaluatorIKNS_14TensorAssignOpINS_15TensorFixedSizeIdNS_5SizesIJLx7ELx9ELx2EEEELi0ExEEKNS_20TensorCwiseNullaryOpINS_8internal18scalar_constant_opIdEEKS5_EEEENS_13DefaultDeviceEE20evalSubExprsIfNeededEPd"
 "_ZN5Eigen15TensorEvaluatorIKNS_14TensorAssignOpINS_15TensorFixedSizeIdNS_5SizesIJLx7ELx9ELx2EEEELi0ExEEKNS_20TensorCwiseNullaryOpINS_8internal18scalar_constant_opIdEEKS5_EEEENS_13DefaultDeviceEE7cleanupEv"
 "_ZN5Eigen15TensorEvaluatorIKNS_14TensorAssignOpINS_15TensorFixedSizeIdNS_5SizesIJLx7ELx9ELx2EEEELi0ExEEKNS_20TensorCwiseNullaryOpINS_8internal18scalar_constant_opIdEEKS5_EEEENS_13DefaultDeviceEEC1ERSE_RKSF_"
 "_ZN5Eigen15TensorEvaluatorIKNS_14TensorAssignOpINS_15TensorFixedSizeIdNS_5SizesIJLx7ELx9ELx2EEEELi0ExEEKNS_9TensorMapINS_6TensorIdLi3ELi0ExEELi0ENS_11MakePointerEEEEENS_13DefaultDeviceEE10evalPacketEx"
 "_ZN5Eigen15TensorEvaluatorIKNS_14TensorAssignOpINS_15TensorFixedSizeIdNS_5SizesIJLx7ELx9ELx2EEEELi0ExEEKNS_9TensorMapINS_6TensorIdLi3ELi0ExEELi0ENS_11MakePointerEEEEENS_13DefaultDeviceEE10evalScalarEx"
 "_ZN5Eigen15TensorEvaluatorIKNS_14TensorAssignOpINS_15TensorFixedSizeIdNS_5SizesIJLx7ELx9ELx2EEEELi0ExEEKNS_9TensorMapINS_6TensorIdLi3ELi0ExEELi0ENS_11MakePointerEEEEENS_13DefaultDeviceEE20evalSubExprsIfNeededEPd"
 "_ZN5Eigen15TensorEvaluatorIKNS_14TensorAssignOpINS_15TensorFixedSizeIdNS_5SizesIJLx7ELx9ELx2EEEELi0ExEEKNS_9TensorMapINS_6TensorIdLi3ELi0ExEELi0ENS_11MakePointerEEEEENS_13DefaultDeviceEE7cleanupEv"
 "_ZN5Eigen15TensorEvaluatorIKNS_14TensorAssignOpINS_15TensorFixedSizeIdNS_5SizesIJLx7ELx9ELx2EEEELi0ExEEKNS_9TensorMapINS_6TensorIdLi3ELi0ExEELi0ENS_11MakePointerEEEEENS_13DefaultDeviceEEC1ERSD_RKSE_"
 "_ZN5Eigen15TensorEvaluatorIKNS_14TensorAssignOpINS_15TensorFixedSizeIdNS_5SizesIJLx7ELx9ELx2EEEELi0ExEEKS5_EENS_13DefaultDeviceEE10evalPacketEx"
 "_ZN5Eigen15TensorEvaluatorIKNS_14TensorAssignOpINS_15TensorFixedSizeIdNS_5SizesIJLx7ELx9ELx2EEEELi0ExEEKS5_EENS_13DefaultDeviceEE10evalScalarEx"
 "_ZN5Eigen15TensorEvaluatorIKNS_14TensorAssignOpINS_15TensorFixedSizeIdNS_5SizesIJLx7ELx9ELx2EEEELi0ExEEKS5_EENS_13DefaultDeviceEE20evalSubExprsIfNeededEPd"
 "_ZN5Eigen15TensorEvaluatorIKNS_14TensorAssignOpINS_15TensorFixedSizeIdNS_5SizesIJLx7ELx9ELx2EEEELi0ExEEKS5_EENS_13DefaultDeviceEE7cleanupEv"
 "_ZN5Eigen15TensorEvaluatorIKNS_14TensorAssignOpINS_15TensorFixedSizeIdNS_5SizesIJLx7ELx9ELx2EEEELi0ExEEKS5_EENS_13DefaultDeviceEEC1ERS8_RKS9_"
 "_ZN5Eigen15TensorEvaluatorIKNS_14TensorAssignOpINS_15TensorFixedSizeIdNS_5SizesIJLx81EEEELi0ExEEKNS_20TensorCwiseNullaryOpINS_8internal18scalar_constant_opIdEEKS5_EEEENS_13DefaultDeviceEE10evalPacketEx"
 "_ZN5Eigen15TensorEvaluatorIKNS_14TensorAssignOpINS_15TensorFixedSizeIdNS_5SizesIJLx81EEEELi0ExEEKNS_20TensorCwiseNullaryOpINS_8internal18scalar_constant_opIdEEKS5_EEEENS_13DefaultDeviceEE10evalScalarEx"
 "_ZN5Eigen15TensorEvaluatorIKNS_14TensorAssignOpINS_15TensorFixedSizeIdNS_5SizesIJLx81EEEELi0ExEEKNS_20TensorCwiseNullaryOpINS_8internal18scalar_constant_opIdEEKS5_EEEENS_13DefaultDeviceEE20evalSubExprsIfNeededEPd"
 "_ZN5Eigen15TensorEvaluatorIKNS_14TensorAssignOpINS_15TensorFixedSizeIdNS_5SizesIJLx81EEEELi0ExEEKNS_20TensorCwiseNullaryOpINS_8internal18scalar_constant_opIdEEKS5_EEEENS_13DefaultDeviceEE7cleanupEv"
 "_ZN5Eigen15TensorEvaluatorIKNS_14TensorAssignOpINS_15TensorFixedSizeIdNS_5SizesIJLx81EEEELi0ExEEKNS_20TensorCwiseNullaryOpINS_8internal18scalar_constant_opIdEEKS5_EEEENS_13DefaultDeviceEEC1ERSE_RKSF_"
 "_ZN5Eigen15TensorEvaluatorIKNS_14TensorAssignOpINS_15TensorFixedSizeIdNS_5SizesIJLx81ELx2EEEELi0ExEEKNS_20TensorCwiseNullaryOpINS_8internal18scalar_constant_opIdEEKS5_EEEENS_13DefaultDeviceEE10evalPacketEx"
 "_ZN5Eigen15TensorEvaluatorIKNS_14TensorAssignOpINS_15TensorFixedSizeIdNS_5SizesIJLx81ELx2EEEELi0ExEEKNS_20TensorCwiseNullaryOpINS_8internal18scalar_constant_opIdEEKS5_EEEENS_13DefaultDeviceEE10evalScalarEx"
 "_ZN5Eigen15TensorEvaluatorIKNS_14TensorAssignOpINS_15TensorFixedSizeIdNS_5SizesIJLx81ELx2EEEELi0ExEEKNS_20TensorCwiseNullaryOpINS_8internal18scalar_constant_opIdEEKS5_EEEENS_13DefaultDeviceEE20evalSubExprsIfNeededEPd"
 "_ZN5Eigen15TensorEvaluatorIKNS_14TensorAssignOpINS_15TensorFixedSizeIdNS_5SizesIJLx81ELx2EEEELi0ExEEKNS_20TensorCwiseNullaryOpINS_8internal18scalar_constant_opIdEEKS5_EEEENS_13DefaultDeviceEE7cleanupEv"
 "_ZN5Eigen15TensorEvaluatorIKNS_14TensorAssignOpINS_15TensorFixedSizeIdNS_5SizesIJLx81ELx2EEEELi0ExEEKNS_20TensorCwiseNullaryOpINS_8internal18scalar_constant_opIdEEKS5_EEEENS_13DefaultDeviceEEC1ERSE_RKSF_"
 "_ZN5Eigen15TensorEvaluatorIKNS_14TensorAssignOpINS_15TensorFixedSizeIdNS_5SizesIJLx81ELx2EEEELi0ExEEKNS_9TensorMapINS_6TensorIdLi2ELi0ExEELi0ENS_11MakePointerEEEEENS_13DefaultDeviceEE10evalPacketEx"
 "_ZN5Eigen15TensorEvaluatorIKNS_14TensorAssignOpINS_15TensorFixedSizeIdNS_5SizesIJLx81ELx2EEEELi0ExEEKNS_9TensorMapINS_6TensorIdLi2ELi0ExEELi0ENS_11MakePointerEEEEENS_13DefaultDeviceEE10evalScalarEx"
 "_ZN5Eigen15TensorEvaluatorIKNS_14TensorAssignOpINS_15TensorFixedSizeIdNS_5SizesIJLx81ELx2EEEELi0ExEEKNS_9TensorMapINS_6TensorIdLi2ELi0ExEELi0ENS_11MakePointerEEEEENS_13DefaultDeviceEE20evalSubExprsIfNeededEPd"
 "_ZN5Eigen15TensorEvaluatorIKNS_14TensorAssignOpINS_15TensorFixedSizeIdNS_5SizesIJLx81ELx2EEEELi0ExEEKNS_9TensorMapINS_6TensorIdLi2ELi0ExEELi0ENS_11MakePointerEEEEENS_13DefaultDeviceEE7cleanupEv"
 "_ZN5Eigen15TensorEvaluatorIKNS_14TensorAssignOpINS_15TensorFixedSizeIdNS_5SizesIJLx81ELx2EEEELi0ExEEKNS_9TensorMapINS_6TensorIdLi2ELi0ExEELi0ENS_11MakePointerEEEEENS_13DefaultDeviceEEC1ERSD_RKSE_"
 "_ZN5Eigen15TensorEvaluatorIKNS_14TensorAssignOpINS_15TensorFixedSizeIdNS_5SizesIJLx81ELx2EEEELi0ExEEKS5_EENS_13DefaultDeviceEE10evalPacketEx"
 "_ZN5Eigen15TensorEvaluatorIKNS_14TensorAssignOpINS_15TensorFixedSizeIdNS_5SizesIJLx81ELx2EEEELi0ExEEKS5_EENS_13DefaultDeviceEE10evalScalarEx"
 "_ZN5Eigen15TensorEvaluatorIKNS_14TensorAssignOpINS_15TensorFixedSizeIdNS_5SizesIJLx81ELx2EEEELi0ExEEKS5_EENS_13DefaultDeviceEE20evalSubExprsIfNeededEPd"
 "_ZN5Eigen15TensorEvaluatorIKNS_14TensorAssignOpINS_15TensorFixedSizeIdNS_5SizesIJLx81ELx2EEEELi0ExEEKS5_EENS_13DefaultDeviceEE7cleanupEv"
 "_ZN5Eigen15TensorEvaluatorIKNS_14TensorAssignOpINS_15TensorFixedSizeIdNS_5SizesIJLx81ELx2EEEELi0ExEEKS5_EENS_13DefaultDeviceEEC1ERS8_RKS9_"
 "_ZN5Eigen15TensorEvaluatorIKNS_14TensorAssignOpINS_15TensorFixedSizeIdNS_5SizesIJLx9EEEELi0ExEEKNS_20TensorCwiseNullaryOpINS_8internal18scalar_constant_opIdEEKS5_EEEENS_13DefaultDeviceEE10evalPacketEx"
 "_ZN5Eigen15TensorEvaluatorIKNS_14TensorAssignOpINS_15TensorFixedSizeIdNS_5SizesIJLx9EEEELi0ExEEKNS_20TensorCwiseNullaryOpINS_8internal18scalar_constant_opIdEEKS5_EEEENS_13DefaultDeviceEE10evalScalarEx"
 "_ZN5Eigen15TensorEvaluatorIKNS_14TensorAssignOpINS_15TensorFixedSizeIdNS_5SizesIJLx9EEEELi0ExEEKNS_20TensorCwiseNullaryOpINS_8internal18scalar_constant_opIdEEKS5_EEEENS_13DefaultDeviceEE20evalSubExprsIfNeededEPd"
 "_ZN5Eigen15TensorEvaluatorIKNS_14TensorAssignOpINS_15TensorFixedSizeIdNS_5SizesIJLx9EEEELi0ExEEKNS_20TensorCwiseNullaryOpINS_8internal18scalar_constant_opIdEEKS5_EEEENS_13DefaultDeviceEE7cleanupEv"
 "_ZN5Eigen15TensorEvaluatorIKNS_14TensorAssignOpINS_15TensorFixedSizeIdNS_5SizesIJLx9EEEELi0ExEEKNS_20TensorCwiseNullaryOpINS_8internal18scalar_constant_opIdEEKS5_EEEENS_13DefaultDeviceEEC1ERSE_RKSF_"
 "_ZN5Eigen15TensorEvaluatorIKNS_14TensorAssignOpINS_15TensorFixedSizeIdNS_5SizesIJLx9ELx2EEEELi0ExEEKNS_20TensorCwiseNullaryOpINS_8internal18scalar_constant_opIdEEKS5_EEEENS_13DefaultDeviceEE10evalPacketEx"
 "_ZN5Eigen15TensorEvaluatorIKNS_14TensorAssignOpINS_15TensorFixedSizeIdNS_5SizesIJLx9ELx2EEEELi0ExEEKNS_20TensorCwiseNullaryOpINS_8internal18scalar_constant_opIdEEKS5_EEEENS_13DefaultDeviceEE10evalScalarEx"
 "_ZN5Eigen15TensorEvaluatorIKNS_14TensorAssignOpINS_15TensorFixedSizeIdNS_5SizesIJLx9ELx2EEEELi0ExEEKNS_20TensorCwiseNullaryOpINS_8internal18scalar_constant_opIdEEKS5_EEEENS_13DefaultDeviceEE20evalSubExprsIfNeededEPd"
 "_ZN5Eigen15TensorEvaluatorIKNS_14TensorAssignOpINS_15TensorFixedSizeIdNS_5SizesIJLx9ELx2EEEELi0ExEEKNS_20TensorCwiseNullaryOpINS_8internal18scalar_constant_opIdEEKS5_EEEENS_13DefaultDeviceEE7cleanupEv"
 "_ZN5Eigen15TensorEvaluatorIKNS_14TensorAssignOpINS_15TensorFixedSizeIdNS_5SizesIJLx9ELx2EEEELi0ExEEKNS_20TensorCwiseNullaryOpINS_8internal18scalar_constant_opIdEEKS5_EEEENS_13DefaultDeviceEEC1ERSE_RKSF_"
 "_ZN5Eigen15TensorEvaluatorIKNS_14TensorAssignOpINS_16TensorChippingOpILxn1ENS_6TensorIdLi2ELi0ExEEEEKNS_15TensorFixedSizeIdNS_5SizesIJLx4EEEELi0ExEEEENS_13DefaultDeviceEE10evalPacketEx"
 "_ZN5Eigen15TensorEvaluatorIKNS_14TensorAssignOpINS_16TensorChippingOpILxn1ENS_6TensorIdLi2ELi0ExEEEEKNS_15TensorFixedSizeIdNS_5SizesIJLx4EEEELi0ExEEEENS_13DefaultDeviceEE10evalScalarEx"
 "_ZN5Eigen15TensorEvaluatorIKNS_14TensorAssignOpINS_16TensorChippingOpILxn1ENS_6TensorIdLi2ELi0ExEEEEKNS_15TensorFixedSizeIdNS_5SizesIJLx4EEEELi0ExEEEENS_13DefaultDeviceEE20evalSubExprsIfNeededEPd"
 "_ZN5Eigen15TensorEvaluatorIKNS_14TensorAssignOpINS_16TensorChippingOpILxn1ENS_6TensorIdLi2ELi0ExEEEEKNS_15TensorFixedSizeIdNS_5SizesIJLx4EEEELi0ExEEEENS_13DefaultDeviceEE7cleanupEv"
 "_ZN5Eigen15TensorEvaluatorIKNS_14TensorAssignOpINS_16TensorChippingOpILxn1ENS_6TensorIdLi2ELi0ExEEEEKNS_15TensorFixedSizeIdNS_5SizesIJLx4EEEELi0ExEEEENS_13DefaultDeviceEEC1ERSC_RKSD_"
 "_ZN5Eigen15TensorEvaluatorIKNS_14TensorAssignOpINS_16TensorChippingOpILxn1ENS_6TensorIdLi3ELi0ExEEEEKNS_15TensorFixedSizeIdNS_5SizesIJLx81ELx2EEEELi0ExEEEENS_13DefaultDeviceEE10evalPacketEx"
 "_ZN5Eigen15TensorEvaluatorIKNS_14TensorAssignOpINS_16TensorChippingOpILxn1ENS_6TensorIdLi3ELi0ExEEEEKNS_15TensorFixedSizeIdNS_5SizesIJLx81ELx2EEEELi0ExEEEENS_13DefaultDeviceEE10evalScalarEx"
 "_ZN5Eigen15TensorEvaluatorIKNS_14TensorAssignOpINS_16TensorChippingOpILxn1ENS_6TensorIdLi3ELi0ExEEEEKNS_15TensorFixedSizeIdNS_5SizesIJLx81ELx2EEEELi0ExEEEENS_13DefaultDeviceEE20evalSubExprsIfNeededEPd"
 "_ZN5Eigen15TensorEvaluatorIKNS_14TensorAssignOpINS_16TensorChippingOpILxn1ENS_6TensorIdLi3ELi0ExEEEEKNS_15TensorFixedSizeIdNS_5SizesIJLx81ELx2EEEELi0ExEEEENS_13DefaultDeviceEE7cleanupEv"
 "_ZN5Eigen15TensorEvaluatorIKNS_14TensorAssignOpINS_16TensorChippingOpILxn1ENS_6TensorIdLi3ELi0ExEEEEKNS_15TensorFixedSizeIdNS_5SizesIJLx81ELx2EEEELi0ExEEEENS_13DefaultDeviceEEC1ERSC_RKSD_"
 "_ZN5Eigen15TensorEvaluatorIKNS_14TensorAssignOpINS_16TensorChippingOpILxn1ENS_6TensorIdLi4ELi0ExEEEEKNS_15TensorFixedSizeIdNS_5SizesIJLx4ELx5ELx2EEEELi0ExEEEENS_13DefaultDeviceEE10evalPacketEx"
 "_ZN5Eigen15TensorEvaluatorIKNS_14TensorAssignOpINS_16TensorChippingOpILxn1ENS_6TensorIdLi4ELi0ExEEEEKNS_15TensorFixedSizeIdNS_5SizesIJLx4ELx5ELx2EEEELi0ExEEEENS_13DefaultDeviceEE10evalScalarEx"
 "_ZN5Eigen15TensorEvaluatorIKNS_14TensorAssignOpINS_16TensorChippingOpILxn1ENS_6TensorIdLi4ELi0ExEEEEKNS_15TensorFixedSizeIdNS_5SizesIJLx4ELx5ELx2EEEELi0ExEEEENS_13DefaultDeviceEE20evalSubExprsIfNeededEPd"
 "_ZN5Eigen15TensorEvaluatorIKNS_14TensorAssignOpINS_16TensorChippingOpILxn1ENS_6TensorIdLi4ELi0ExEEEEKNS_15TensorFixedSizeIdNS_5SizesIJLx4ELx5ELx2EEEELi0ExEEEENS_13DefaultDeviceEE7cleanupEv"
 "_ZN5Eigen15TensorEvaluatorIKNS_14TensorAssignOpINS_16TensorChippingOpILxn1ENS_6TensorIdLi4ELi0ExEEEEKNS_15TensorFixedSizeIdNS_5SizesIJLx4ELx5ELx2EEEELi0ExEEEENS_13DefaultDeviceEEC1ERSC_RKSD_"
 "_ZN5Eigen15TensorEvaluatorIKNS_14TensorAssignOpINS_16TensorChippingOpILxn1ENS_6TensorIdLi4ELi0ExEEEEKNS_15TensorFixedSizeIdNS_5SizesIJLx7ELx66ELx2EEEELi0ExEEEENS_13DefaultDeviceEE10evalPacketEx"
 "_ZN5Eigen15TensorEvaluatorIKNS_14TensorAssignOpINS_16TensorChippingOpILxn1ENS_6TensorIdLi4ELi0ExEEEEKNS_15TensorFixedSizeIdNS_5SizesIJLx7ELx66ELx2EEEELi0ExEEEENS_13DefaultDeviceEE10evalScalarEx"
 "_ZN5Eigen15TensorEvaluatorIKNS_14TensorAssignOpINS_16TensorChippingOpILxn1ENS_6TensorIdLi4ELi0ExEEEEKNS_15TensorFixedSizeIdNS_5SizesIJLx7ELx66ELx2EEEELi0ExEEEENS_13DefaultDeviceEE20evalSubExprsIfNeededEPd"
 "_ZN5Eigen15TensorEvaluatorIKNS_14TensorAssignOpINS_16TensorChippingOpILxn1ENS_6TensorIdLi4ELi0ExEEEEKNS_15TensorFixedSizeIdNS_5SizesIJLx7ELx66ELx2EEEELi0ExEEEENS_13DefaultDeviceEE7cleanupEv"
 "_ZN5Eigen15TensorEvaluatorIKNS_14TensorAssignOpINS_16TensorChippingOpILxn1ENS_6TensorIdLi4ELi0ExEEEEKNS_15TensorFixedSizeIdNS_5SizesIJLx7ELx66ELx2EEEELi0ExEEEENS_13DefaultDeviceEEC1ERSC_RKSD_"
 "_ZN5Eigen15TensorEvaluatorIKNS_14TensorAssignOpINS_16TensorChippingOpILxn1ENS_6TensorIdLi4ELi0ExEEEEKNS_15TensorFixedSizeIdNS_5SizesIJLx7ELx9ELx2EEEELi0ExEEEENS_13DefaultDeviceEE10evalPacketEx"
 "_ZN5Eigen15TensorEvaluatorIKNS_14TensorAssignOpINS_16TensorChippingOpILxn1ENS_6TensorIdLi4ELi0ExEEEEKNS_15TensorFixedSizeIdNS_5SizesIJLx7ELx9ELx2EEEELi0ExEEEENS_13DefaultDeviceEE10evalScalarEx"
 "_ZN5Eigen15TensorEvaluatorIKNS_14TensorAssignOpINS_16TensorChippingOpILxn1ENS_6TensorIdLi4ELi0ExEEEEKNS_15TensorFixedSizeIdNS_5SizesIJLx7ELx9ELx2EEEELi0ExEEEENS_13DefaultDeviceEE20evalSubExprsIfNeededEPd"
 "_ZN5Eigen15TensorEvaluatorIKNS_14TensorAssignOpINS_16TensorChippingOpILxn1ENS_6TensorIdLi4ELi0ExEEEEKNS_15TensorFixedSizeIdNS_5SizesIJLx7ELx9ELx2EEEELi0ExEEEENS_13DefaultDeviceEE7cleanupEv"
 "_ZN5Eigen15TensorEvaluatorIKNS_14TensorAssignOpINS_16TensorChippingOpILxn1ENS_6TensorIdLi4ELi0ExEEEEKNS_15TensorFixedSizeIdNS_5SizesIJLx7ELx9ELx2EEEELi0ExEEEENS_13DefaultDeviceEEC1ERSC_RKSD_"
 "_ZN5Eigen15TensorEvaluatorIKNS_14TensorAssignOpINS_16TensorChippingOpILxn1ENS_6TensorIdLi5ELi0ExEEEEKNS_15TensorFixedSizeIdNS_5SizesIJLx3ELx6ELx10ELx2EEEELi0ExEEEENS_13DefaultDeviceEE10evalPacketEx"
 "_ZN5Eigen15TensorEvaluatorIKNS_14TensorAssignOpINS_16TensorChippingOpILxn1ENS_6TensorIdLi5ELi0ExEEEEKNS_15TensorFixedSizeIdNS_5SizesIJLx3ELx6ELx10ELx2EEEELi0ExEEEENS_13DefaultDeviceEE10evalScalarEx"
 "_ZN5Eigen15TensorEvaluatorIKNS_14TensorAssignOpINS_16TensorChippingOpILxn1ENS_6TensorIdLi5ELi0ExEEEEKNS_15TensorFixedSizeIdNS_5SizesIJLx3ELx6ELx10ELx2EEEELi0ExEEEENS_13DefaultDeviceEE20evalSubExprsIfNeededEPd"
 "_ZN5Eigen15TensorEvaluatorIKNS_14TensorAssignOpINS_16TensorChippingOpILxn1ENS_6TensorIdLi5ELi0ExEEEEKNS_15TensorFixedSizeIdNS_5SizesIJLx3ELx6ELx10ELx2EEEELi0ExEEEENS_13DefaultDeviceEE7cleanupEv"
 "_ZN5Eigen15TensorEvaluatorIKNS_14TensorAssignOpINS_16TensorChippingOpILxn1ENS_6TensorIdLi5ELi0ExEEEEKNS_15TensorFixedSizeIdNS_5SizesIJLx3ELx6ELx10ELx2EEEELi0ExEEEENS_13DefaultDeviceEEC1ERSC_RKSD_"
 "_ZN5Eigen15TensorEvaluatorIKNS_14TensorAssignOpINS_16TensorChippingOpILxn1ENS_6TensorIdLi5ELi0ExEEEEKNS_15TensorFixedSizeIdNS_5SizesIJLx3ELx7ELx5ELx2EEEELi0ExEEEENS_13DefaultDeviceEE10evalPacketEx"
 "_ZN5Eigen15TensorEvaluatorIKNS_14TensorAssignOpINS_16TensorChippingOpILxn1ENS_6TensorIdLi5ELi0ExEEEEKNS_15TensorFixedSizeIdNS_5SizesIJLx3ELx7ELx5ELx2EEEELi0ExEEEENS_13DefaultDeviceEE10evalScalarEx"
 "_ZN5Eigen15TensorEvaluatorIKNS_14TensorAssignOpINS_16TensorChippingOpILxn1ENS_6TensorIdLi5ELi0ExEEEEKNS_15TensorFixedSizeIdNS_5SizesIJLx3ELx7ELx5ELx2EEEELi0ExEEEENS_13DefaultDeviceEE20evalSubExprsIfNeededEPd"
 "_ZN5Eigen15TensorEvaluatorIKNS_14TensorAssignOpINS_16TensorChippingOpILxn1ENS_6TensorIdLi5ELi0ExEEEEKNS_15TensorFixedSizeIdNS_5SizesIJLx3ELx7ELx5ELx2EEEELi0ExEEEENS_13DefaultDeviceEE7cleanupEv"
 "_ZN5Eigen15TensorEvaluatorIKNS_14TensorAssignOpINS_16TensorChippingOpILxn1ENS_6TensorIdLi5ELi0ExEEEEKNS_15TensorFixedSizeIdNS_5SizesIJLx3ELx7ELx5ELx2EEEELi0ExEEEENS_13DefaultDeviceEEC1ERSC_RKSD_"
 "_ZN5Eigen15TensorEvaluatorIKNS_14TensorAssignOpINS_16TensorChippingOpILxn1ENS_6TensorIdLi5ELi0ExEEEEKNS_15TensorFixedSizeIdNS_5SizesIJLx3ELx7ELx66ELx2EEEELi0ExEEEENS_13DefaultDeviceEE10evalPacketEx"
 "_ZN5Eigen15TensorEvaluatorIKNS_14TensorAssignOpINS_16TensorChippingOpILxn1ENS_6TensorIdLi5ELi0ExEEEEKNS_15TensorFixedSizeIdNS_5SizesIJLx3ELx7ELx66ELx2EEEELi0ExEEEENS_13DefaultDeviceEE10evalScalarEx"
 "_ZN5Eigen15TensorEvaluatorIKNS_14TensorAssignOpINS_16TensorChippingOpILxn1ENS_6TensorIdLi5ELi0ExEEEEKNS_15TensorFixedSizeIdNS_5SizesIJLx3ELx7ELx66ELx2EEEELi0ExEEEENS_13DefaultDeviceEE20evalSubExprsIfNeededEPd"
 "_ZN5Eigen15TensorEvaluatorIKNS_14TensorAssignOpINS_16TensorChippingOpILxn1ENS_6TensorIdLi5ELi0ExEEEEKNS_15TensorFixedSizeIdNS_5SizesIJLx3ELx7ELx66ELx2EEEELi0ExEEEENS_13DefaultDeviceEE7cleanupEv"
 "_ZN5Eigen15TensorEvaluatorIKNS_14TensorAssignOpINS_16TensorChippingOpILxn1ENS_6TensorIdLi5ELi0ExEEEEKNS_15TensorFixedSizeIdNS_5SizesIJLx3ELx7ELx66ELx2EEEELi0ExEEEENS_13DefaultDeviceEEC1ERSC_RKSD_"
 "_ZN5Eigen15TensorEvaluatorIKNS_14TensorAssignOpINS_16TensorChippingOpILxn1ENS_6TensorIdLi5ELi0ExEEEEKNS_15TensorFixedSizeIdNS_5SizesIJLx3ELx7ELx9ELx2EEEELi0ExEEEENS_13DefaultDeviceEE10evalPacketEx"
 "_ZN5Eigen15TensorEvaluatorIKNS_14TensorAssignOpINS_16TensorChippingOpILxn1ENS_6TensorIdLi5ELi0ExEEEEKNS_15TensorFixedSizeIdNS_5SizesIJLx3ELx7ELx9ELx2EEEELi0ExEEEENS_13DefaultDeviceEE10evalScalarEx"
 "_ZN5Eigen15TensorEvaluatorIKNS_14TensorAssignOpINS_16TensorChippingOpILxn1ENS_6TensorIdLi5ELi0ExEEEEKNS_15TensorFixedSizeIdNS_5SizesIJLx3ELx7ELx9ELx2EEEELi0ExEEEENS_13DefaultDeviceEE20evalSubExprsIfNeededEPd"
 "_ZN5Eigen15TensorEvaluatorIKNS_14TensorAssignOpINS_16TensorChippingOpILxn1ENS_6TensorIdLi5ELi0ExEEEEKNS_15TensorFixedSizeIdNS_5SizesIJLx3ELx7ELx9ELx2EEEELi0ExEEEENS_13DefaultDeviceEE7cleanupEv"
 "_ZN5Eigen15TensorEvaluatorIKNS_14TensorAssignOpINS_16TensorChippingOpILxn1ENS_6TensorIdLi5ELi0ExEEEEKNS_15TensorFixedSizeIdNS_5SizesIJLx3ELx7ELx9ELx2EEEELi0ExEEEENS_13DefaultDeviceEEC1ERSC_RKSD_"
 "_ZN5Eigen15TensorEvaluatorIKNS_14TensorAssignOpINS_16TensorChippingOpILxn1ENS_6TensorIdLi5ELi0ExEEEEKNS_15TensorFixedSizeIdNS_5SizesIJLx6ELx4ELx10ELx2EEEELi0ExEEEENS_13DefaultDeviceEE10evalPacketEx"
 "_ZN5Eigen15TensorEvaluatorIKNS_14TensorAssignOpINS_16TensorChippingOpILxn1ENS_6TensorIdLi5ELi0ExEEEEKNS_15TensorFixedSizeIdNS_5SizesIJLx6ELx4ELx10ELx2EEEELi0ExEEEENS_13DefaultDeviceEE10evalScalarEx"
 "_ZN5Eigen15TensorEvaluatorIKNS_14TensorAssignOpINS_16TensorChippingOpILxn1ENS_6TensorIdLi5ELi0ExEEEEKNS_15TensorFixedSizeIdNS_5SizesIJLx6ELx4ELx10ELx2EEEELi0ExEEEENS_13DefaultDeviceEE20evalSubExprsIfNeededEPd"
 "_ZN5Eigen15TensorEvaluatorIKNS_14TensorAssignOpINS_16TensorChippingOpILxn1ENS_6TensorIdLi5ELi0ExEEEEKNS_15TensorFixedSizeIdNS_5SizesIJLx6ELx4ELx10ELx2EEEELi0ExEEEENS_13DefaultDeviceEE7cleanupEv"
 "_ZN5Eigen15TensorEvaluatorIKNS_14TensorAssignOpINS_16TensorChippingOpILxn1ENS_6TensorIdLi5ELi0ExEEEEKNS_15TensorFixedSizeIdNS_5SizesIJLx6ELx4ELx10ELx2EEEELi0ExEEEENS_13DefaultDeviceEEC1ERSC_RKSD_"
 "_ZN5Eigen15TensorEvaluatorIKNS_14TensorAssignOpINS_16TensorChippingOpILxn1ENS_6TensorIdLi5ELi0ExEEEEKNS_15TensorFixedSizeIdNS_5SizesIJLx6ELx4ELx5ELx2EEEELi0ExEEEENS_13DefaultDeviceEE10evalPacketEx"
 "_ZN5Eigen15TensorEvaluatorIKNS_14TensorAssignOpINS_16TensorChippingOpILxn1ENS_6TensorIdLi5ELi0ExEEEEKNS_15TensorFixedSizeIdNS_5SizesIJLx6ELx4ELx5ELx2EEEELi0ExEEEENS_13DefaultDeviceEE10evalScalarEx"
 "_ZN5Eigen15TensorEvaluatorIKNS_14TensorAssignOpINS_16TensorChippingOpILxn1ENS_6TensorIdLi5ELi0ExEEEEKNS_15TensorFixedSizeIdNS_5SizesIJLx6ELx4ELx5ELx2EEEELi0ExEEEENS_13DefaultDeviceEE20evalSubExprsIfNeededEPd"
 "_ZN5Eigen15TensorEvaluatorIKNS_14TensorAssignOpINS_16TensorChippingOpILxn1ENS_6TensorIdLi5ELi0ExEEEEKNS_15TensorFixedSizeIdNS_5SizesIJLx6ELx4ELx5ELx2EEEELi0ExEEEENS_13DefaultDeviceEE7cleanupEv"
 "_ZN5Eigen15TensorEvaluatorIKNS_14TensorAssignOpINS_16TensorChippingOpILxn1ENS_6TensorIdLi5ELi0ExEEEEKNS_15TensorFixedSizeIdNS_5SizesIJLx6ELx4ELx5ELx2EEEELi0ExEEEENS_13DefaultDeviceEEC1ERSC_RKSD_"
 "_ZN5Eigen15TensorEvaluatorIKNS_14TensorAssignOpINS_16TensorChippingOpILxn1ENS_6TensorIdLi5ELi0ExEEEEKNS_15TensorFixedSizeIdNS_5SizesIJLx7ELx4ELx15ELx2EEEELi0ExEEEENS_13DefaultDeviceEE10evalPacketEx"
 "_ZN5Eigen15TensorEvaluatorIKNS_14TensorAssignOpINS_16TensorChippingOpILxn1ENS_6TensorIdLi5ELi0ExEEEEKNS_15TensorFixedSizeIdNS_5SizesIJLx7ELx4ELx15ELx2EEEELi0ExEEEENS_13DefaultDeviceEE10evalScalarEx"
 "_ZN5Eigen15TensorEvaluatorIKNS_14TensorAssignOpINS_16TensorChippingOpILxn1ENS_6TensorIdLi5ELi0ExEEEEKNS_15TensorFixedSizeIdNS_5SizesIJLx7ELx4ELx15ELx2EEEELi0ExEEEENS_13DefaultDeviceEE20evalSubExprsIfNeededEPd"
 "_ZN5Eigen15TensorEvaluatorIKNS_14TensorAssignOpINS_16TensorChippingOpILxn1ENS_6TensorIdLi5ELi0ExEEEEKNS_15TensorFixedSizeIdNS_5SizesIJLx7ELx4ELx15ELx2EEEELi0ExEEEENS_13DefaultDeviceEE7cleanupEv"
 "_ZN5Eigen15TensorEvaluatorIKNS_14TensorAssignOpINS_16TensorChippingOpILxn1ENS_6TensorIdLi5ELi0ExEEEEKNS_15TensorFixedSizeIdNS_5SizesIJLx7ELx4ELx15ELx2EEEELi0ExEEEENS_13DefaultDeviceEEC1ERSC_RKSD_"
 "_ZN5Eigen15TensorEvaluatorIKNS_14TensorAssignOpINS_16TensorChippingOpILxn1ENS_6TensorIdLi5ELi0ExEEEEKNS_15TensorFixedSizeIdNS_5SizesIJLx7ELx4ELx5ELx2EEEELi0ExEEEENS_13DefaultDeviceEE10evalPacketEx"
 "_ZN5Eigen15TensorEvaluatorIKNS_14TensorAssignOpINS_16TensorChippingOpILxn1ENS_6TensorIdLi5ELi0ExEEEEKNS_15TensorFixedSizeIdNS_5SizesIJLx7ELx4ELx5ELx2EEEELi0ExEEEENS_13DefaultDeviceEE10evalScalarEx"
 "_ZN5Eigen15TensorEvaluatorIKNS_14TensorAssignOpINS_16TensorChippingOpILxn1ENS_6TensorIdLi5ELi0ExEEEEKNS_15TensorFixedSizeIdNS_5SizesIJLx7ELx4ELx5ELx2EEEELi0ExEEEENS_13DefaultDeviceEE20evalSubExprsIfNeededEPd"
 "_ZN5Eigen15TensorEvaluatorIKNS_14TensorAssignOpINS_16TensorChippingOpILxn1ENS_6TensorIdLi5ELi0ExEEEEKNS_15TensorFixedSizeIdNS_5SizesIJLx7ELx4ELx5ELx2EEEELi0ExEEEENS_13DefaultDeviceEE7cleanupEv"
 "_ZN5Eigen15TensorEvaluatorIKNS_14TensorAssignOpINS_16TensorChippingOpILxn1ENS_6TensorIdLi5ELi0ExEEEEKNS_15TensorFixedSizeIdNS_5SizesIJLx7ELx4ELx5ELx2EEEELi0ExEEEENS_13DefaultDeviceEEC1ERSC_RKSD_"
 "_ZN5Eigen15TensorEvaluatorIKNS_14TensorAssignOpINS_6TensorIdLi1ELi0ExEEKNS_20TensorCwiseNullaryOpINS_8internal18scalar_constant_opIdEEKS3_EEEENS_13DefaultDeviceEE10evalPacketEx"
 "_ZN5Eigen15TensorEvaluatorIKNS_14TensorAssignOpINS_6TensorIdLi1ELi0ExEEKNS_20TensorCwiseNullaryOpINS_8internal18scalar_constant_opIdEEKS3_EEEENS_13DefaultDeviceEE10evalScalarEx"
 "_ZN5Eigen15TensorEvaluatorIKNS_14TensorAssignOpINS_6TensorIdLi1ELi0ExEEKNS_20TensorCwiseNullaryOpINS_8internal18scalar_constant_opIdEEKS3_EEEENS_13DefaultDeviceEE20evalSubExprsIfNeededEPd"
 "_ZN5Eigen15TensorEvaluatorIKNS_14TensorAssignOpINS_6TensorIdLi1ELi0ExEEKNS_20TensorCwiseNullaryOpINS_8internal18scalar_constant_opIdEEKS3_EEEENS_13DefaultDeviceEE7cleanupEv"
 "_ZN5Eigen15TensorEvaluatorIKNS_14TensorAssignOpINS_6TensorIdLi1ELi0ExEEKNS_20TensorCwiseNullaryOpINS_8internal18scalar_constant_opIdEEKS3_EEEENS_13DefaultDeviceEEC1ERSC_RKSD_"
 "_ZN5Eigen15TensorEvaluatorIKNS_14TensorAssignOpINS_6TensorIdLi2ELi0ExEEKNS_20TensorCwiseNullaryOpINS_8internal18scalar_constant_opIdEEKS3_EEEENS_13DefaultDeviceEE10evalPacketEx"
 "_ZN5Eigen15TensorEvaluatorIKNS_14TensorAssignOpINS_6TensorIdLi2ELi0ExEEKNS_20TensorCwiseNullaryOpINS_8internal18scalar_constant_opIdEEKS3_EEEENS_13DefaultDeviceEE10evalScalarEx"
 "_ZN5Eigen15TensorEvaluatorIKNS_14TensorAssignOpINS_6TensorIdLi2ELi0ExEEKNS_20TensorCwiseNullaryOpINS_8internal18scalar_constant_opIdEEKS3_EEEENS_13DefaultDeviceEE20evalSubExprsIfNeededEPd"
 "_ZN5Eigen15TensorEvaluatorIKNS_14TensorAssignOpINS_6TensorIdLi2ELi0ExEEKNS_20TensorCwiseNullaryOpINS_8internal18scalar_constant_opIdEEKS3_EEEENS_13DefaultDeviceEE7cleanupEv"
 "_ZN5Eigen15TensorEvaluatorIKNS_14TensorAssignOpINS_6TensorIdLi2ELi0ExEEKNS_20TensorCwiseNullaryOpINS_8internal18scalar_constant_opIdEEKS3_EEEENS_13DefaultDeviceEEC1ERSC_RKSD_"
 "_ZN5Eigen15TensorEvaluatorIKNS_14TensorAssignOpINS_6TensorIdLi3ELi0ExEEKNS_20TensorCwiseNullaryOpINS_8internal18scalar_constant_opIdEEKS3_EEEENS_13DefaultDeviceEE10evalPacketEx"
 "_ZN5Eigen15TensorEvaluatorIKNS_14TensorAssignOpINS_6TensorIdLi3ELi0ExEEKNS_20TensorCwiseNullaryOpINS_8internal18scalar_constant_opIdEEKS3_EEEENS_13DefaultDeviceEE10evalScalarEx"
 "_ZN5Eigen15TensorEvaluatorIKNS_14TensorAssignOpINS_6TensorIdLi3ELi0ExEEKNS_20TensorCwiseNullaryOpINS_8internal18scalar_constant_opIdEEKS3_EEEENS_13DefaultDeviceEE20evalSubExprsIfNeededEPd"
 "_ZN5Eigen15TensorEvaluatorIKNS_14TensorAssignOpINS_6TensorIdLi3ELi0ExEEKNS_20TensorCwiseNullaryOpINS_8internal18scalar_constant_opIdEEKS3_EEEENS_13DefaultDeviceEE7cleanupEv"
 "_ZN5Eigen15TensorEvaluatorIKNS_14TensorAssignOpINS_6TensorIdLi3ELi0ExEEKNS_20TensorCwiseNullaryOpINS_8internal18scalar_constant_opIdEEKS3_EEEENS_13DefaultDeviceEEC1ERSC_RKSD_"
 "_ZN5Eigen15TensorEvaluatorIKNS_14TensorAssignOpINS_6TensorIdLi4ELi0ExEEKNS_20TensorCwiseNullaryOpINS_8internal18scalar_constant_opIdEEKS3_EEEENS_13DefaultDeviceEE10evalPacketEx"
 "_ZN5Eigen15TensorEvaluatorIKNS_14TensorAssignOpINS_6TensorIdLi4ELi0ExEEKNS_20TensorCwiseNullaryOpINS_8internal18scalar_constant_opIdEEKS3_EEEENS_13DefaultDeviceEE10evalScalarEx"
 "_ZN5Eigen15TensorEvaluatorIKNS_14TensorAssignOpINS_6TensorIdLi4ELi0ExEEKNS_20TensorCwiseNullaryOpINS_8internal18scalar_constant_opIdEEKS3_EEEENS_13DefaultDeviceEE20evalSubExprsIfNeededEPd"
 "_ZN5Eigen15TensorEvaluatorIKNS_14TensorAssignOpINS_6TensorIdLi4ELi0ExEEKNS_20TensorCwiseNullaryOpINS_8internal18scalar_constant_opIdEEKS3_EEEENS_13DefaultDeviceEE7cleanupEv"
 "_ZN5Eigen15TensorEvaluatorIKNS_14TensorAssignOpINS_6TensorIdLi4ELi0ExEEKNS_20TensorCwiseNullaryOpINS_8internal18scalar_constant_opIdEEKS3_EEEENS_13DefaultDeviceEEC1ERSC_RKSD_"
 "_ZN5Eigen15TensorEvaluatorIKNS_14TensorAssignOpINS_6TensorIdLi5ELi0ExEEKNS_20TensorCwiseNullaryOpINS_8internal18scalar_constant_opIdEEKS3_EEEENS_13DefaultDeviceEE10evalPacketEx"
 "_ZN5Eigen15TensorEvaluatorIKNS_14TensorAssignOpINS_6TensorIdLi5ELi0ExEEKNS_20TensorCwiseNullaryOpINS_8internal18scalar_constant_opIdEEKS3_EEEENS_13DefaultDeviceEE10evalScalarEx"
 "_ZN5Eigen15TensorEvaluatorIKNS_14TensorAssignOpINS_6TensorIdLi5ELi0ExEEKNS_20TensorCwiseNullaryOpINS_8internal18scalar_constant_opIdEEKS3_EEEENS_13DefaultDeviceEE20evalSubExprsIfNeededEPd"
 "_ZN5Eigen15TensorEvaluatorIKNS_14TensorAssignOpINS_6TensorIdLi5ELi0ExEEKNS_20TensorCwiseNullaryOpINS_8internal18scalar_constant_opIdEEKS3_EEEENS_13DefaultDeviceEE7cleanupEv"
 "_ZN5Eigen15TensorEvaluatorIKNS_14TensorAssignOpINS_6TensorIdLi5ELi0ExEEKNS_20TensorCwiseNullaryOpINS_8internal18scalar_constant_opIdEEKS3_EEEENS_13DefaultDeviceEEC1ERSC_RKSD_"
 "_ZN5Eigen15TensorEvaluatorIKNS_15TensorFixedSizeIdNS_5SizesIJLx2EEEELi0ExEENS_13DefaultDeviceEEC1ERS5_RKS6_"
 "_ZN5Eigen15TensorEvaluatorIKNS_15TensorFixedSizeIdNS_5SizesIJLx3EEEELi0ExEENS_13DefaultDeviceEEC1ERS5_RKS6_"
 "_ZN5Eigen15TensorEvaluatorIKNS_15TensorFixedSizeIdNS_5SizesIJLx3ELx6ELx10ELx2EEEELi0ExEENS_13DefaultDeviceEE20evalSubExprsIfNeededEPd"
 "_ZN5Eigen15TensorEvaluatorIKNS_15TensorFixedSizeIdNS_5SizesIJLx3ELx6ELx10ELx2EEEELi0ExEENS_13DefaultDeviceEE7cleanupEv"
 "_ZN5Eigen15TensorEvaluatorIKNS_15TensorFixedSizeIdNS_5SizesIJLx3ELx6ELx10ELx2EEEELi0ExEENS_13DefaultDeviceEEC1ERS5_RKS6_"
 "_ZN5Eigen15TensorEvaluatorIKNS_15TensorFixedSizeIdNS_5SizesIJLx3ELx7ELx2EEEELi0ExEENS_13DefaultDeviceEEC1ERS5_RKS6_"
 "_ZN5Eigen15TensorEvaluatorIKNS_15TensorFixedSizeIdNS_5SizesIJLx3ELx7ELx5ELx2EEEELi0ExEENS_13DefaultDeviceEE20evalSubExprsIfNeededEPd"
 "_ZN5Eigen15TensorEvaluatorIKNS_15TensorFixedSizeIdNS_5SizesIJLx3ELx7ELx5ELx2EEEELi0ExEENS_13DefaultDeviceEE7cleanupEv"
 "_ZN5Eigen15TensorEvaluatorIKNS_15TensorFixedSizeIdNS_5SizesIJLx3ELx7ELx5ELx2EEEELi0ExEENS_13DefaultDeviceEEC1ERS5_RKS6_"
 "_ZN5Eigen15TensorEvaluatorIKNS_15TensorFixedSizeIdNS_5SizesIJLx3ELx7ELx66ELx2EEEELi0ExEENS_13DefaultDeviceEE20evalSubExprsIfNeededEPd"
 "_ZN5Eigen15TensorEvaluatorIKNS_15TensorFixedSizeIdNS_5SizesIJLx3ELx7ELx66ELx2EEEELi0ExEENS_13DefaultDeviceEE7cleanupEv"
 "_ZN5Eigen15TensorEvaluatorIKNS_15TensorFixedSizeIdNS_5SizesIJLx3ELx7ELx66ELx2EEEELi0ExEENS_13DefaultDeviceEEC1ERS5_RKS6_"
 "_ZN5Eigen15TensorEvaluatorIKNS_15TensorFixedSizeIdNS_5SizesIJLx3ELx7ELx9ELx2EEEELi0ExEENS_13DefaultDeviceEE20evalSubExprsIfNeededEPd"
 "_ZN5Eigen15TensorEvaluatorIKNS_15TensorFixedSizeIdNS_5SizesIJLx3ELx7ELx9ELx2EEEELi0ExEENS_13DefaultDeviceEE7cleanupEv"
 "_ZN5Eigen15TensorEvaluatorIKNS_15TensorFixedSizeIdNS_5SizesIJLx3ELx7ELx9ELx2EEEELi0ExEENS_13DefaultDeviceEEC1ERS5_RKS6_"
 "_ZN5Eigen15TensorEvaluatorIKNS_15TensorFixedSizeIdNS_5SizesIJLx4EEEELi0ExEENS_13DefaultDeviceEE20evalSubExprsIfNeededEPd"
 "_ZN5Eigen15TensorEvaluatorIKNS_15TensorFixedSizeIdNS_5SizesIJLx4EEEELi0ExEENS_13DefaultDeviceEE7cleanupEv"
 "_ZN5Eigen15TensorEvaluatorIKNS_15TensorFixedSizeIdNS_5SizesIJLx4EEEELi0ExEENS_13DefaultDeviceEEC1ERS5_RKS6_"
 "_ZN5Eigen15TensorEvaluatorIKNS_15TensorFixedSizeIdNS_5SizesIJLx4ELx5ELx2EEEELi0ExEENS_13DefaultDeviceEE20evalSubExprsIfNeededEPd"
 "_ZN5Eigen15TensorEvaluatorIKNS_15TensorFixedSizeIdNS_5SizesIJLx4ELx5ELx2EEEELi0ExEENS_13DefaultDeviceEE7cleanupEv"
 "_ZN5Eigen15TensorEvaluatorIKNS_15TensorFixedSizeIdNS_5SizesIJLx4ELx5ELx2EEEELi0ExEENS_13DefaultDeviceEEC1ERS5_RKS6_"
 "_ZN5Eigen15TensorEvaluatorIKNS_15TensorFixedSizeIdNS_5SizesIJLx66EEEELi0ExEENS_13DefaultDeviceEEC1ERS5_RKS6_"
 "_ZN5Eigen15TensorEvaluatorIKNS_15TensorFixedSizeIdNS_5SizesIJLx66ELx2EEEELi0ExEENS_13DefaultDeviceEEC1ERS5_RKS6_"
 "_ZN5Eigen15TensorEvaluatorIKNS_15TensorFixedSizeIdNS_5SizesIJLx6ELx4ELx10ELx2EEEELi0ExEENS_13DefaultDeviceEE20evalSubExprsIfNeededEPd"
 "_ZN5Eigen15TensorEvaluatorIKNS_15TensorFixedSizeIdNS_5SizesIJLx6ELx4ELx10ELx2EEEELi0ExEENS_13DefaultDeviceEE7cleanupEv"
 "_ZN5Eigen15TensorEvaluatorIKNS_15TensorFixedSizeIdNS_5SizesIJLx6ELx4ELx10ELx2EEEELi0ExEENS_13DefaultDeviceEEC1ERS5_RKS6_"
 "_ZN5Eigen15TensorEvaluatorIKNS_15TensorFixedSizeIdNS_5SizesIJLx6ELx4ELx5ELx2EEEELi0ExEENS_13DefaultDeviceEE20evalSubExprsIfNeededEPd"
 "_ZN5Eigen15TensorEvaluatorIKNS_15TensorFixedSizeIdNS_5SizesIJLx6ELx4ELx5ELx2EEEELi0ExEENS_13DefaultDeviceEE7cleanupEv"
 "_ZN5Eigen15TensorEvaluatorIKNS_15TensorFixedSizeIdNS_5SizesIJLx6ELx4ELx5ELx2EEEELi0ExEENS_13DefaultDeviceEEC1ERS5_RKS6_"
 "_ZN5Eigen15TensorEvaluatorIKNS_15TensorFixedSizeIdNS_5SizesIJLx7EEEELi0ExEENS_13DefaultDeviceEEC1ERS5_RKS6_"
 "_ZN5Eigen15TensorEvaluatorIKNS_15TensorFixedSizeIdNS_5SizesIJLx7ELx15ELx2EEEELi0ExEENS_13DefaultDeviceEEC1ERS5_RKS6_"
 "_ZN5Eigen15TensorEvaluatorIKNS_15TensorFixedSizeIdNS_5SizesIJLx7ELx2EEEELi0ExEENS_13DefaultDeviceEEC1ERS5_RKS6_"
 "_ZN5Eigen15TensorEvaluatorIKNS_15TensorFixedSizeIdNS_5SizesIJLx7ELx4ELx15ELx2EEEELi0ExEENS_13DefaultDeviceEE20evalSubExprsIfNeededEPd"
 "_ZN5Eigen15TensorEvaluatorIKNS_15TensorFixedSizeIdNS_5SizesIJLx7ELx4ELx15ELx2EEEELi0ExEENS_13DefaultDeviceEE7cleanupEv"
 "_ZN5Eigen15TensorEvaluatorIKNS_15TensorFixedSizeIdNS_5SizesIJLx7ELx4ELx15ELx2EEEELi0ExEENS_13DefaultDeviceEEC1ERS5_RKS6_"
 "_ZN5Eigen15TensorEvaluatorIKNS_15TensorFixedSizeIdNS_5SizesIJLx7ELx4ELx5ELx2EEEELi0ExEENS_13DefaultDeviceEE20evalSubExprsIfNeededEPd"
 "_ZN5Eigen15TensorEvaluatorIKNS_15TensorFixedSizeIdNS_5SizesIJLx7ELx4ELx5ELx2EEEELi0ExEENS_13DefaultDeviceEE7cleanupEv"
 "_ZN5Eigen15TensorEvaluatorIKNS_15TensorFixedSizeIdNS_5SizesIJLx7ELx4ELx5ELx2EEEELi0ExEENS_13DefaultDeviceEEC1ERS5_RKS6_"
 "_ZN5Eigen15TensorEvaluatorIKNS_15TensorFixedSizeIdNS_5SizesIJLx7ELx4ELx66ELx2EEEELi0ExEENS_13DefaultDeviceEEC1ERS5_RKS6_"
 "_ZN5Eigen15TensorEvaluatorIKNS_15TensorFixedSizeIdNS_5SizesIJLx7ELx66EEEELi0ExEENS_13DefaultDeviceEEC1ERS5_RKS6_"
 "_ZN5Eigen15TensorEvaluatorIKNS_15TensorFixedSizeIdNS_5SizesIJLx7ELx66ELx2EEEELi0ExEENS_13DefaultDeviceEE20evalSubExprsIfNeededEPd"
 "_ZN5Eigen15TensorEvaluatorIKNS_15TensorFixedSizeIdNS_5SizesIJLx7ELx66ELx2EEEELi0ExEENS_13DefaultDeviceEE7cleanupEv"
 "_ZN5Eigen15TensorEvaluatorIKNS_15TensorFixedSizeIdNS_5SizesIJLx7ELx66ELx2EEEELi0ExEENS_13DefaultDeviceEEC1ERS5_RKS6_"
 "_ZN5Eigen15TensorEvaluatorIKNS_15TensorFixedSizeIdNS_5SizesIJLx7ELx9EEEELi0ExEENS_13DefaultDeviceEEC1ERS5_RKS6_"
 "_ZN5Eigen15TensorEvaluatorIKNS_15TensorFixedSizeIdNS_5SizesIJLx7ELx9ELx2EEEELi0ExEENS_13DefaultDeviceEE20evalSubExprsIfNeededEPd"
 "_ZN5Eigen15TensorEvaluatorIKNS_15TensorFixedSizeIdNS_5SizesIJLx7ELx9ELx2EEEELi0ExEENS_13DefaultDeviceEE7cleanupEv"
 "_ZN5Eigen15TensorEvaluatorIKNS_15TensorFixedSizeIdNS_5SizesIJLx7ELx9ELx2EEEELi0ExEENS_13DefaultDeviceEEC1ERS5_RKS6_"
 "_ZN5Eigen15TensorEvaluatorIKNS_15TensorFixedSizeIdNS_5SizesIJLx81EEEELi0ExEENS_13DefaultDeviceEEC1ERS5_RKS6_"
 "_ZN5Eigen15TensorEvaluatorIKNS_15TensorFixedSizeIdNS_5SizesIJLx81ELx2EEEELi0ExEENS_13DefaultDeviceEE20evalSubExprsIfNeededEPd"
 "_ZN5Eigen15TensorEvaluatorIKNS_15TensorFixedSizeIdNS_5SizesIJLx81ELx2EEEELi0ExEENS_13DefaultDeviceEE7cleanupEv"
 "_ZN5Eigen15TensorEvaluatorIKNS_15TensorFixedSizeIdNS_5SizesIJLx81ELx2EEEELi0ExEENS_13DefaultDeviceEEC1ERS5_RKS6_"
 "_ZN5Eigen15TensorEvaluatorIKNS_15TensorFixedSizeIdNS_5SizesIJLx9EEEELi0ExEENS_13DefaultDeviceEEC1ERS5_RKS6_"
 "_ZN5Eigen15TensorEvaluatorIKNS_15TensorFixedSizeIdNS_5SizesIJLx9ELx2EEEELi0ExEENS_13DefaultDeviceEEC1ERS5_RKS6_"
 "_ZN5Eigen15TensorEvaluatorIKNS_16TensorChippingOpILxn1ENS_6TensorIdLi2ELi0ExEEEENS_13DefaultDeviceEE20evalSubExprsIfNeededEPd"
 "_ZN5Eigen15TensorEvaluatorIKNS_16TensorChippingOpILxn1ENS_6TensorIdLi2ELi0ExEEEENS_13DefaultDeviceEE7cleanupEv"
 "_ZN5Eigen15TensorEvaluatorIKNS_16TensorChippingOpILxn1ENS_6TensorIdLi2ELi0ExEEEENS_13DefaultDeviceEEC2ERS5_RKS6_"
 "_ZN5Eigen15TensorEvaluatorIKNS_16TensorChippingOpILxn1ENS_6TensorIdLi3ELi0ExEEEENS_13DefaultDeviceEE20evalSubExprsIfNeededEPd"
 "_ZN5Eigen15TensorEvaluatorIKNS_16TensorChippingOpILxn1ENS_6TensorIdLi3ELi0ExEEEENS_13DefaultDeviceEE7cleanupEv"
 "_ZN5Eigen15TensorEvaluatorIKNS_16TensorChippingOpILxn1ENS_6TensorIdLi3ELi0ExEEEENS_13DefaultDeviceEEC2ERS5_RKS6_"
 "_ZN5Eigen15TensorEvaluatorIKNS_16TensorChippingOpILxn1ENS_6TensorIdLi4ELi0ExEEEENS_13DefaultDeviceEE20evalSubExprsIfNeededEPd"
 "_ZN5Eigen15TensorEvaluatorIKNS_16TensorChippingOpILxn1ENS_6TensorIdLi4ELi0ExEEEENS_13DefaultDeviceEE7cleanupEv"
 "_ZN5Eigen15TensorEvaluatorIKNS_16TensorChippingOpILxn1ENS_6TensorIdLi4ELi0ExEEEENS_13DefaultDeviceEEC2ERS5_RKS6_"
 "_ZN5Eigen15TensorEvaluatorIKNS_16TensorChippingOpILxn1ENS_6TensorIdLi5ELi0ExEEEENS_13DefaultDeviceEE20evalSubExprsIfNeededEPd"
 "_ZN5Eigen15TensorEvaluatorIKNS_16TensorChippingOpILxn1ENS_6TensorIdLi5ELi0ExEEEENS_13DefaultDeviceEE7cleanupEv"
 "_ZN5Eigen15TensorEvaluatorIKNS_16TensorChippingOpILxn1ENS_6TensorIdLi5ELi0ExEEEENS_13DefaultDeviceEEC2ERS5_RKS6_"
 "_ZN5Eigen15TensorEvaluatorIKNS_20TensorCwiseNullaryOpINS_8internal18scalar_constant_opIdEEKNS_15TensorFixedSizeIdNS_5SizesIJLx2EEEELi0ExEEEENS_13DefaultDeviceEE20evalSubExprsIfNeededEPd"
 "_ZN5Eigen15TensorEvaluatorIKNS_20TensorCwiseNullaryOpINS_8internal18scalar_constant_opIdEEKNS_15TensorFixedSizeIdNS_5SizesIJLx2EEEELi0ExEEEENS_13DefaultDeviceEE7cleanupEv"
 "_ZN5Eigen15TensorEvaluatorIKNS_20TensorCwiseNullaryOpINS_8internal18scalar_constant_opIdEEKNS_15TensorFixedSizeIdNS_5SizesIJLx2EEEELi0ExEEEENS_13DefaultDeviceEEC1ERSB_RKSC_"
 "_ZN5Eigen15TensorEvaluatorIKNS_20TensorCwiseNullaryOpINS_8internal18scalar_constant_opIdEEKNS_15TensorFixedSizeIdNS_5SizesIJLx3EEEELi0ExEEEENS_13DefaultDeviceEE20evalSubExprsIfNeededEPd"
 "_ZN5Eigen15TensorEvaluatorIKNS_20TensorCwiseNullaryOpINS_8internal18scalar_constant_opIdEEKNS_15TensorFixedSizeIdNS_5SizesIJLx3EEEELi0ExEEEENS_13DefaultDeviceEE7cleanupEv"
 "_ZN5Eigen15TensorEvaluatorIKNS_20TensorCwiseNullaryOpINS_8internal18scalar_constant_opIdEEKNS_15TensorFixedSizeIdNS_5SizesIJLx3EEEELi0ExEEEENS_13DefaultDeviceEEC1ERSB_RKSC_"
 "_ZN5Eigen15TensorEvaluatorIKNS_20TensorCwiseNullaryOpINS_8internal18scalar_constant_opIdEEKNS_15TensorFixedSizeIdNS_5SizesIJLx3ELx6ELx10ELx2EEEELi0ExEEEENS_13DefaultDeviceEE20evalSubExprsIfNeededEPd"
 "_ZN5Eigen15TensorEvaluatorIKNS_20TensorCwiseNullaryOpINS_8internal18scalar_constant_opIdEEKNS_15TensorFixedSizeIdNS_5SizesIJLx3ELx6ELx10ELx2EEEELi0ExEEEENS_13DefaultDeviceEE7cleanupEv"
 "_ZN5Eigen15TensorEvaluatorIKNS_20TensorCwiseNullaryOpINS_8internal18scalar_constant_opIdEEKNS_15TensorFixedSizeIdNS_5SizesIJLx3ELx6ELx10ELx2EEEELi0ExEEEENS_13DefaultDeviceEEC1ERSB_RKSC_"
 "_ZN5Eigen15TensorEvaluatorIKNS_20TensorCwiseNullaryOpINS_8internal18scalar_constant_opIdEEKNS_15TensorFixedSizeIdNS_5SizesIJLx3ELx7ELx2EEEELi0ExEEEENS_13DefaultDeviceEE20evalSubExprsIfNeededEPd"
 "_ZN5Eigen15TensorEvaluatorIKNS_20TensorCwiseNullaryOpINS_8internal18scalar_constant_opIdEEKNS_15TensorFixedSizeIdNS_5SizesIJLx3ELx7ELx2EEEELi0ExEEEENS_13DefaultDeviceEE7cleanupEv"
 "_ZN5Eigen15TensorEvaluatorIKNS_20TensorCwiseNullaryOpINS_8internal18scalar_constant_opIdEEKNS_15TensorFixedSizeIdNS_5SizesIJLx3ELx7ELx2EEEELi0ExEEEENS_13DefaultDeviceEEC1ERSB_RKSC_"
 "_ZN5Eigen15TensorEvaluatorIKNS_20TensorCwiseNullaryOpINS_8internal18scalar_constant_opIdEEKNS_15TensorFixedSizeIdNS_5SizesIJLx3ELx7ELx5ELx2EEEELi0ExEEEENS_13DefaultDeviceEE20evalSubExprsIfNeededEPd"
 "_ZN5Eigen15TensorEvaluatorIKNS_20TensorCwiseNullaryOpINS_8internal18scalar_constant_opIdEEKNS_15TensorFixedSizeIdNS_5SizesIJLx3ELx7ELx5ELx2EEEELi0ExEEEENS_13DefaultDeviceEE7cleanupEv"
 "_ZN5Eigen15TensorEvaluatorIKNS_20TensorCwiseNullaryOpINS_8internal18scalar_constant_opIdEEKNS_15TensorFixedSizeIdNS_5SizesIJLx3ELx7ELx5ELx2EEEELi0ExEEEENS_13DefaultDeviceEEC1ERSB_RKSC_"
 "_ZN5Eigen15TensorEvaluatorIKNS_20TensorCwiseNullaryOpINS_8internal18scalar_constant_opIdEEKNS_15TensorFixedSizeIdNS_5SizesIJLx3ELx7ELx66ELx2EEEELi0ExEEEENS_13DefaultDeviceEE20evalSubExprsIfNeededEPd"
 "_ZN5Eigen15TensorEvaluatorIKNS_20TensorCwiseNullaryOpINS_8internal18scalar_constant_opIdEEKNS_15TensorFixedSizeIdNS_5SizesIJLx3ELx7ELx66ELx2EEEELi0ExEEEENS_13DefaultDeviceEE7cleanupEv"
 "_ZN5Eigen15TensorEvaluatorIKNS_20TensorCwiseNullaryOpINS_8internal18scalar_constant_opIdEEKNS_15TensorFixedSizeIdNS_5SizesIJLx3ELx7ELx66ELx2EEEELi0ExEEEENS_13DefaultDeviceEEC1ERSB_RKSC_"
 "_ZN5Eigen15TensorEvaluatorIKNS_20TensorCwiseNullaryOpINS_8internal18scalar_constant_opIdEEKNS_15TensorFixedSizeIdNS_5SizesIJLx3ELx7ELx9ELx2EEEELi0ExEEEENS_13DefaultDeviceEE20evalSubExprsIfNeededEPd"
 "_ZN5Eigen15TensorEvaluatorIKNS_20TensorCwiseNullaryOpINS_8internal18scalar_constant_opIdEEKNS_15TensorFixedSizeIdNS_5SizesIJLx3ELx7ELx9ELx2EEEELi0ExEEEENS_13DefaultDeviceEE7cleanupEv"
 "_ZN5Eigen15TensorEvaluatorIKNS_20TensorCwiseNullaryOpINS_8internal18scalar_constant_opIdEEKNS_15TensorFixedSizeIdNS_5SizesIJLx3ELx7ELx9ELx2EEEELi0ExEEEENS_13DefaultDeviceEEC1ERSB_RKSC_"
 "_ZN5Eigen15TensorEvaluatorIKNS_20TensorCwiseNullaryOpINS_8internal18scalar_constant_opIdEEKNS_15TensorFixedSizeIdNS_5SizesIJLx4EEEELi0ExEEEENS_13DefaultDeviceEE20evalSubExprsIfNeededEPd"
 "_ZN5Eigen15TensorEvaluatorIKNS_20TensorCwiseNullaryOpINS_8internal18scalar_constant_opIdEEKNS_15TensorFixedSizeIdNS_5SizesIJLx4EEEELi0ExEEEENS_13DefaultDeviceEE7cleanupEv"
 "_ZN5Eigen15TensorEvaluatorIKNS_20TensorCwiseNullaryOpINS_8internal18scalar_constant_opIdEEKNS_15TensorFixedSizeIdNS_5SizesIJLx4EEEELi0ExEEEENS_13DefaultDeviceEEC1ERSB_RKSC_"
 "_ZN5Eigen15TensorEvaluatorIKNS_20TensorCwiseNullaryOpINS_8internal18scalar_constant_opIdEEKNS_15TensorFixedSizeIdNS_5SizesIJLx4ELx5ELx2EEEELi0ExEEEENS_13DefaultDeviceEE20evalSubExprsIfNeededEPd"
 "_ZN5Eigen15TensorEvaluatorIKNS_20TensorCwiseNullaryOpINS_8internal18scalar_constant_opIdEEKNS_15TensorFixedSizeIdNS_5SizesIJLx4ELx5ELx2EEEELi0ExEEEENS_13DefaultDeviceEE7cleanupEv"
 "_ZN5Eigen15TensorEvaluatorIKNS_20TensorCwiseNullaryOpINS_8internal18scalar_constant_opIdEEKNS_15TensorFixedSizeIdNS_5SizesIJLx4ELx5ELx2EEEELi0ExEEEENS_13DefaultDeviceEEC1ERSB_RKSC_"
 "_ZN5Eigen15TensorEvaluatorIKNS_20TensorCwiseNullaryOpINS_8internal18scalar_constant_opIdEEKNS_15TensorFixedSizeIdNS_5SizesIJLx66EEEELi0ExEEEENS_13DefaultDeviceEE20evalSubExprsIfNeededEPd"
 "_ZN5Eigen15TensorEvaluatorIKNS_20TensorCwiseNullaryOpINS_8internal18scalar_constant_opIdEEKNS_15TensorFixedSizeIdNS_5SizesIJLx66EEEELi0ExEEEENS_13DefaultDeviceEE7cleanupEv"
 "_ZN5Eigen15TensorEvaluatorIKNS_20TensorCwiseNullaryOpINS_8internal18scalar_constant_opIdEEKNS_15TensorFixedSizeIdNS_5SizesIJLx66EEEELi0ExEEEENS_13DefaultDeviceEEC1ERSB_RKSC_"
 "_ZN5Eigen15TensorEvaluatorIKNS_20TensorCwiseNullaryOpINS_8internal18scalar_constant_opIdEEKNS_15TensorFixedSizeIdNS_5SizesIJLx66ELx2EEEELi0ExEEEENS_13DefaultDeviceEE20evalSubExprsIfNeededEPd"
 "_ZN5Eigen15TensorEvaluatorIKNS_20TensorCwiseNullaryOpINS_8internal18scalar_constant_opIdEEKNS_15TensorFixedSizeIdNS_5SizesIJLx66ELx2EEEELi0ExEEEENS_13DefaultDeviceEE7cleanupEv"
 "_ZN5Eigen15TensorEvaluatorIKNS_20TensorCwiseNullaryOpINS_8internal18scalar_constant_opIdEEKNS_15TensorFixedSizeIdNS_5SizesIJLx66ELx2EEEELi0ExEEEENS_13DefaultDeviceEEC1ERSB_RKSC_"
 "_ZN5Eigen15TensorEvaluatorIKNS_20TensorCwiseNullaryOpINS_8internal18scalar_constant_opIdEEKNS_15TensorFixedSizeIdNS_5SizesIJLx6ELx4ELx10ELx2EEEELi0ExEEEENS_13DefaultDeviceEE20evalSubExprsIfNeededEPd"
 "_ZN5Eigen15TensorEvaluatorIKNS_20TensorCwiseNullaryOpINS_8internal18scalar_constant_opIdEEKNS_15TensorFixedSizeIdNS_5SizesIJLx6ELx4ELx10ELx2EEEELi0ExEEEENS_13DefaultDeviceEE7cleanupEv"
 "_ZN5Eigen15TensorEvaluatorIKNS_20TensorCwiseNullaryOpINS_8internal18scalar_constant_opIdEEKNS_15TensorFixedSizeIdNS_5SizesIJLx6ELx4ELx10ELx2EEEELi0ExEEEENS_13DefaultDeviceEEC1ERSB_RKSC_"
 "_ZN5Eigen15TensorEvaluatorIKNS_20TensorCwiseNullaryOpINS_8internal18scalar_constant_opIdEEKNS_15TensorFixedSizeIdNS_5SizesIJLx6ELx4ELx5ELx2EEEELi0ExEEEENS_13DefaultDeviceEE20evalSubExprsIfNeededEPd"
 "_ZN5Eigen15TensorEvaluatorIKNS_20TensorCwiseNullaryOpINS_8internal18scalar_constant_opIdEEKNS_15TensorFixedSizeIdNS_5SizesIJLx6ELx4ELx5ELx2EEEELi0ExEEEENS_13DefaultDeviceEE7cleanupEv"
 "_ZN5Eigen15TensorEvaluatorIKNS_20TensorCwiseNullaryOpINS_8internal18scalar_constant_opIdEEKNS_15TensorFixedSizeIdNS_5SizesIJLx6ELx4ELx5ELx2EEEELi0ExEEEENS_13DefaultDeviceEEC1ERSB_RKSC_"
 "_ZN5Eigen15TensorEvaluatorIKNS_20TensorCwiseNullaryOpINS_8internal18scalar_constant_opIdEEKNS_15TensorFixedSizeIdNS_5SizesIJLx7EEEELi0ExEEEENS_13DefaultDeviceEE20evalSubExprsIfNeededEPd"
 "_ZN5Eigen15TensorEvaluatorIKNS_20TensorCwiseNullaryOpINS_8internal18scalar_constant_opIdEEKNS_15TensorFixedSizeIdNS_5SizesIJLx7EEEELi0ExEEEENS_13DefaultDeviceEE7cleanupEv"
 "_ZN5Eigen15TensorEvaluatorIKNS_20TensorCwiseNullaryOpINS_8internal18scalar_constant_opIdEEKNS_15TensorFixedSizeIdNS_5SizesIJLx7EEEELi0ExEEEENS_13DefaultDeviceEEC1ERSB_RKSC_"
 "_ZN5Eigen15TensorEvaluatorIKNS_20TensorCwiseNullaryOpINS_8internal18scalar_constant_opIdEEKNS_15TensorFixedSizeIdNS_5SizesIJLx7ELx15ELx2EEEELi0ExEEEENS_13DefaultDeviceEE20evalSubExprsIfNeededEPd"
 "_ZN5Eigen15TensorEvaluatorIKNS_20TensorCwiseNullaryOpINS_8internal18scalar_constant_opIdEEKNS_15TensorFixedSizeIdNS_5SizesIJLx7ELx15ELx2EEEELi0ExEEEENS_13DefaultDeviceEE7cleanupEv"
 "_ZN5Eigen15TensorEvaluatorIKNS_20TensorCwiseNullaryOpINS_8internal18scalar_constant_opIdEEKNS_15TensorFixedSizeIdNS_5SizesIJLx7ELx15ELx2EEEELi0ExEEEENS_13DefaultDeviceEEC1ERSB_RKSC_"
 "_ZN5Eigen15TensorEvaluatorIKNS_20TensorCwiseNullaryOpINS_8internal18scalar_constant_opIdEEKNS_15TensorFixedSizeIdNS_5SizesIJLx7ELx2EEEELi0ExEEEENS_13DefaultDeviceEE20evalSubExprsIfNeededEPd"
 "_ZN5Eigen15TensorEvaluatorIKNS_20TensorCwiseNullaryOpINS_8internal18scalar_constant_opIdEEKNS_15TensorFixedSizeIdNS_5SizesIJLx7ELx2EEEELi0ExEEEENS_13DefaultDeviceEE7cleanupEv"
 "_ZN5Eigen15TensorEvaluatorIKNS_20TensorCwiseNullaryOpINS_8internal18scalar_constant_opIdEEKNS_15TensorFixedSizeIdNS_5SizesIJLx7ELx2EEEELi0ExEEEENS_13DefaultDeviceEEC1ERSB_RKSC_"
 "_ZN5Eigen15TensorEvaluatorIKNS_20TensorCwiseNullaryOpINS_8internal18scalar_constant_opIdEEKNS_15TensorFixedSizeIdNS_5SizesIJLx7ELx4ELx15ELx2EEEELi0ExEEEENS_13DefaultDeviceEE20evalSubExprsIfNeededEPd"
 "_ZN5Eigen15TensorEvaluatorIKNS_20TensorCwiseNullaryOpINS_8internal18scalar_constant_opIdEEKNS_15TensorFixedSizeIdNS_5SizesIJLx7ELx4ELx15ELx2EEEELi0ExEEEENS_13DefaultDeviceEE7cleanupEv"
 "_ZN5Eigen15TensorEvaluatorIKNS_20TensorCwiseNullaryOpINS_8internal18scalar_constant_opIdEEKNS_15TensorFixedSizeIdNS_5SizesIJLx7ELx4ELx15ELx2EEEELi0ExEEEENS_13DefaultDeviceEEC1ERSB_RKSC_"
 "_ZN5Eigen15TensorEvaluatorIKNS_20TensorCwiseNullaryOpINS_8internal18scalar_constant_opIdEEKNS_15TensorFixedSizeIdNS_5SizesIJLx7ELx4ELx5ELx2EEEELi0ExEEEENS_13DefaultDeviceEE20evalSubExprsIfNeededEPd"
 "_ZN5Eigen15TensorEvaluatorIKNS_20TensorCwiseNullaryOpINS_8internal18scalar_constant_opIdEEKNS_15TensorFixedSizeIdNS_5SizesIJLx7ELx4ELx5ELx2EEEELi0ExEEEENS_13DefaultDeviceEE7cleanupEv"
 "_ZN5Eigen15TensorEvaluatorIKNS_20TensorCwiseNullaryOpINS_8internal18scalar_constant_opIdEEKNS_15TensorFixedSizeIdNS_5SizesIJLx7ELx4ELx5ELx2EEEELi0ExEEEENS_13DefaultDeviceEEC1ERSB_RKSC_"
 "_ZN5Eigen15TensorEvaluatorIKNS_20TensorCwiseNullaryOpINS_8internal18scalar_constant_opIdEEKNS_15TensorFixedSizeIdNS_5SizesIJLx7ELx4ELx66ELx2EEEELi0ExEEEENS_13DefaultDeviceEE20evalSubExprsIfNeededEPd"
 "_ZN5Eigen15TensorEvaluatorIKNS_20TensorCwiseNullaryOpINS_8internal18scalar_constant_opIdEEKNS_15TensorFixedSizeIdNS_5SizesIJLx7ELx4ELx66ELx2EEEELi0ExEEEENS_13DefaultDeviceEE7cleanupEv"
 "_ZN5Eigen15TensorEvaluatorIKNS_20TensorCwiseNullaryOpINS_8internal18scalar_constant_opIdEEKNS_15TensorFixedSizeIdNS_5SizesIJLx7ELx4ELx66ELx2EEEELi0ExEEEENS_13DefaultDeviceEEC1ERSB_RKSC_"
 "_ZN5Eigen15TensorEvaluatorIKNS_20TensorCwiseNullaryOpINS_8internal18scalar_constant_opIdEEKNS_15TensorFixedSizeIdNS_5SizesIJLx7ELx66EEEELi0ExEEEENS_13DefaultDeviceEE20evalSubExprsIfNeededEPd"
 "_ZN5Eigen15TensorEvaluatorIKNS_20TensorCwiseNullaryOpINS_8internal18scalar_constant_opIdEEKNS_15TensorFixedSizeIdNS_5SizesIJLx7ELx66EEEELi0ExEEEENS_13DefaultDeviceEE7cleanupEv"
 "_ZN5Eigen15TensorEvaluatorIKNS_20TensorCwiseNullaryOpINS_8internal18scalar_constant_opIdEEKNS_15TensorFixedSizeIdNS_5SizesIJLx7ELx66EEEELi0ExEEEENS_13DefaultDeviceEEC1ERSB_RKSC_"
 "_ZN5Eigen15TensorEvaluatorIKNS_20TensorCwiseNullaryOpINS_8internal18scalar_constant_opIdEEKNS_15TensorFixedSizeIdNS_5SizesIJLx7ELx66ELx2EEEELi0ExEEEENS_13DefaultDeviceEE20evalSubExprsIfNeededEPd"
 "_ZN5Eigen15TensorEvaluatorIKNS_20TensorCwiseNullaryOpINS_8internal18scalar_constant_opIdEEKNS_15TensorFixedSizeIdNS_5SizesIJLx7ELx66ELx2EEEELi0ExEEEENS_13DefaultDeviceEE7cleanupEv"
 "_ZN5Eigen15TensorEvaluatorIKNS_20TensorCwiseNullaryOpINS_8internal18scalar_constant_opIdEEKNS_15TensorFixedSizeIdNS_5SizesIJLx7ELx66ELx2EEEELi0ExEEEENS_13DefaultDeviceEEC1ERSB_RKSC_"
 "_ZN5Eigen15TensorEvaluatorIKNS_20TensorCwiseNullaryOpINS_8internal18scalar_constant_opIdEEKNS_15TensorFixedSizeIdNS_5SizesIJLx7ELx9EEEELi0ExEEEENS_13DefaultDeviceEE20evalSubExprsIfNeededEPd"
 "_ZN5Eigen15TensorEvaluatorIKNS_20TensorCwiseNullaryOpINS_8internal18scalar_constant_opIdEEKNS_15TensorFixedSizeIdNS_5SizesIJLx7ELx9EEEELi0ExEEEENS_13DefaultDeviceEE7cleanupEv"
 "_ZN5Eigen15TensorEvaluatorIKNS_20TensorCwiseNullaryOpINS_8internal18scalar_constant_opIdEEKNS_15TensorFixedSizeIdNS_5SizesIJLx7ELx9EEEELi0ExEEEENS_13DefaultDeviceEEC1ERSB_RKSC_"
 "_ZN5Eigen15TensorEvaluatorIKNS_20TensorCwiseNullaryOpINS_8internal18scalar_constant_opIdEEKNS_15TensorFixedSizeIdNS_5SizesIJLx7ELx9ELx2EEEELi0ExEEEENS_13DefaultDeviceEE20evalSubExprsIfNeededEPd"
 "_ZN5Eigen15TensorEvaluatorIKNS_20TensorCwiseNullaryOpINS_8internal18scalar_constant_opIdEEKNS_15TensorFixedSizeIdNS_5SizesIJLx7ELx9ELx2EEEELi0ExEEEENS_13DefaultDeviceEE7cleanupEv"
 "_ZN5Eigen15TensorEvaluatorIKNS_20TensorCwiseNullaryOpINS_8internal18scalar_constant_opIdEEKNS_15TensorFixedSizeIdNS_5SizesIJLx7ELx9ELx2EEEELi0ExEEEENS_13DefaultDeviceEEC1ERSB_RKSC_"
 "_ZN5Eigen15TensorEvaluatorIKNS_20TensorCwiseNullaryOpINS_8internal18scalar_constant_opIdEEKNS_15TensorFixedSizeIdNS_5SizesIJLx81EEEELi0ExEEEENS_13DefaultDeviceEE20evalSubExprsIfNeededEPd"
 "_ZN5Eigen15TensorEvaluatorIKNS_20TensorCwiseNullaryOpINS_8internal18scalar_constant_opIdEEKNS_15TensorFixedSizeIdNS_5SizesIJLx81EEEELi0ExEEEENS_13DefaultDeviceEE7cleanupEv"
 "_ZN5Eigen15TensorEvaluatorIKNS_20TensorCwiseNullaryOpINS_8internal18scalar_constant_opIdEEKNS_15TensorFixedSizeIdNS_5SizesIJLx81EEEELi0ExEEEENS_13DefaultDeviceEEC1ERSB_RKSC_"
 "_ZN5Eigen15TensorEvaluatorIKNS_20TensorCwiseNullaryOpINS_8internal18scalar_constant_opIdEEKNS_15TensorFixedSizeIdNS_5SizesIJLx81ELx2EEEELi0ExEEEENS_13DefaultDeviceEE20evalSubExprsIfNeededEPd"
 "_ZN5Eigen15TensorEvaluatorIKNS_20TensorCwiseNullaryOpINS_8internal18scalar_constant_opIdEEKNS_15TensorFixedSizeIdNS_5SizesIJLx81ELx2EEEELi0ExEEEENS_13DefaultDeviceEE7cleanupEv"
 "_ZN5Eigen15TensorEvaluatorIKNS_20TensorCwiseNullaryOpINS_8internal18scalar_constant_opIdEEKNS_15TensorFixedSizeIdNS_5SizesIJLx81ELx2EEEELi0ExEEEENS_13DefaultDeviceEEC1ERSB_RKSC_"
 "_ZN5Eigen15TensorEvaluatorIKNS_20TensorCwiseNullaryOpINS_8internal18scalar_constant_opIdEEKNS_15TensorFixedSizeIdNS_5SizesIJLx9EEEELi0ExEEEENS_13DefaultDeviceEE20evalSubExprsIfNeededEPd"
 "_ZN5Eigen15TensorEvaluatorIKNS_20TensorCwiseNullaryOpINS_8internal18scalar_constant_opIdEEKNS_15TensorFixedSizeIdNS_5SizesIJLx9EEEELi0ExEEEENS_13DefaultDeviceEE7cleanupEv"
 "_ZN5Eigen15TensorEvaluatorIKNS_20TensorCwiseNullaryOpINS_8internal18scalar_constant_opIdEEKNS_15TensorFixedSizeIdNS_5SizesIJLx9EEEELi0ExEEEENS_13DefaultDeviceEEC1ERSB_RKSC_"
 "_ZN5Eigen15TensorEvaluatorIKNS_20TensorCwiseNullaryOpINS_8internal18scalar_constant_opIdEEKNS_15TensorFixedSizeIdNS_5SizesIJLx9ELx2EEEELi0ExEEEENS_13DefaultDeviceEE20evalSubExprsIfNeededEPd"
 "_ZN5Eigen15TensorEvaluatorIKNS_20TensorCwiseNullaryOpINS_8internal18scalar_constant_opIdEEKNS_15TensorFixedSizeIdNS_5SizesIJLx9ELx2EEEELi0ExEEEENS_13DefaultDeviceEE7cleanupEv"
 "_ZN5Eigen15TensorEvaluatorIKNS_20TensorCwiseNullaryOpINS_8internal18scalar_constant_opIdEEKNS_15TensorFixedSizeIdNS_5SizesIJLx9ELx2EEEELi0ExEEEENS_13DefaultDeviceEEC1ERSB_RKSC_"
 "_ZN5Eigen15TensorEvaluatorIKNS_20TensorCwiseNullaryOpINS_8internal18scalar_constant_opIdEEKNS_6TensorIdLi1ELi0ExEEEENS_13DefaultDeviceEE20evalSubExprsIfNeededEPd"
 "_ZN5Eigen15TensorEvaluatorIKNS_20TensorCwiseNullaryOpINS_8internal18scalar_constant_opIdEEKNS_6TensorIdLi1ELi0ExEEEENS_13DefaultDeviceEE7cleanupEv"
 "_ZN5Eigen15TensorEvaluatorIKNS_20TensorCwiseNullaryOpINS_8internal18scalar_constant_opIdEEKNS_6TensorIdLi1ELi0ExEEEENS_13DefaultDeviceEEC1ERS9_RKSA_"
 "_ZN5Eigen15TensorEvaluatorIKNS_20TensorCwiseNullaryOpINS_8internal18scalar_constant_opIdEEKNS_6TensorIdLi2ELi0ExEEEENS_13DefaultDeviceEE20evalSubExprsIfNeededEPd"
 "_ZN5Eigen15TensorEvaluatorIKNS_20TensorCwiseNullaryOpINS_8internal18scalar_constant_opIdEEKNS_6TensorIdLi2ELi0ExEEEENS_13DefaultDeviceEE7cleanupEv"
 "_ZN5Eigen15TensorEvaluatorIKNS_20TensorCwiseNullaryOpINS_8internal18scalar_constant_opIdEEKNS_6TensorIdLi2ELi0ExEEEENS_13DefaultDeviceEEC1ERS9_RKSA_"
 "_ZN5Eigen15TensorEvaluatorIKNS_20TensorCwiseNullaryOpINS_8internal18scalar_constant_opIdEEKNS_6TensorIdLi3ELi0ExEEEENS_13DefaultDeviceEE20evalSubExprsIfNeededEPd"
 "_ZN5Eigen15TensorEvaluatorIKNS_20TensorCwiseNullaryOpINS_8internal18scalar_constant_opIdEEKNS_6TensorIdLi3ELi0ExEEEENS_13DefaultDeviceEE7cleanupEv"
 "_ZN5Eigen15TensorEvaluatorIKNS_20TensorCwiseNullaryOpINS_8internal18scalar_constant_opIdEEKNS_6TensorIdLi3ELi0ExEEEENS_13DefaultDeviceEEC1ERS9_RKSA_"
 "_ZN5Eigen15TensorEvaluatorIKNS_20TensorCwiseNullaryOpINS_8internal18scalar_constant_opIdEEKNS_6TensorIdLi4ELi0ExEEEENS_13DefaultDeviceEE20evalSubExprsIfNeededEPd"
 "_ZN5Eigen15TensorEvaluatorIKNS_20TensorCwiseNullaryOpINS_8internal18scalar_constant_opIdEEKNS_6TensorIdLi4ELi0ExEEEENS_13DefaultDeviceEE7cleanupEv"
 "_ZN5Eigen15TensorEvaluatorIKNS_20TensorCwiseNullaryOpINS_8internal18scalar_constant_opIdEEKNS_6TensorIdLi4ELi0ExEEEENS_13DefaultDeviceEEC1ERS9_RKSA_"
 "_ZN5Eigen15TensorEvaluatorIKNS_20TensorCwiseNullaryOpINS_8internal18scalar_constant_opIdEEKNS_6TensorIdLi5ELi0ExEEEENS_13DefaultDeviceEE20evalSubExprsIfNeededEPd"
 "_ZN5Eigen15TensorEvaluatorIKNS_20TensorCwiseNullaryOpINS_8internal18scalar_constant_opIdEEKNS_6TensorIdLi5ELi0ExEEEENS_13DefaultDeviceEE7cleanupEv"
 "_ZN5Eigen15TensorEvaluatorIKNS_20TensorCwiseNullaryOpINS_8internal18scalar_constant_opIdEEKNS_6TensorIdLi5ELi0ExEEEENS_13DefaultDeviceEEC1ERS9_RKSA_"
 "_ZN5Eigen15TensorEvaluatorIKNS_6TensorIdLi1ELi0ExEENS_13DefaultDeviceEEC1ERS3_RKS4_"
 "_ZN5Eigen15TensorEvaluatorIKNS_6TensorIdLi2ELi0ExEENS_13DefaultDeviceEEC1ERS3_RKS4_"
 "_ZN5Eigen15TensorEvaluatorIKNS_6TensorIdLi3ELi0ExEENS_13DefaultDeviceEEC1ERS3_RKS4_"
 "_ZN5Eigen15TensorEvaluatorIKNS_6TensorIdLi4ELi0ExEENS_13DefaultDeviceEEC1ERS3_RKS4_"
 "_ZN5Eigen15TensorEvaluatorIKNS_6TensorIdLi5ELi0ExEENS_13DefaultDeviceEEC1ERS3_RKS4_"
 "_ZN5Eigen15TensorEvaluatorIKNS_9TensorMapINS_6TensorIdLi1ELi0ExEELi0ENS_11MakePointerEEENS_13DefaultDeviceEE20evalSubExprsIfNeededEPd"
 "_ZN5Eigen15TensorEvaluatorIKNS_9TensorMapINS_6TensorIdLi1ELi0ExEELi0ENS_11MakePointerEEENS_13DefaultDeviceEE7cleanupEv"
 "_ZN5Eigen15TensorEvaluatorIKNS_9TensorMapINS_6TensorIdLi1ELi0ExEELi0ENS_11MakePointerEEENS_13DefaultDeviceEEC1ERS6_RKS7_"
 "_ZN5Eigen15TensorEvaluatorIKNS_9TensorMapINS_6TensorIdLi2ELi0ExEELi0ENS_11MakePointerEEENS_13DefaultDeviceEE20evalSubExprsIfNeededEPd"
 "_ZN5Eigen15TensorEvaluatorIKNS_9TensorMapINS_6TensorIdLi2ELi0ExEELi0ENS_11MakePointerEEENS_13DefaultDeviceEE7cleanupEv"
 "_ZN5Eigen15TensorEvaluatorIKNS_9TensorMapINS_6TensorIdLi2ELi0ExEELi0ENS_11MakePointerEEENS_13DefaultDeviceEEC1ERS6_RKS7_"
 "_ZN5Eigen15TensorEvaluatorIKNS_9TensorMapINS_6TensorIdLi3ELi0ExEELi0ENS_11MakePointerEEENS_13DefaultDeviceEE20evalSubExprsIfNeededEPd"
 "_ZN5Eigen15TensorEvaluatorIKNS_9TensorMapINS_6TensorIdLi3ELi0ExEELi0ENS_11MakePointerEEENS_13DefaultDeviceEE7cleanupEv"
 "_ZN5Eigen15TensorEvaluatorIKNS_9TensorMapINS_6TensorIdLi3ELi0ExEELi0ENS_11MakePointerEEENS_13DefaultDeviceEEC1ERS6_RKS7_"
 "_ZN5Eigen15TensorEvaluatorIKNS_9TensorMapINS_6TensorIdLi4ELi0ExEELi0ENS_11MakePointerEEENS_13DefaultDeviceEE20evalSubExprsIfNeededEPd"
 "_ZN5Eigen15TensorEvaluatorIKNS_9TensorMapINS_6TensorIdLi4ELi0ExEELi0ENS_11MakePointerEEENS_13DefaultDeviceEE7cleanupEv"
 "_ZN5Eigen15TensorEvaluatorIKNS_9TensorMapINS_6TensorIdLi4ELi0ExEELi0ENS_11MakePointerEEENS_13DefaultDeviceEEC1ERS6_RKS7_"
 "_ZN5Eigen15TensorEvaluatorINS_15TensorFixedSizeIdNS_5SizesIJLx2EEEELi0ExEENS_13DefaultDeviceEE11writePacketILi16EEEvxRKDv2_d"
 "_ZN5Eigen15TensorEvaluatorINS_15TensorFixedSizeIdNS_5SizesIJLx2EEEELi0ExEENS_13DefaultDeviceEE20evalSubExprsIfNeededEPd"
 "_ZN5Eigen15TensorEvaluatorINS_15TensorFixedSizeIdNS_5SizesIJLx2EEEELi0ExEENS_13DefaultDeviceEE7cleanupEv"
 "_ZN5Eigen15TensorEvaluatorINS_15TensorFixedSizeIdNS_5SizesIJLx2EEEELi0ExEENS_13DefaultDeviceEE8coeffRefEx"
 "_ZN5Eigen15TensorEvaluatorINS_15TensorFixedSizeIdNS_5SizesIJLx2EEEELi0ExEENS_13DefaultDeviceEEC1ERKS4_RKS5_"
 "_ZN5Eigen15TensorEvaluatorINS_15TensorFixedSizeIdNS_5SizesIJLx3EEEELi0ExEENS_13DefaultDeviceEE11writePacketILi16EEEvxRKDv2_d"
 "_ZN5Eigen15TensorEvaluatorINS_15TensorFixedSizeIdNS_5SizesIJLx3EEEELi0ExEENS_13DefaultDeviceEE20evalSubExprsIfNeededEPd"
 "_ZN5Eigen15TensorEvaluatorINS_15TensorFixedSizeIdNS_5SizesIJLx3EEEELi0ExEENS_13DefaultDeviceEE7cleanupEv"
 "_ZN5Eigen15TensorEvaluatorINS_15TensorFixedSizeIdNS_5SizesIJLx3EEEELi0ExEENS_13DefaultDeviceEE8coeffRefEx"
 "_ZN5Eigen15TensorEvaluatorINS_15TensorFixedSizeIdNS_5SizesIJLx3EEEELi0ExEENS_13DefaultDeviceEEC1ERKS4_RKS5_"
 "_ZN5Eigen15TensorEvaluatorINS_15TensorFixedSizeIdNS_5SizesIJLx3ELx6ELx10ELx2EEEELi0ExEENS_13DefaultDeviceEE11writePacketILi16EEEvxRKDv2_d"
 "_ZN5Eigen15TensorEvaluatorINS_15TensorFixedSizeIdNS_5SizesIJLx3ELx6ELx10ELx2EEEELi0ExEENS_13DefaultDeviceEE20evalSubExprsIfNeededEPd"
 "_ZN5Eigen15TensorEvaluatorINS_15TensorFixedSizeIdNS_5SizesIJLx3ELx6ELx10ELx2EEEELi0ExEENS_13DefaultDeviceEE7cleanupEv"
 "_ZN5Eigen15TensorEvaluatorINS_15TensorFixedSizeIdNS_5SizesIJLx3ELx6ELx10ELx2EEEELi0ExEENS_13DefaultDeviceEE8coeffRefEx"
 "_ZN5Eigen15TensorEvaluatorINS_15TensorFixedSizeIdNS_5SizesIJLx3ELx6ELx10ELx2EEEELi0ExEENS_13DefaultDeviceEEC1ERKS4_RKS5_"
 "_ZN5Eigen15TensorEvaluatorINS_15TensorFixedSizeIdNS_5SizesIJLx3ELx7ELx2EEEELi0ExEENS_13DefaultDeviceEE11writePacketILi16EEEvxRKDv2_d"
 "_ZN5Eigen15TensorEvaluatorINS_15TensorFixedSizeIdNS_5SizesIJLx3ELx7ELx2EEEELi0ExEENS_13DefaultDeviceEE20evalSubExprsIfNeededEPd"
 "_ZN5Eigen15TensorEvaluatorINS_15TensorFixedSizeIdNS_5SizesIJLx3ELx7ELx2EEEELi0ExEENS_13DefaultDeviceEE7cleanupEv"
 "_ZN5Eigen15TensorEvaluatorINS_15TensorFixedSizeIdNS_5SizesIJLx3ELx7ELx2EEEELi0ExEENS_13DefaultDeviceEE8coeffRefEx"
 "_ZN5Eigen15TensorEvaluatorINS_15TensorFixedSizeIdNS_5SizesIJLx3ELx7ELx2EEEELi0ExEENS_13DefaultDeviceEEC1ERKS4_RKS5_"
 "_ZN5Eigen15TensorEvaluatorINS_15TensorFixedSizeIdNS_5SizesIJLx3ELx7ELx5ELx2EEEELi0ExEENS_13DefaultDeviceEE11writePacketILi16EEEvxRKDv2_d"
 "_ZN5Eigen15TensorEvaluatorINS_15TensorFixedSizeIdNS_5SizesIJLx3ELx7ELx5ELx2EEEELi0ExEENS_13DefaultDeviceEE20evalSubExprsIfNeededEPd"
 "_ZN5Eigen15TensorEvaluatorINS_15TensorFixedSizeIdNS_5SizesIJLx3ELx7ELx5ELx2EEEELi0ExEENS_13DefaultDeviceEE7cleanupEv"
 "_ZN5Eigen15TensorEvaluatorINS_15TensorFixedSizeIdNS_5SizesIJLx3ELx7ELx5ELx2EEEELi0ExEENS_13DefaultDeviceEE8coeffRefEx"
 "_ZN5Eigen15TensorEvaluatorINS_15TensorFixedSizeIdNS_5SizesIJLx3ELx7ELx5ELx2EEEELi0ExEENS_13DefaultDeviceEEC1ERKS4_RKS5_"
 "_ZN5Eigen15TensorEvaluatorINS_15TensorFixedSizeIdNS_5SizesIJLx3ELx7ELx66ELx2EEEELi0ExEENS_13DefaultDeviceEE11writePacketILi16EEEvxRKDv2_d"
 "_ZN5Eigen15TensorEvaluatorINS_15TensorFixedSizeIdNS_5SizesIJLx3ELx7ELx66ELx2EEEELi0ExEENS_13DefaultDeviceEE20evalSubExprsIfNeededEPd"
 "_ZN5Eigen15TensorEvaluatorINS_15TensorFixedSizeIdNS_5SizesIJLx3ELx7ELx66ELx2EEEELi0ExEENS_13DefaultDeviceEE7cleanupEv"
 "_ZN5Eigen15TensorEvaluatorINS_15TensorFixedSizeIdNS_5SizesIJLx3ELx7ELx66ELx2EEEELi0ExEENS_13DefaultDeviceEE8coeffRefEx"
 "_ZN5Eigen15TensorEvaluatorINS_15TensorFixedSizeIdNS_5SizesIJLx3ELx7ELx66ELx2EEEELi0ExEENS_13DefaultDeviceEEC1ERKS4_RKS5_"
 "_ZN5Eigen15TensorEvaluatorINS_15TensorFixedSizeIdNS_5SizesIJLx3ELx7ELx9ELx2EEEELi0ExEENS_13DefaultDeviceEE11writePacketILi16EEEvxRKDv2_d"
 "_ZN5Eigen15TensorEvaluatorINS_15TensorFixedSizeIdNS_5SizesIJLx3ELx7ELx9ELx2EEEELi0ExEENS_13DefaultDeviceEE20evalSubExprsIfNeededEPd"
 "_ZN5Eigen15TensorEvaluatorINS_15TensorFixedSizeIdNS_5SizesIJLx3ELx7ELx9ELx2EEEELi0ExEENS_13DefaultDeviceEE7cleanupEv"
 "_ZN5Eigen15TensorEvaluatorINS_15TensorFixedSizeIdNS_5SizesIJLx3ELx7ELx9ELx2EEEELi0ExEENS_13DefaultDeviceEE8coeffRefEx"
 "_ZN5Eigen15TensorEvaluatorINS_15TensorFixedSizeIdNS_5SizesIJLx3ELx7ELx9ELx2EEEELi0ExEENS_13DefaultDeviceEEC1ERKS4_RKS5_"
 "_ZN5Eigen15TensorEvaluatorINS_15TensorFixedSizeIdNS_5SizesIJLx4EEEELi0ExEENS_13DefaultDeviceEE11writePacketILi16EEEvxRKDv2_d"
 "_ZN5Eigen15TensorEvaluatorINS_15TensorFixedSizeIdNS_5SizesIJLx4EEEELi0ExEENS_13DefaultDeviceEE20evalSubExprsIfNeededEPd"
 "_ZN5Eigen15TensorEvaluatorINS_15TensorFixedSizeIdNS_5SizesIJLx4EEEELi0ExEENS_13DefaultDeviceEE7cleanupEv"
 "_ZN5Eigen15TensorEvaluatorINS_15TensorFixedSizeIdNS_5SizesIJLx4EEEELi0ExEENS_13DefaultDeviceEE8coeffRefEx"
 "_ZN5Eigen15TensorEvaluatorINS_15TensorFixedSizeIdNS_5SizesIJLx4EEEELi0ExEENS_13DefaultDeviceEEC1ERKS4_RKS5_"
 "_ZN5Eigen15TensorEvaluatorINS_15TensorFixedSizeIdNS_5SizesIJLx4ELx5ELx2EEEELi0ExEENS_13DefaultDeviceEE11writePacketILi16EEEvxRKDv2_d"
 "_ZN5Eigen15TensorEvaluatorINS_15TensorFixedSizeIdNS_5SizesIJLx4ELx5ELx2EEEELi0ExEENS_13DefaultDeviceEE20evalSubExprsIfNeededEPd"
 "_ZN5Eigen15TensorEvaluatorINS_15TensorFixedSizeIdNS_5SizesIJLx4ELx5ELx2EEEELi0ExEENS_13DefaultDeviceEE7cleanupEv"
 "_ZN5Eigen15TensorEvaluatorINS_15TensorFixedSizeIdNS_5SizesIJLx4ELx5ELx2EEEELi0ExEENS_13DefaultDeviceEE8coeffRefEx"
 "_ZN5Eigen15TensorEvaluatorINS_15TensorFixedSizeIdNS_5SizesIJLx4ELx5ELx2EEEELi0ExEENS_13DefaultDeviceEEC1ERKS4_RKS5_"
 "_ZN5Eigen15TensorEvaluatorINS_15TensorFixedSizeIdNS_5SizesIJLx66EEEELi0ExEENS_13DefaultDeviceEE11writePacketILi16EEEvxRKDv2_d"
 "_ZN5Eigen15TensorEvaluatorINS_15TensorFixedSizeIdNS_5SizesIJLx66EEEELi0ExEENS_13DefaultDeviceEE20evalSubExprsIfNeededEPd"
 "_ZN5Eigen15TensorEvaluatorINS_15TensorFixedSizeIdNS_5SizesIJLx66EEEELi0ExEENS_13DefaultDeviceEE7cleanupEv"
 "_ZN5Eigen15TensorEvaluatorINS_15TensorFixedSizeIdNS_5SizesIJLx66EEEELi0ExEENS_13DefaultDeviceEE8coeffRefEx"
 "_ZN5Eigen15TensorEvaluatorINS_15TensorFixedSizeIdNS_5SizesIJLx66EEEELi0ExEENS_13DefaultDeviceEEC1ERKS4_RKS5_"
 "_ZN5Eigen15TensorEvaluatorINS_15TensorFixedSizeIdNS_5SizesIJLx66ELx2EEEELi0ExEENS_13DefaultDeviceEE11writePacketILi16EEEvxRKDv2_d"
 "_ZN5Eigen15TensorEvaluatorINS_15TensorFixedSizeIdNS_5SizesIJLx66ELx2EEEELi0ExEENS_13DefaultDeviceEE20evalSubExprsIfNeededEPd"
 "_ZN5Eigen15TensorEvaluatorINS_15TensorFixedSizeIdNS_5SizesIJLx66ELx2EEEELi0ExEENS_13DefaultDeviceEE7cleanupEv"
 "_ZN5Eigen15TensorEvaluatorINS_15TensorFixedSizeIdNS_5SizesIJLx66ELx2EEEELi0ExEENS_13DefaultDeviceEE8coeffRefEx"
 "_ZN5Eigen15TensorEvaluatorINS_15TensorFixedSizeIdNS_5SizesIJLx66ELx2EEEELi0ExEENS_13DefaultDeviceEEC1ERKS4_RKS5_"
 "_ZN5Eigen15TensorEvaluatorINS_15TensorFixedSizeIdNS_5SizesIJLx6ELx4ELx10ELx2EEEELi0ExEENS_13DefaultDeviceEE11writePacketILi16EEEvxRKDv2_d"
 "_ZN5Eigen15TensorEvaluatorINS_15TensorFixedSizeIdNS_5SizesIJLx6ELx4ELx10ELx2EEEELi0ExEENS_13DefaultDeviceEE20evalSubExprsIfNeededEPd"
 "_ZN5Eigen15TensorEvaluatorINS_15TensorFixedSizeIdNS_5SizesIJLx6ELx4ELx10ELx2EEEELi0ExEENS_13DefaultDeviceEE7cleanupEv"
 "_ZN5Eigen15TensorEvaluatorINS_15TensorFixedSizeIdNS_5SizesIJLx6ELx4ELx10ELx2EEEELi0ExEENS_13DefaultDeviceEE8coeffRefEx"
 "_ZN5Eigen15TensorEvaluatorINS_15TensorFixedSizeIdNS_5SizesIJLx6ELx4ELx10ELx2EEEELi0ExEENS_13DefaultDeviceEEC1ERKS4_RKS5_"
 "_ZN5Eigen15TensorEvaluatorINS_15TensorFixedSizeIdNS_5SizesIJLx6ELx4ELx5ELx2EEEELi0ExEENS_13DefaultDeviceEE11writePacketILi16EEEvxRKDv2_d"
 "_ZN5Eigen15TensorEvaluatorINS_15TensorFixedSizeIdNS_5SizesIJLx6ELx4ELx5ELx2EEEELi0ExEENS_13DefaultDeviceEE20evalSubExprsIfNeededEPd"
 "_ZN5Eigen15TensorEvaluatorINS_15TensorFixedSizeIdNS_5SizesIJLx6ELx4ELx5ELx2EEEELi0ExEENS_13DefaultDeviceEE7cleanupEv"
 "_ZN5Eigen15TensorEvaluatorINS_15TensorFixedSizeIdNS_5SizesIJLx6ELx4ELx5ELx2EEEELi0ExEENS_13DefaultDeviceEE8coeffRefEx"
 "_ZN5Eigen15TensorEvaluatorINS_15TensorFixedSizeIdNS_5SizesIJLx6ELx4ELx5ELx2EEEELi0ExEENS_13DefaultDeviceEEC1ERKS4_RKS5_"
 "_ZN5Eigen15TensorEvaluatorINS_15TensorFixedSizeIdNS_5SizesIJLx7EEEELi0ExEENS_13DefaultDeviceEE11writePacketILi16EEEvxRKDv2_d"
 "_ZN5Eigen15TensorEvaluatorINS_15TensorFixedSizeIdNS_5SizesIJLx7EEEELi0ExEENS_13DefaultDeviceEE20evalSubExprsIfNeededEPd"
 "_ZN5Eigen15TensorEvaluatorINS_15TensorFixedSizeIdNS_5SizesIJLx7EEEELi0ExEENS_13DefaultDeviceEE7cleanupEv"
 "_ZN5Eigen15TensorEvaluatorINS_15TensorFixedSizeIdNS_5SizesIJLx7EEEELi0ExEENS_13DefaultDeviceEE8coeffRefEx"
 "_ZN5Eigen15TensorEvaluatorINS_15TensorFixedSizeIdNS_5SizesIJLx7EEEELi0ExEENS_13DefaultDeviceEEC1ERKS4_RKS5_"
 "_ZN5Eigen15TensorEvaluatorINS_15TensorFixedSizeIdNS_5SizesIJLx7ELx15ELx2EEEELi0ExEENS_13DefaultDeviceEE11writePacketILi16EEEvxRKDv2_d"
 "_ZN5Eigen15TensorEvaluatorINS_15TensorFixedSizeIdNS_5SizesIJLx7ELx15ELx2EEEELi0ExEENS_13DefaultDeviceEE20evalSubExprsIfNeededEPd"
 "_ZN5Eigen15TensorEvaluatorINS_15TensorFixedSizeIdNS_5SizesIJLx7ELx15ELx2EEEELi0ExEENS_13DefaultDeviceEE7cleanupEv"
 "_ZN5Eigen15TensorEvaluatorINS_15TensorFixedSizeIdNS_5SizesIJLx7ELx15ELx2EEEELi0ExEENS_13DefaultDeviceEE8coeffRefEx"
 "_ZN5Eigen15TensorEvaluatorINS_15TensorFixedSizeIdNS_5SizesIJLx7ELx15ELx2EEEELi0ExEENS_13DefaultDeviceEEC1ERKS4_RKS5_"
 "_ZN5Eigen15TensorEvaluatorINS_15TensorFixedSizeIdNS_5SizesIJLx7ELx2EEEELi0ExEENS_13DefaultDeviceEE11writePacketILi16EEEvxRKDv2_d"
 "_ZN5Eigen15TensorEvaluatorINS_15TensorFixedSizeIdNS_5SizesIJLx7ELx2EEEELi0ExEENS_13DefaultDeviceEE20evalSubExprsIfNeededEPd"
 "_ZN5Eigen15TensorEvaluatorINS_15TensorFixedSizeIdNS_5SizesIJLx7ELx2EEEELi0ExEENS_13DefaultDeviceEE7cleanupEv"
 "_ZN5Eigen15TensorEvaluatorINS_15TensorFixedSizeIdNS_5SizesIJLx7ELx2EEEELi0ExEENS_13DefaultDeviceEE8coeffRefEx"
 "_ZN5Eigen15TensorEvaluatorINS_15TensorFixedSizeIdNS_5SizesIJLx7ELx2EEEELi0ExEENS_13DefaultDeviceEEC1ERKS4_RKS5_"
 "_ZN5Eigen15TensorEvaluatorINS_15TensorFixedSizeIdNS_5SizesIJLx7ELx4ELx15ELx2EEEELi0ExEENS_13DefaultDeviceEE11writePacketILi16EEEvxRKDv2_d"
 "_ZN5Eigen15TensorEvaluatorINS_15TensorFixedSizeIdNS_5SizesIJLx7ELx4ELx15ELx2EEEELi0ExEENS_13DefaultDeviceEE20evalSubExprsIfNeededEPd"
 "_ZN5Eigen15TensorEvaluatorINS_15TensorFixedSizeIdNS_5SizesIJLx7ELx4ELx15ELx2EEEELi0ExEENS_13DefaultDeviceEE7cleanupEv"
 "_ZN5Eigen15TensorEvaluatorINS_15TensorFixedSizeIdNS_5SizesIJLx7ELx4ELx15ELx2EEEELi0ExEENS_13DefaultDeviceEE8coeffRefEx"
 "_ZN5Eigen15TensorEvaluatorINS_15TensorFixedSizeIdNS_5SizesIJLx7ELx4ELx15ELx2EEEELi0ExEENS_13DefaultDeviceEEC1ERKS4_RKS5_"
 "_ZN5Eigen15TensorEvaluatorINS_15TensorFixedSizeIdNS_5SizesIJLx7ELx4ELx5ELx2EEEELi0ExEENS_13DefaultDeviceEE11writePacketILi16EEEvxRKDv2_d"
 "_ZN5Eigen15TensorEvaluatorINS_15TensorFixedSizeIdNS_5SizesIJLx7ELx4ELx5ELx2EEEELi0ExEENS_13DefaultDeviceEE20evalSubExprsIfNeededEPd"
 "_ZN5Eigen15TensorEvaluatorINS_15TensorFixedSizeIdNS_5SizesIJLx7ELx4ELx5ELx2EEEELi0ExEENS_13DefaultDeviceEE7cleanupEv"
 "_ZN5Eigen15TensorEvaluatorINS_15TensorFixedSizeIdNS_5SizesIJLx7ELx4ELx5ELx2EEEELi0ExEENS_13DefaultDeviceEE8coeffRefEx"
 "_ZN5Eigen15TensorEvaluatorINS_15TensorFixedSizeIdNS_5SizesIJLx7ELx4ELx5ELx2EEEELi0ExEENS_13DefaultDeviceEEC1ERKS4_RKS5_"
 "_ZN5Eigen15TensorEvaluatorINS_15TensorFixedSizeIdNS_5SizesIJLx7ELx4ELx66ELx2EEEELi0ExEENS_13DefaultDeviceEE11writePacketILi16EEEvxRKDv2_d"
 "_ZN5Eigen15TensorEvaluatorINS_15TensorFixedSizeIdNS_5SizesIJLx7ELx4ELx66ELx2EEEELi0ExEENS_13DefaultDeviceEE20evalSubExprsIfNeededEPd"
 "_ZN5Eigen15TensorEvaluatorINS_15TensorFixedSizeIdNS_5SizesIJLx7ELx4ELx66ELx2EEEELi0ExEENS_13DefaultDeviceEE7cleanupEv"
 "_ZN5Eigen15TensorEvaluatorINS_15TensorFixedSizeIdNS_5SizesIJLx7ELx4ELx66ELx2EEEELi0ExEENS_13DefaultDeviceEE8coeffRefEx"
 "_ZN5Eigen15TensorEvaluatorINS_15TensorFixedSizeIdNS_5SizesIJLx7ELx4ELx66ELx2EEEELi0ExEENS_13DefaultDeviceEEC1ERKS4_RKS5_"
 "_ZN5Eigen15TensorEvaluatorINS_15TensorFixedSizeIdNS_5SizesIJLx7ELx66EEEELi0ExEENS_13DefaultDeviceEE11writePacketILi16EEEvxRKDv2_d"
 "_ZN5Eigen15TensorEvaluatorINS_15TensorFixedSizeIdNS_5SizesIJLx7ELx66EEEELi0ExEENS_13DefaultDeviceEE20evalSubExprsIfNeededEPd"
 "_ZN5Eigen15TensorEvaluatorINS_15TensorFixedSizeIdNS_5SizesIJLx7ELx66EEEELi0ExEENS_13DefaultDeviceEE7cleanupEv"
 "_ZN5Eigen15TensorEvaluatorINS_15TensorFixedSizeIdNS_5SizesIJLx7ELx66EEEELi0ExEENS_13DefaultDeviceEE8coeffRefEx"
 "_ZN5Eigen15TensorEvaluatorINS_15TensorFixedSizeIdNS_5SizesIJLx7ELx66EEEELi0ExEENS_13DefaultDeviceEEC1ERKS4_RKS5_"
 "_ZN5Eigen15TensorEvaluatorINS_15TensorFixedSizeIdNS_5SizesIJLx7ELx66ELx2EEEELi0ExEENS_13DefaultDeviceEE11writePacketILi16EEEvxRKDv2_d"
 "_ZN5Eigen15TensorEvaluatorINS_15TensorFixedSizeIdNS_5SizesIJLx7ELx66ELx2EEEELi0ExEENS_13DefaultDeviceEE20evalSubExprsIfNeededEPd"
 "_ZN5Eigen15TensorEvaluatorINS_15TensorFixedSizeIdNS_5SizesIJLx7ELx66ELx2EEEELi0ExEENS_13DefaultDeviceEE7cleanupEv"
 "_ZN5Eigen15TensorEvaluatorINS_15TensorFixedSizeIdNS_5SizesIJLx7ELx66ELx2EEEELi0ExEENS_13DefaultDeviceEE8coeffRefEx"
 "_ZN5Eigen15TensorEvaluatorINS_15TensorFixedSizeIdNS_5SizesIJLx7ELx66ELx2EEEELi0ExEENS_13DefaultDeviceEEC1ERKS4_RKS5_"
 "_ZN5Eigen15TensorEvaluatorINS_15TensorFixedSizeIdNS_5SizesIJLx7ELx9EEEELi0ExEENS_13DefaultDeviceEE11writePacketILi16EEEvxRKDv2_d"
 "_ZN5Eigen15TensorEvaluatorINS_15TensorFixedSizeIdNS_5SizesIJLx7ELx9EEEELi0ExEENS_13DefaultDeviceEE20evalSubExprsIfNeededEPd"
 "_ZN5Eigen15TensorEvaluatorINS_15TensorFixedSizeIdNS_5SizesIJLx7ELx9EEEELi0ExEENS_13DefaultDeviceEE7cleanupEv"
 "_ZN5Eigen15TensorEvaluatorINS_15TensorFixedSizeIdNS_5SizesIJLx7ELx9EEEELi0ExEENS_13DefaultDeviceEE8coeffRefEx"
 "_ZN5Eigen15TensorEvaluatorINS_15TensorFixedSizeIdNS_5SizesIJLx7ELx9EEEELi0ExEENS_13DefaultDeviceEEC1ERKS4_RKS5_"
 "_ZN5Eigen15TensorEvaluatorINS_15TensorFixedSizeIdNS_5SizesIJLx7ELx9ELx2EEEELi0ExEENS_13DefaultDeviceEE11writePacketILi16EEEvxRKDv2_d"
 "_ZN5Eigen15TensorEvaluatorINS_15TensorFixedSizeIdNS_5SizesIJLx7ELx9ELx2EEEELi0ExEENS_13DefaultDeviceEE20evalSubExprsIfNeededEPd"
 "_ZN5Eigen15TensorEvaluatorINS_15TensorFixedSizeIdNS_5SizesIJLx7ELx9ELx2EEEELi0ExEENS_13DefaultDeviceEE7cleanupEv"
 "_ZN5Eigen15TensorEvaluatorINS_15TensorFixedSizeIdNS_5SizesIJLx7ELx9ELx2EEEELi0ExEENS_13DefaultDeviceEE8coeffRefEx"
 "_ZN5Eigen15TensorEvaluatorINS_15TensorFixedSizeIdNS_5SizesIJLx7ELx9ELx2EEEELi0ExEENS_13DefaultDeviceEEC1ERKS4_RKS5_"
 "_ZN5Eigen15TensorEvaluatorINS_15TensorFixedSizeIdNS_5SizesIJLx81EEEELi0ExEENS_13DefaultDeviceEE11writePacketILi16EEEvxRKDv2_d"
 "_ZN5Eigen15TensorEvaluatorINS_15TensorFixedSizeIdNS_5SizesIJLx81EEEELi0ExEENS_13DefaultDeviceEE20evalSubExprsIfNeededEPd"
 "_ZN5Eigen15TensorEvaluatorINS_15TensorFixedSizeIdNS_5SizesIJLx81EEEELi0ExEENS_13DefaultDeviceEE7cleanupEv"
 "_ZN5Eigen15TensorEvaluatorINS_15TensorFixedSizeIdNS_5SizesIJLx81EEEELi0ExEENS_13DefaultDeviceEE8coeffRefEx"
 "_ZN5Eigen15TensorEvaluatorINS_15TensorFixedSizeIdNS_5SizesIJLx81EEEELi0ExEENS_13DefaultDeviceEEC1ERKS4_RKS5_"
 "_ZN5Eigen15TensorEvaluatorINS_15TensorFixedSizeIdNS_5SizesIJLx81ELx2EEEELi0ExEENS_13DefaultDeviceEE11writePacketILi16EEEvxRKDv2_d"
 "_ZN5Eigen15TensorEvaluatorINS_15TensorFixedSizeIdNS_5SizesIJLx81ELx2EEEELi0ExEENS_13DefaultDeviceEE20evalSubExprsIfNeededEPd"
 "_ZN5Eigen15TensorEvaluatorINS_15TensorFixedSizeIdNS_5SizesIJLx81ELx2EEEELi0ExEENS_13DefaultDeviceEE7cleanupEv"
 "_ZN5Eigen15TensorEvaluatorINS_15TensorFixedSizeIdNS_5SizesIJLx81ELx2EEEELi0ExEENS_13DefaultDeviceEE8coeffRefEx"
 "_ZN5Eigen15TensorEvaluatorINS_15TensorFixedSizeIdNS_5SizesIJLx81ELx2EEEELi0ExEENS_13DefaultDeviceEEC1ERKS4_RKS5_"
 "_ZN5Eigen15TensorEvaluatorINS_15TensorFixedSizeIdNS_5SizesIJLx9EEEELi0ExEENS_13DefaultDeviceEE11writePacketILi16EEEvxRKDv2_d"
 "_ZN5Eigen15TensorEvaluatorINS_15TensorFixedSizeIdNS_5SizesIJLx9EEEELi0ExEENS_13DefaultDeviceEE20evalSubExprsIfNeededEPd"
 "_ZN5Eigen15TensorEvaluatorINS_15TensorFixedSizeIdNS_5SizesIJLx9EEEELi0ExEENS_13DefaultDeviceEE7cleanupEv"
 "_ZN5Eigen15TensorEvaluatorINS_15TensorFixedSizeIdNS_5SizesIJLx9EEEELi0ExEENS_13DefaultDeviceEE8coeffRefEx"
 "_ZN5Eigen15TensorEvaluatorINS_15TensorFixedSizeIdNS_5SizesIJLx9EEEELi0ExEENS_13DefaultDeviceEEC1ERKS4_RKS5_"
 "_ZN5Eigen15TensorEvaluatorINS_15TensorFixedSizeIdNS_5SizesIJLx9ELx2EEEELi0ExEENS_13DefaultDeviceEE11writePacketILi16EEEvxRKDv2_d"
 "_ZN5Eigen15TensorEvaluatorINS_15TensorFixedSizeIdNS_5SizesIJLx9ELx2EEEELi0ExEENS_13DefaultDeviceEE20evalSubExprsIfNeededEPd"
 "_ZN5Eigen15TensorEvaluatorINS_15TensorFixedSizeIdNS_5SizesIJLx9ELx2EEEELi0ExEENS_13DefaultDeviceEE7cleanupEv"
 "_ZN5Eigen15TensorEvaluatorINS_15TensorFixedSizeIdNS_5SizesIJLx9ELx2EEEELi0ExEENS_13DefaultDeviceEE8coeffRefEx"
 "_ZN5Eigen15TensorEvaluatorINS_15TensorFixedSizeIdNS_5SizesIJLx9ELx2EEEELi0ExEENS_13DefaultDeviceEEC1ERKS4_RKS5_"
 "_ZN5Eigen15TensorEvaluatorINS_16TensorChippingOpILxn1ENS_6TensorIdLi2ELi0ExEEEENS_13DefaultDeviceEE11writePacketILi0EEEvxRKDv2_d"
 "_ZN5Eigen15TensorEvaluatorINS_16TensorChippingOpILxn1ENS_6TensorIdLi2ELi0ExEEEENS_13DefaultDeviceEE8coeffRefEx"
 "_ZN5Eigen15TensorEvaluatorINS_16TensorChippingOpILxn1ENS_6TensorIdLi2ELi0ExEEEENS_13DefaultDeviceEEC1ERKS4_RKS5_"
 "_ZN5Eigen15TensorEvaluatorINS_16TensorChippingOpILxn1ENS_6TensorIdLi3ELi0ExEEEENS_13DefaultDeviceEE11writePacketILi0EEEvxRKDv2_d"
 "_ZN5Eigen15TensorEvaluatorINS_16TensorChippingOpILxn1ENS_6TensorIdLi3ELi0ExEEEENS_13DefaultDeviceEE8coeffRefEx"
 "_ZN5Eigen15TensorEvaluatorINS_16TensorChippingOpILxn1ENS_6TensorIdLi3ELi0ExEEEENS_13DefaultDeviceEEC1ERKS4_RKS5_"
 "_ZN5Eigen15TensorEvaluatorINS_16TensorChippingOpILxn1ENS_6TensorIdLi4ELi0ExEEEENS_13DefaultDeviceEE11writePacketILi0EEEvxRKDv2_d"
 "_ZN5Eigen15TensorEvaluatorINS_16TensorChippingOpILxn1ENS_6TensorIdLi4ELi0ExEEEENS_13DefaultDeviceEE8coeffRefEx"
 "_ZN5Eigen15TensorEvaluatorINS_16TensorChippingOpILxn1ENS_6TensorIdLi4ELi0ExEEEENS_13DefaultDeviceEEC1ERKS4_RKS5_"
 "_ZN5Eigen15TensorEvaluatorINS_16TensorChippingOpILxn1ENS_6TensorIdLi5ELi0ExEEEENS_13DefaultDeviceEE11writePacketILi0EEEvxRKDv2_d"
 "_ZN5Eigen15TensorEvaluatorINS_16TensorChippingOpILxn1ENS_6TensorIdLi5ELi0ExEEEENS_13DefaultDeviceEE8coeffRefEx"
 "_ZN5Eigen15TensorEvaluatorINS_16TensorChippingOpILxn1ENS_6TensorIdLi5ELi0ExEEEENS_13DefaultDeviceEEC1ERKS4_RKS5_"
 "_ZN5Eigen15TensorEvaluatorINS_6TensorIdLi1ELi0ExEENS_13DefaultDeviceEE11writePacketILi16EEEvxRKDv2_d"
 "_ZN5Eigen15TensorEvaluatorINS_6TensorIdLi1ELi0ExEENS_13DefaultDeviceEE20evalSubExprsIfNeededEPd"
 "_ZN5Eigen15TensorEvaluatorINS_6TensorIdLi1ELi0ExEENS_13DefaultDeviceEE7cleanupEv"
 "_ZN5Eigen15TensorEvaluatorINS_6TensorIdLi1ELi0ExEENS_13DefaultDeviceEE8coeffRefEx"
 "_ZN5Eigen15TensorEvaluatorINS_6TensorIdLi1ELi0ExEENS_13DefaultDeviceEEC1ERKS2_RKS3_"
 "_ZN5Eigen15TensorEvaluatorINS_6TensorIdLi2ELi0ExEENS_13DefaultDeviceEE11writePacketILi0EEEvxRKDv2_d"
 "_ZN5Eigen15TensorEvaluatorINS_6TensorIdLi2ELi0ExEENS_13DefaultDeviceEE11writePacketILi16EEEvxRKDv2_d"
 "_ZN5Eigen15TensorEvaluatorINS_6TensorIdLi2ELi0ExEENS_13DefaultDeviceEE20evalSubExprsIfNeededEPd"
 "_ZN5Eigen15TensorEvaluatorINS_6TensorIdLi2ELi0ExEENS_13DefaultDeviceEE7cleanupEv"
 "_ZN5Eigen15TensorEvaluatorINS_6TensorIdLi2ELi0ExEENS_13DefaultDeviceEE8coeffRefEx"
 "_ZN5Eigen15TensorEvaluatorINS_6TensorIdLi2ELi0ExEENS_13DefaultDeviceEEC1ERKS2_RKS3_"
 "_ZN5Eigen15TensorEvaluatorINS_6TensorIdLi3ELi0ExEENS_13DefaultDeviceEE11writePacketILi0EEEvxRKDv2_d"
 "_ZN5Eigen15TensorEvaluatorINS_6TensorIdLi3ELi0ExEENS_13DefaultDeviceEE11writePacketILi16EEEvxRKDv2_d"
 "_ZN5Eigen15TensorEvaluatorINS_6TensorIdLi3ELi0ExEENS_13DefaultDeviceEE20evalSubExprsIfNeededEPd"
 "_ZN5Eigen15TensorEvaluatorINS_6TensorIdLi3ELi0ExEENS_13DefaultDeviceEE7cleanupEv"
 "_ZN5Eigen15TensorEvaluatorINS_6TensorIdLi3ELi0ExEENS_13DefaultDeviceEE8coeffRefEx"
 "_ZN5Eigen15TensorEvaluatorINS_6TensorIdLi3ELi0ExEENS_13DefaultDeviceEEC1ERKS2_RKS3_"
 "_ZN5Eigen15TensorEvaluatorINS_6TensorIdLi4ELi0ExEENS_13DefaultDeviceEE11writePacketILi0EEEvxRKDv2_d"
 "_ZN5Eigen15TensorEvaluatorINS_6TensorIdLi4ELi0ExEENS_13DefaultDeviceEE11writePacketILi16EEEvxRKDv2_d"
 "_ZN5Eigen15TensorEvaluatorINS_6TensorIdLi4ELi0ExEENS_13DefaultDeviceEE20evalSubExprsIfNeededEPd"
 "_ZN5Eigen15TensorEvaluatorINS_6TensorIdLi4ELi0ExEENS_13DefaultDeviceEE7cleanupEv"
 "_ZN5Eigen15TensorEvaluatorINS_6TensorIdLi4ELi0ExEENS_13DefaultDeviceEE8coeffRefEx"
 "_ZN5Eigen15TensorEvaluatorINS_6TensorIdLi4ELi0ExEENS_13DefaultDeviceEEC1ERKS2_RKS3_"
 "_ZN5Eigen15TensorEvaluatorINS_6TensorIdLi5ELi0ExEENS_13DefaultDeviceEE11writePacketILi0EEEvxRKDv2_d"
 "_ZN5Eigen15TensorEvaluatorINS_6TensorIdLi5ELi0ExEENS_13DefaultDeviceEE11writePacketILi16EEEvxRKDv2_d"
 "_ZN5Eigen15TensorEvaluatorINS_6TensorIdLi5ELi0ExEENS_13DefaultDeviceEE20evalSubExprsIfNeededEPd"
 "_ZN5Eigen15TensorEvaluatorINS_6TensorIdLi5ELi0ExEENS_13DefaultDeviceEE7cleanupEv"
 "_ZN5Eigen15TensorEvaluatorINS_6TensorIdLi5ELi0ExEENS_13DefaultDeviceEE8coeffRefEx"
 "_ZN5Eigen15TensorEvaluatorINS_6TensorIdLi5ELi0ExEENS_13DefaultDeviceEEC1ERKS2_RKS3_"
 "_ZN5Eigen15TensorFixedSizeIdNS_5SizesIJLx2EEEELi0ExE8coeffRefEx"
 "_ZN5Eigen15TensorFixedSizeIdNS_5SizesIJLx2EEEELi0ExEaSINS_20TensorCwiseNullaryOpINS_8internal18scalar_constant_opIdEEKS3_EEEERS3_RKT_"
 "_ZN5Eigen15TensorFixedSizeIdNS_5SizesIJLx2EEEELi0ExEC1Ev"
 "_ZN5Eigen15TensorFixedSizeIdNS_5SizesIJLx2EEEELi0ExEclEx"
 "_ZN5Eigen15TensorFixedSizeIdNS_5SizesIJLx3EEEELi0ExE8coeffRefEx"
 "_ZN5Eigen15TensorFixedSizeIdNS_5SizesIJLx3EEEELi0ExEaSINS_20TensorCwiseNullaryOpINS_8internal18scalar_constant_opIdEEKS3_EEEERS3_RKT_"
 "_ZN5Eigen15TensorFixedSizeIdNS_5SizesIJLx3EEEELi0ExEC1Ev"
 "_ZN5Eigen15TensorFixedSizeIdNS_5SizesIJLx3EEEELi0ExEclEx"
 "_ZN5Eigen15TensorFixedSizeIdNS_5SizesIJLx3ELx6ELx10ELx2EEEELi0ExE8coeffRefERKSt5arrayIxLy4EE"
 "_ZN5Eigen15TensorFixedSizeIdNS_5SizesIJLx3ELx6ELx10ELx2EEEELi0ExEaSERKS3_"
 "_ZN5Eigen15TensorFixedSizeIdNS_5SizesIJLx3ELx6ELx10ELx2EEEELi0ExEaSINS_20TensorCwiseNullaryOpINS_8internal18scalar_constant_opIdEEKS3_EEEERS3_RKT_"
 "_ZN5Eigen15TensorFixedSizeIdNS_5SizesIJLx3ELx6ELx10ELx2EEEELi0ExEC1EOS3_"
 "_ZN5Eigen15TensorFixedSizeIdNS_5SizesIJLx3ELx6ELx10ELx2EEEELi0ExEC1ERKS3_"
 "_ZN5Eigen15TensorFixedSizeIdNS_5SizesIJLx3ELx6ELx10ELx2EEEELi0ExEC1Ev"
 "_ZN5Eigen15TensorFixedSizeIdNS_5SizesIJLx3ELx6ELx10ELx2EEEELi0ExEC1INS_9TensorMapINS_6TensorIdLi4ELi0ExEELi0ENS_11MakePointerEEEEERKNS_10TensorBaseIT_Li1EEE"
 "_ZN5Eigen15TensorFixedSizeIdNS_5SizesIJLx3ELx6ELx10ELx2EEEELi0ExEclERKSt5arrayIxLy4EE"
 "_ZN5Eigen15TensorFixedSizeIdNS_5SizesIJLx3ELx6ELx10ELx2EEEELi0ExEclIJiiiEEERdxDpT_"
 "_ZN5Eigen15TensorFixedSizeIdNS_5SizesIJLx3ELx7ELx2EEEELi0ExE8coeffRefERKSt5arrayIxLy3EE"
 "_ZN5Eigen15TensorFixedSizeIdNS_5SizesIJLx3ELx7ELx2EEEELi0ExEaSINS_20TensorCwiseNullaryOpINS_8internal18scalar_constant_opIdEEKS3_EEEERS3_RKT_"
 "_ZN5Eigen15TensorFixedSizeIdNS_5SizesIJLx3ELx7ELx2EEEELi0ExEC1Ev"
 "_ZN5Eigen15TensorFixedSizeIdNS_5SizesIJLx3ELx7ELx2EEEELi0ExEclERKSt5arrayIxLy3EE"
 "_ZN5Eigen15TensorFixedSizeIdNS_5SizesIJLx3ELx7ELx2EEEELi0ExEclIJiiEEERdxDpT_"
 "_ZN5Eigen15TensorFixedSizeIdNS_5SizesIJLx3ELx7ELx5ELx2EEEELi0ExE8coeffRefERKSt5arrayIxLy4EE"
 "_ZN5Eigen15TensorFixedSizeIdNS_5SizesIJLx3ELx7ELx5ELx2EEEELi0ExEaSERKS3_"
 "_ZN5Eigen15TensorFixedSizeIdNS_5SizesIJLx3ELx7ELx5ELx2EEEELi0ExEaSINS_20TensorCwiseNullaryOpINS_8internal18scalar_constant_opIdEEKS3_EEEERS3_RKT_"
 "_ZN5Eigen15TensorFixedSizeIdNS_5SizesIJLx3ELx7ELx5ELx2EEEELi0ExEC1EOS3_"
 "_ZN5Eigen15TensorFixedSizeIdNS_5SizesIJLx3ELx7ELx5ELx2EEEELi0ExEC1ERKS3_"
 "_ZN5Eigen15TensorFixedSizeIdNS_5SizesIJLx3ELx7ELx5ELx2EEEELi0ExEC1Ev"
 "_ZN5Eigen15TensorFixedSizeIdNS_5SizesIJLx3ELx7ELx5ELx2EEEELi0ExEC1INS_9TensorMapINS_6TensorIdLi4ELi0ExEELi0ENS_11MakePointerEEEEERKNS_10TensorBaseIT_Li1EEE"
 "_ZN5Eigen15TensorFixedSizeIdNS_5SizesIJLx3ELx7ELx5ELx2EEEELi0ExEclERKSt5arrayIxLy4EE"
 "_ZN5Eigen15TensorFixedSizeIdNS_5SizesIJLx3ELx7ELx5ELx2EEEELi0ExEclIJiiiEEERdxDpT_"
 "_ZN5Eigen15TensorFixedSizeIdNS_5SizesIJLx3ELx7ELx66ELx2EEEELi0ExE8coeffRefERKSt5arrayIxLy4EE"
 "_ZN5Eigen15TensorFixedSizeIdNS_5SizesIJLx3ELx7ELx66ELx2EEEELi0ExEaSERKS3_"
 "_ZN5Eigen15TensorFixedSizeIdNS_5SizesIJLx3ELx7ELx66ELx2EEEELi0ExEaSINS_20TensorCwiseNullaryOpINS_8internal18scalar_constant_opIdEEKS3_EEEERS3_RKT_"
 "_ZN5Eigen15TensorFixedSizeIdNS_5SizesIJLx3ELx7ELx66ELx2EEEELi0ExEC1EOS3_"
 "_ZN5Eigen15TensorFixedSizeIdNS_5SizesIJLx3ELx7ELx66ELx2EEEELi0ExEC1ERKS3_"
 "_ZN5Eigen15TensorFixedSizeIdNS_5SizesIJLx3ELx7ELx66ELx2EEEELi0ExEC1Ev"
 "_ZN5Eigen15TensorFixedSizeIdNS_5SizesIJLx3ELx7ELx66ELx2EEEELi0ExEC1INS_9TensorMapINS_6TensorIdLi4ELi0ExEELi0ENS_11MakePointerEEEEERKNS_10TensorBaseIT_Li1EEE"
 "_ZN5Eigen15TensorFixedSizeIdNS_5SizesIJLx3ELx7ELx66ELx2EEEELi0ExEclERKSt5arrayIxLy4EE"
 "_ZN5Eigen15TensorFixedSizeIdNS_5SizesIJLx3ELx7ELx66ELx2EEEELi0ExEclIJiiiEEERdxDpT_"
 "_ZN5Eigen15TensorFixedSizeIdNS_5SizesIJLx3ELx7ELx9ELx2EEEELi0ExE8coeffRefERKSt5arrayIxLy4EE"
 "_ZN5Eigen15TensorFixedSizeIdNS_5SizesIJLx3ELx7ELx9ELx2EEEELi0ExEaSERKS3_"
 "_ZN5Eigen15TensorFixedSizeIdNS_5SizesIJLx3ELx7ELx9ELx2EEEELi0ExEaSINS_20TensorCwiseNullaryOpINS_8internal18scalar_constant_opIdEEKS3_EEEERS3_RKT_"
 "_ZN5Eigen15TensorFixedSizeIdNS_5SizesIJLx3ELx7ELx9ELx2EEEELi0ExEC1EOS3_"
 "_ZN5Eigen15TensorFixedSizeIdNS_5SizesIJLx3ELx7ELx9ELx2EEEELi0ExEC1ERKS3_"
 "_ZN5Eigen15TensorFixedSizeIdNS_5SizesIJLx3ELx7ELx9ELx2EEEELi0ExEC1Ev"
 "_ZN5Eigen15TensorFixedSizeIdNS_5SizesIJLx3ELx7ELx9ELx2EEEELi0ExEC1INS_9TensorMapINS_6TensorIdLi4ELi0ExEELi0ENS_11MakePointerEEEEERKNS_10TensorBaseIT_Li1EEE"
 "_ZN5Eigen15TensorFixedSizeIdNS_5SizesIJLx3ELx7ELx9ELx2EEEELi0ExEclERKSt5arrayIxLy4EE"
 "_ZN5Eigen15TensorFixedSizeIdNS_5SizesIJLx3ELx7ELx9ELx2EEEELi0ExEclIJiiiEEERdxDpT_"
 "_ZN5Eigen15TensorFixedSizeIdNS_5SizesIJLx4EEEELi0ExE8coeffRefEx"
 "_ZN5Eigen15TensorFixedSizeIdNS_5SizesIJLx4EEEELi0ExEaSERKS3_"
 "_ZN5Eigen15TensorFixedSizeIdNS_5SizesIJLx4EEEELi0ExEaSINS_20TensorCwiseNullaryOpINS_8internal18scalar_constant_opIdEEKS3_EEEERS3_RKT_"
 "_ZN5Eigen15TensorFixedSizeIdNS_5SizesIJLx4EEEELi0ExEC1EOS3_"
 "_ZN5Eigen15TensorFixedSizeIdNS_5SizesIJLx4EEEELi0ExEC1ERKS3_"
 "_ZN5Eigen15TensorFixedSizeIdNS_5SizesIJLx4EEEELi0ExEC1Ev"
 "_ZN5Eigen15TensorFixedSizeIdNS_5SizesIJLx4EEEELi0ExEC1INS_9TensorMapINS_6TensorIdLi1ELi0ExEELi0ENS_11MakePointerEEEEERKNS_10TensorBaseIT_Li1EEE"
 "_ZN5Eigen15TensorFixedSizeIdNS_5SizesIJLx4EEEELi0ExEclEx"
 "_ZN5Eigen15TensorFixedSizeIdNS_5SizesIJLx4ELx5ELx2EEEELi0ExE8coeffRefERKSt5arrayIxLy3EE"
 "_ZN5Eigen15TensorFixedSizeIdNS_5SizesIJLx4ELx5ELx2EEEELi0ExEaSERKS3_"
 "_ZN5Eigen15TensorFixedSizeIdNS_5SizesIJLx4ELx5ELx2EEEELi0ExEaSINS_20TensorCwiseNullaryOpINS_8internal18scalar_constant_opIdEEKS3_EEEERS3_RKT_"
 "_ZN5Eigen15TensorFixedSizeIdNS_5SizesIJLx4ELx5ELx2EEEELi0ExEC1EOS3_"
 "_ZN5Eigen15TensorFixedSizeIdNS_5SizesIJLx4ELx5ELx2EEEELi0ExEC1ERKS3_"
 "_ZN5Eigen15TensorFixedSizeIdNS_5SizesIJLx4ELx5ELx2EEEELi0ExEC1Ev"
 "_ZN5Eigen15TensorFixedSizeIdNS_5SizesIJLx4ELx5ELx2EEEELi0ExEC1INS_9TensorMapINS_6TensorIdLi3ELi0ExEELi0ENS_11MakePointerEEEEERKNS_10TensorBaseIT_Li1EEE"
 "_ZN5Eigen15TensorFixedSizeIdNS_5SizesIJLx4ELx5ELx2EEEELi0ExEclERKSt5arrayIxLy3EE"
 "_ZN5Eigen15TensorFixedSizeIdNS_5SizesIJLx4ELx5ELx2EEEELi0ExEclIJiiEEERdxDpT_"
 "_ZN5Eigen15TensorFixedSizeIdNS_5SizesIJLx66EEEELi0ExE8coeffRefEx"
 "_ZN5Eigen15TensorFixedSizeIdNS_5SizesIJLx66EEEELi0ExEaSINS_20TensorCwiseNullaryOpINS_8internal18scalar_constant_opIdEEKS3_EEEERS3_RKT_"
 "_ZN5Eigen15TensorFixedSizeIdNS_5SizesIJLx66EEEELi0ExEC1Ev"
 "_ZN5Eigen15TensorFixedSizeIdNS_5SizesIJLx66EEEELi0ExEclEx"
 "_ZN5Eigen15TensorFixedSizeIdNS_5SizesIJLx66ELx2EEEELi0ExE8coeffRefERKSt5arrayIxLy2EE"
 "_ZN5Eigen15TensorFixedSizeIdNS_5SizesIJLx66ELx2EEEELi0ExEaSINS_20TensorCwiseNullaryOpINS_8internal18scalar_constant_opIdEEKS3_EEEERS3_RKT_"
 "_ZN5Eigen15TensorFixedSizeIdNS_5SizesIJLx66ELx2EEEELi0ExEC1Ev"
 "_ZN5Eigen15TensorFixedSizeIdNS_5SizesIJLx66ELx2EEEELi0ExEclERKSt5arrayIxLy2EE"
 "_ZN5Eigen15TensorFixedSizeIdNS_5SizesIJLx66ELx2EEEELi0ExEclIJiEEERdxDpT_"
 "_ZN5Eigen15TensorFixedSizeIdNS_5SizesIJLx6ELx4ELx10ELx2EEEELi0ExE8coeffRefERKSt5arrayIxLy4EE"
 "_ZN5Eigen15TensorFixedSizeIdNS_5SizesIJLx6ELx4ELx10ELx2EEEELi0ExEaSERKS3_"
 "_ZN5Eigen15TensorFixedSizeIdNS_5SizesIJLx6ELx4ELx10ELx2EEEELi0ExEaSINS_20TensorCwiseNullaryOpINS_8internal18scalar_constant_opIdEEKS3_EEEERS3_RKT_"
 "_ZN5Eigen15TensorFixedSizeIdNS_5SizesIJLx6ELx4ELx10ELx2EEEELi0ExEC1EOS3_"
 "_ZN5Eigen15TensorFixedSizeIdNS_5SizesIJLx6ELx4ELx10ELx2EEEELi0ExEC1ERKS3_"
 "_ZN5Eigen15TensorFixedSizeIdNS_5SizesIJLx6ELx4ELx10ELx2EEEELi0ExEC1Ev"
 "_ZN5Eigen15TensorFixedSizeIdNS_5SizesIJLx6ELx4ELx10ELx2EEEELi0ExEC1INS_9TensorMapINS_6TensorIdLi4ELi0ExEELi0ENS_11MakePointerEEEEERKNS_10TensorBaseIT_Li1EEE"
 "_ZN5Eigen15TensorFixedSizeIdNS_5SizesIJLx6ELx4ELx10ELx2EEEELi0ExEclERKSt5arrayIxLy4EE"
 "_ZN5Eigen15TensorFixedSizeIdNS_5SizesIJLx6ELx4ELx10ELx2EEEELi0ExEclIJiiiEEERdxDpT_"
 "_ZN5Eigen15TensorFixedSizeIdNS_5SizesIJLx6ELx4ELx5ELx2EEEELi0ExE8coeffRefERKSt5arrayIxLy4EE"
 "_ZN5Eigen15TensorFixedSizeIdNS_5SizesIJLx6ELx4ELx5ELx2EEEELi0ExEaSERKS3_"
 "_ZN5Eigen15TensorFixedSizeIdNS_5SizesIJLx6ELx4ELx5ELx2EEEELi0ExEaSINS_20TensorCwiseNullaryOpINS_8internal18scalar_constant_opIdEEKS3_EEEERS3_RKT_"
 "_ZN5Eigen15TensorFixedSizeIdNS_5SizesIJLx6ELx4ELx5ELx2EEEELi0ExEC1EOS3_"
 "_ZN5Eigen15TensorFixedSizeIdNS_5SizesIJLx6ELx4ELx5ELx2EEEELi0ExEC1ERKS3_"
 "_ZN5Eigen15TensorFixedSizeIdNS_5SizesIJLx6ELx4ELx5ELx2EEEELi0ExEC1Ev"
 "_ZN5Eigen15TensorFixedSizeIdNS_5SizesIJLx6ELx4ELx5ELx2EEEELi0ExEC1INS_9TensorMapINS_6TensorIdLi4ELi0ExEELi0ENS_11MakePointerEEEEERKNS_10TensorBaseIT_Li1EEE"
 "_ZN5Eigen15TensorFixedSizeIdNS_5SizesIJLx6ELx4ELx5ELx2EEEELi0ExEclERKSt5arrayIxLy4EE"
 "_ZN5Eigen15TensorFixedSizeIdNS_5SizesIJLx6ELx4ELx5ELx2EEEELi0ExEclIJddiEEERdxDpT_"
 "_ZN5Eigen15TensorFixedSizeIdNS_5SizesIJLx6ELx4ELx5ELx2EEEELi0ExEclIJiiiEEERdxDpT_"
 "_ZN5Eigen15TensorFixedSizeIdNS_5SizesIJLx7EEEELi0ExE8coeffRefEx"
 "_ZN5Eigen15TensorFixedSizeIdNS_5SizesIJLx7EEEELi0ExEaSINS_20TensorCwiseNullaryOpINS_8internal18scalar_constant_opIdEEKS3_EEEERS3_RKT_"
 "_ZN5Eigen15TensorFixedSizeIdNS_5SizesIJLx7EEEELi0ExEC1Ev"
 "_ZN5Eigen15TensorFixedSizeIdNS_5SizesIJLx7EEEELi0ExEclEx"
 "_ZN5Eigen15TensorFixedSizeIdNS_5SizesIJLx7ELx15ELx2EEEELi0ExE8coeffRefERKSt5arrayIxLy3EE"
 "_ZN5Eigen15TensorFixedSizeIdNS_5SizesIJLx7ELx15ELx2EEEELi0ExEaSINS_20TensorCwiseNullaryOpINS_8internal18scalar_constant_opIdEEKS3_EEEERS3_RKT_"
 "_ZN5Eigen15TensorFixedSizeIdNS_5SizesIJLx7ELx15ELx2EEEELi0ExEC1Ev"
 "_ZN5Eigen15TensorFixedSizeIdNS_5SizesIJLx7ELx15ELx2EEEELi0ExEclERKSt5arrayIxLy3EE"
 "_ZN5Eigen15TensorFixedSizeIdNS_5SizesIJLx7ELx15ELx2EEEELi0ExEclIJiiEEERdxDpT_"
 "_ZN5Eigen15TensorFixedSizeIdNS_5SizesIJLx7ELx2EEEELi0ExE8coeffRefERKSt5arrayIxLy2EE"
 "_ZN5Eigen15TensorFixedSizeIdNS_5SizesIJLx7ELx2EEEELi0ExEaSINS_20TensorCwiseNullaryOpINS_8internal18scalar_constant_opIdEEKS3_EEEERS3_RKT_"
 "_ZN5Eigen15TensorFixedSizeIdNS_5SizesIJLx7ELx2EEEELi0ExEC1Ev"
 "_ZN5Eigen15TensorFixedSizeIdNS_5SizesIJLx7ELx2EEEELi0ExEclERKSt5arrayIxLy2EE"
 "_ZN5Eigen15TensorFixedSizeIdNS_5SizesIJLx7ELx2EEEELi0ExEclIJiEEERdxDpT_"
 "_ZN5Eigen15TensorFixedSizeIdNS_5SizesIJLx7ELx4ELx15ELx2EEEELi0ExE8coeffRefERKSt5arrayIxLy4EE"
 "_ZN5Eigen15TensorFixedSizeIdNS_5SizesIJLx7ELx4ELx15ELx2EEEELi0ExEaSERKS3_"
 "_ZN5Eigen15TensorFixedSizeIdNS_5SizesIJLx7ELx4ELx15ELx2EEEELi0ExEaSINS_20TensorCwiseNullaryOpINS_8internal18scalar_constant_opIdEEKS3_EEEERS3_RKT_"
 "_ZN5Eigen15TensorFixedSizeIdNS_5SizesIJLx7ELx4ELx15ELx2EEEELi0ExEC1EOS3_"
 "_ZN5Eigen15TensorFixedSizeIdNS_5SizesIJLx7ELx4ELx15ELx2EEEELi0ExEC1ERKS3_"
 "_ZN5Eigen15TensorFixedSizeIdNS_5SizesIJLx7ELx4ELx15ELx2EEEELi0ExEC1Ev"
 "_ZN5Eigen15TensorFixedSizeIdNS_5SizesIJLx7ELx4ELx15ELx2EEEELi0ExEC1INS_9TensorMapINS_6TensorIdLi4ELi0ExEELi0ENS_11MakePointerEEEEERKNS_10TensorBaseIT_Li1EEE"
 "_ZN5Eigen15TensorFixedSizeIdNS_5SizesIJLx7ELx4ELx15ELx2EEEELi0ExEclERKSt5arrayIxLy4EE"
 "_ZN5Eigen15TensorFixedSizeIdNS_5SizesIJLx7ELx4ELx15ELx2EEEELi0ExEclIJiiiEEERdxDpT_"
 "_ZN5Eigen15TensorFixedSizeIdNS_5SizesIJLx7ELx4ELx5ELx2EEEELi0ExE8coeffRefERKSt5arrayIxLy4EE"
 "_ZN5Eigen15TensorFixedSizeIdNS_5SizesIJLx7ELx4ELx5ELx2EEEELi0ExEaSERKS3_"
 "_ZN5Eigen15TensorFixedSizeIdNS_5SizesIJLx7ELx4ELx5ELx2EEEELi0ExEaSINS_20TensorCwiseNullaryOpINS_8internal18scalar_constant_opIdEEKS3_EEEERS3_RKT_"
 "_ZN5Eigen15TensorFixedSizeIdNS_5SizesIJLx7ELx4ELx5ELx2EEEELi0ExEC1EOS3_"
 "_ZN5Eigen15TensorFixedSizeIdNS_5SizesIJLx7ELx4ELx5ELx2EEEELi0ExEC1ERKS3_"
 "_ZN5Eigen15TensorFixedSizeIdNS_5SizesIJLx7ELx4ELx5ELx2EEEELi0ExEC1Ev"
 "_ZN5Eigen15TensorFixedSizeIdNS_5SizesIJLx7ELx4ELx5ELx2EEEELi0ExEC1INS_9TensorMapINS_6TensorIdLi4ELi0ExEELi0ENS_11MakePointerEEEEERKNS_10TensorBaseIT_Li1EEE"
 "_ZN5Eigen15TensorFixedSizeIdNS_5SizesIJLx7ELx4ELx5ELx2EEEELi0ExEclERKSt5arrayIxLy4EE"
 "_ZN5Eigen15TensorFixedSizeIdNS_5SizesIJLx7ELx4ELx5ELx2EEEELi0ExEclIJiiiEEERdxDpT_"
 "_ZN5Eigen15TensorFixedSizeIdNS_5SizesIJLx7ELx4ELx66ELx2EEEELi0ExE8coeffRefERKSt5arrayIxLy4EE"
 "_ZN5Eigen15TensorFixedSizeIdNS_5SizesIJLx7ELx4ELx66ELx2EEEELi0ExEaSINS_20TensorCwiseNullaryOpINS_8internal18scalar_constant_opIdEEKS3_EEEERS3_RKT_"
 "_ZN5Eigen15TensorFixedSizeIdNS_5SizesIJLx7ELx4ELx66ELx2EEEELi0ExEC1Ev"
 "_ZN5Eigen15TensorFixedSizeIdNS_5SizesIJLx7ELx4ELx66ELx2EEEELi0ExEclERKSt5arrayIxLy4EE"
 "_ZN5Eigen15TensorFixedSizeIdNS_5SizesIJLx7ELx4ELx66ELx2EEEELi0ExEclIJiiiEEERdxDpT_"
 "_ZN5Eigen15TensorFixedSizeIdNS_5SizesIJLx7ELx66EEEELi0ExE8coeffRefERKSt5arrayIxLy2EE"
 "_ZN5Eigen15TensorFixedSizeIdNS_5SizesIJLx7ELx66EEEELi0ExEaSINS_20TensorCwiseNullaryOpINS_8internal18scalar_constant_opIdEEKS3_EEEERS3_RKT_"
 "_ZN5Eigen15TensorFixedSizeIdNS_5SizesIJLx7ELx66EEEELi0ExEC1Ev"
 "_ZN5Eigen15TensorFixedSizeIdNS_5SizesIJLx7ELx66EEEELi0ExEclERKSt5arrayIxLy2EE"
 "_ZN5Eigen15TensorFixedSizeIdNS_5SizesIJLx7ELx66EEEELi0ExEclIJiEEERdxDpT_"
 "_ZN5Eigen15TensorFixedSizeIdNS_5SizesIJLx7ELx66ELx2EEEELi0ExE8coeffRefERKSt5arrayIxLy3EE"
 "_ZN5Eigen15TensorFixedSizeIdNS_5SizesIJLx7ELx66ELx2EEEELi0ExEaSERKS3_"
 "_ZN5Eigen15TensorFixedSizeIdNS_5SizesIJLx7ELx66ELx2EEEELi0ExEaSINS_20TensorCwiseNullaryOpINS_8internal18scalar_constant_opIdEEKS3_EEEERS3_RKT_"
 "_ZN5Eigen15TensorFixedSizeIdNS_5SizesIJLx7ELx66ELx2EEEELi0ExEC1EOS3_"
 "_ZN5Eigen15TensorFixedSizeIdNS_5SizesIJLx7ELx66ELx2EEEELi0ExEC1ERKS3_"
 "_ZN5Eigen15TensorFixedSizeIdNS_5SizesIJLx7ELx66ELx2EEEELi0ExEC1Ev"
 "_ZN5Eigen15TensorFixedSizeIdNS_5SizesIJLx7ELx66ELx2EEEELi0ExEC1INS_9TensorMapINS_6TensorIdLi3ELi0ExEELi0ENS_11MakePointerEEEEERKNS_10TensorBaseIT_Li1EEE"
 "_ZN5Eigen15TensorFixedSizeIdNS_5SizesIJLx7ELx66ELx2EEEELi0ExEclERKSt5arrayIxLy3EE"
 "_ZN5Eigen15TensorFixedSizeIdNS_5SizesIJLx7ELx66ELx2EEEELi0ExEclIJiiEEERdxDpT_"
 "_ZN5Eigen15TensorFixedSizeIdNS_5SizesIJLx7ELx9EEEELi0ExE8coeffRefERKSt5arrayIxLy2EE"
 "_ZN5Eigen15TensorFixedSizeIdNS_5SizesIJLx7ELx9EEEELi0ExEaSINS_20TensorCwiseNullaryOpINS_8internal18scalar_constant_opIdEEKS3_EEEERS3_RKT_"
 "_ZN5Eigen15TensorFixedSizeIdNS_5SizesIJLx7ELx9EEEELi0ExEC1Ev"
 "_ZN5Eigen15TensorFixedSizeIdNS_5SizesIJLx7ELx9EEEELi0ExEclERKSt5arrayIxLy2EE"
 "_ZN5Eigen15TensorFixedSizeIdNS_5SizesIJLx7ELx9EEEELi0ExEclIJiEEERdxDpT_"
 "_ZN5Eigen15TensorFixedSizeIdNS_5SizesIJLx7ELx9ELx2EEEELi0ExE8coeffRefERKSt5arrayIxLy3EE"
 "_ZN5Eigen15TensorFixedSizeIdNS_5SizesIJLx7ELx9ELx2EEEELi0ExEaSERKS3_"
 "_ZN5Eigen15TensorFixedSizeIdNS_5SizesIJLx7ELx9ELx2EEEELi0ExEaSINS_20TensorCwiseNullaryOpINS_8internal18scalar_constant_opIdEEKS3_EEEERS3_RKT_"
 "_ZN5Eigen15TensorFixedSizeIdNS_5SizesIJLx7ELx9ELx2EEEELi0ExEC1EOS3_"
 "_ZN5Eigen15TensorFixedSizeIdNS_5SizesIJLx7ELx9ELx2EEEELi0ExEC1ERKS3_"
 "_ZN5Eigen15TensorFixedSizeIdNS_5SizesIJLx7ELx9ELx2EEEELi0ExEC1Ev"
 "_ZN5Eigen15TensorFixedSizeIdNS_5SizesIJLx7ELx9ELx2EEEELi0ExEC1INS_9TensorMapINS_6TensorIdLi3ELi0ExEELi0ENS_11MakePointerEEEEERKNS_10TensorBaseIT_Li1EEE"
 "_ZN5Eigen15TensorFixedSizeIdNS_5SizesIJLx7ELx9ELx2EEEELi0ExEclERKSt5arrayIxLy3EE"
 "_ZN5Eigen15TensorFixedSizeIdNS_5SizesIJLx7ELx9ELx2EEEELi0ExEclIJiiEEERdxDpT_"
 "_ZN5Eigen15TensorFixedSizeIdNS_5SizesIJLx81EEEELi0ExE8coeffRefEx"
 "_ZN5Eigen15TensorFixedSizeIdNS_5SizesIJLx81EEEELi0ExEaSINS_20TensorCwiseNullaryOpINS_8internal18scalar_constant_opIdEEKS3_EEEERS3_RKT_"
 "_ZN5Eigen15TensorFixedSizeIdNS_5SizesIJLx81EEEELi0ExEC1Ev"
 "_ZN5Eigen15TensorFixedSizeIdNS_5SizesIJLx81EEEELi0ExEclEx"
 "_ZN5Eigen15TensorFixedSizeIdNS_5SizesIJLx81ELx2EEEELi0ExE8coeffRefERKSt5arrayIxLy2EE"
 "_ZN5Eigen15TensorFixedSizeIdNS_5SizesIJLx81ELx2EEEELi0ExEaSERKS3_"
 "_ZN5Eigen15TensorFixedSizeIdNS_5SizesIJLx81ELx2EEEELi0ExEaSINS_20TensorCwiseNullaryOpINS_8internal18scalar_constant_opIdEEKS3_EEEERS3_RKT_"
 "_ZN5Eigen15TensorFixedSizeIdNS_5SizesIJLx81ELx2EEEELi0ExEaSINS_9TensorMapINS_6TensorIdLi2ELi0ExEELi0ENS_11MakePointerEEEEERS3_RKT_"
 "_ZN5Eigen15TensorFixedSizeIdNS_5SizesIJLx81ELx2EEEELi0ExEC1EOS3_"
 "_ZN5Eigen15TensorFixedSizeIdNS_5SizesIJLx81ELx2EEEELi0ExEC1ERKS3_"
 "_ZN5Eigen15TensorFixedSizeIdNS_5SizesIJLx81ELx2EEEELi0ExEC1Ev"
 "_ZN5Eigen15TensorFixedSizeIdNS_5SizesIJLx81ELx2EEEELi0ExEC1INS_9TensorMapINS_6TensorIdLi2ELi0ExEELi0ENS_11MakePointerEEEEERKNS_10TensorBaseIT_Li1EEE"
 "_ZN5Eigen15TensorFixedSizeIdNS_5SizesIJLx81ELx2EEEELi0ExEclERKSt5arrayIxLy2EE"
 "_ZN5Eigen15TensorFixedSizeIdNS_5SizesIJLx81ELx2EEEELi0ExEclIJiEEERdxDpT_"
 "_ZN5Eigen15TensorFixedSizeIdNS_5SizesIJLx9EEEELi0ExE8coeffRefEx"
 "_ZN5Eigen15TensorFixedSizeIdNS_5SizesIJLx9EEEELi0ExEaSINS_20TensorCwiseNullaryOpINS_8internal18scalar_constant_opIdEEKS3_EEEERS3_RKT_"
 "_ZN5Eigen15TensorFixedSizeIdNS_5SizesIJLx9EEEELi0ExEC1Ev"
 "_ZN5Eigen15TensorFixedSizeIdNS_5SizesIJLx9EEEELi0ExEclEx"
 "_ZN5Eigen15TensorFixedSizeIdNS_5SizesIJLx9ELx2EEEELi0ExE8coeffRefERKSt5arrayIxLy2EE"
 "_ZN5Eigen15TensorFixedSizeIdNS_5SizesIJLx9ELx2EEEELi0ExEaSINS_20TensorCwiseNullaryOpINS_8internal18scalar_constant_opIdEEKS3_EEEERS3_RKT_"
 "_ZN5Eigen15TensorFixedSizeIdNS_5SizesIJLx9ELx2EEEELi0ExEC1Ev"
 "_ZN5Eigen15TensorFixedSizeIdNS_5SizesIJLx9ELx2EEEELi0ExEclERKSt5arrayIxLy2EE"
 "_ZN5Eigen15TensorFixedSizeIdNS_5SizesIJLx9ELx2EEEELi0ExEclIJiEEERdxDpT_"
 "_ZN5Eigen16dimensions_matchIKNS_5SizesIJLx2EEEES3_EEbRT_RT0_"
 "_ZN5Eigen16dimensions_matchIKNS_5SizesIJLx3EEEES3_EEbRT_RT0_"
 "_ZN5Eigen16dimensions_matchIKNS_5SizesIJLx3ELx6ELx10ELx2EEEEKNS_6DSizesIxLi4EEEEEbRT_RT0_"
 "_ZN5Eigen16dimensions_matchIKNS_5SizesIJLx3ELx6ELx10ELx2EEEES3_EEbRT_RT0_"
 "_ZN5Eigen16dimensions_matchIKNS_5SizesIJLx3ELx7ELx2EEEES3_EEbRT_RT0_"
 "_ZN5Eigen16dimensions_matchIKNS_5SizesIJLx3ELx7ELx5ELx2EEEEKNS_6DSizesIxLi4EEEEEbRT_RT0_"
 "_ZN5Eigen16dimensions_matchIKNS_5SizesIJLx3ELx7ELx5ELx2EEEES3_EEbRT_RT0_"
 "_ZN5Eigen16dimensions_matchIKNS_5SizesIJLx3ELx7ELx66ELx2EEEEKNS_6DSizesIxLi4EEEEEbRT_RT0_"
 "_ZN5Eigen16dimensions_matchIKNS_5SizesIJLx3ELx7ELx66ELx2EEEES3_EEbRT_RT0_"
 "_ZN5Eigen16dimensions_matchIKNS_5SizesIJLx3ELx7ELx9ELx2EEEEKNS_6DSizesIxLi4EEEEEbRT_RT0_"
 "_ZN5Eigen16dimensions_matchIKNS_5SizesIJLx3ELx7ELx9ELx2EEEES3_EEbRT_RT0_"
 "_ZN5Eigen16dimensions_matchIKNS_5SizesIJLx4EEEEKNS_6DSizesIxLi1EEEEEbRT_RT0_"
 "_ZN5Eigen16dimensions_matchIKNS_5SizesIJLx4EEEES3_EEbRT_RT0_"
 "_ZN5Eigen16dimensions_matchIKNS_5SizesIJLx4ELx5ELx2EEEEKNS_6DSizesIxLi3EEEEEbRT_RT0_"
 "_ZN5Eigen16dimensions_matchIKNS_5SizesIJLx4ELx5ELx2EEEES3_EEbRT_RT0_"
 "_ZN5Eigen16dimensions_matchIKNS_5SizesIJLx66EEEES3_EEbRT_RT0_"
 "_ZN5Eigen16dimensions_matchIKNS_5SizesIJLx66ELx2EEEES3_EEbRT_RT0_"
 "_ZN5Eigen16dimensions_matchIKNS_5SizesIJLx6ELx4ELx10ELx2EEEEKNS_6DSizesIxLi4EEEEEbRT_RT0_"
 "_ZN5Eigen16dimensions_matchIKNS_5SizesIJLx6ELx4ELx10ELx2EEEES3_EEbRT_RT0_"
 "_ZN5Eigen16dimensions_matchIKNS_5SizesIJLx6ELx4ELx5ELx2EEEEKNS_6DSizesIxLi4EEEEEbRT_RT0_"
 "_ZN5Eigen16dimensions_matchIKNS_5SizesIJLx6ELx4ELx5ELx2EEEES3_EEbRT_RT0_"
 "_ZN5Eigen16dimensions_matchIKNS_5SizesIJLx7EEEES3_EEbRT_RT0_"
 "_ZN5Eigen16dimensions_matchIKNS_5SizesIJLx7ELx15ELx2EEEES3_EEbRT_RT0_"
 "_ZN5Eigen16dimensions_matchIKNS_5SizesIJLx7ELx2EEEES3_EEbRT_RT0_"
 "_ZN5Eigen16dimensions_matchIKNS_5SizesIJLx7ELx4ELx15ELx2EEEEKNS_6DSizesIxLi4EEEEEbRT_RT0_"
 "_ZN5Eigen16dimensions_matchIKNS_5SizesIJLx7ELx4ELx15ELx2EEEES3_EEbRT_RT0_"
 "_ZN5Eigen16dimensions_matchIKNS_5SizesIJLx7ELx4ELx5ELx2EEEEKNS_6DSizesIxLi4EEEEEbRT_RT0_"
 "_ZN5Eigen16dimensions_matchIKNS_5SizesIJLx7ELx4ELx5ELx2EEEES3_EEbRT_RT0_"
 "_ZN5Eigen16dimensions_matchIKNS_5SizesIJLx7ELx4ELx66ELx2EEEES3_EEbRT_RT0_"
 "_ZN5Eigen16dimensions_matchIKNS_5SizesIJLx7ELx66EEEES3_EEbRT_RT0_"
 "_ZN5Eigen16dimensions_matchIKNS_5SizesIJLx7ELx66ELx2EEEEKNS_6DSizesIxLi3EEEEEbRT_RT0_"
 "_ZN5Eigen16dimensions_matchIKNS_5SizesIJLx7ELx66ELx2EEEES3_EEbRT_RT0_"
 "_ZN5Eigen16dimensions_matchIKNS_5SizesIJLx7ELx9EEEES3_EEbRT_RT0_"
 "_ZN5Eigen16dimensions_matchIKNS_5SizesIJLx7ELx9ELx2EEEEKNS_6DSizesIxLi3EEEEEbRT_RT0_"
 "_ZN5Eigen16dimensions_matchIKNS_5SizesIJLx7ELx9ELx2EEEES3_EEbRT_RT0_"
 "_ZN5Eigen16dimensions_matchIKNS_5SizesIJLx81EEEES3_EEbRT_RT0_"
 "_ZN5Eigen16dimensions_matchIKNS_5SizesIJLx81ELx2EEEEKNS_6DSizesIxLi2EEEEEbRT_RT0_"
 "_ZN5Eigen16dimensions_matchIKNS_5SizesIJLx81ELx2EEEES3_EEbRT_RT0_"
 "_ZN5Eigen16dimensions_matchIKNS_5SizesIJLx9EEEES3_EEbRT_RT0_"
 "_ZN5Eigen16dimensions_matchIKNS_5SizesIJLx9ELx2EEEES3_EEbRT_RT0_"
 "_ZN5Eigen16dimensions_matchIKNS_6DSizesIxLi1EEEKNS_5SizesIJLx4EEEEEEbRT_RT0_"
 "_ZN5Eigen16dimensions_matchIKNS_6DSizesIxLi1EEES3_EEbRT_RT0_"
 "_ZN5Eigen16dimensions_matchIKNS_6DSizesIxLi2EEEKNS_5SizesIJLx81ELx2EEEEEEbRT_RT0_"
 "_ZN5Eigen16dimensions_matchIKNS_6DSizesIxLi2EEES3_EEbRT_RT0_"
 "_ZN5Eigen16dimensions_matchIKNS_6DSizesIxLi3EEEKNS_5SizesIJLx4ELx5ELx2EEEEEEbRT_RT0_"
 "_ZN5Eigen16dimensions_matchIKNS_6DSizesIxLi3EEEKNS_5SizesIJLx7ELx66ELx2EEEEEEbRT_RT0_"
 "_ZN5Eigen16dimensions_matchIKNS_6DSizesIxLi3EEEKNS_5SizesIJLx7ELx9ELx2EEEEEEbRT_RT0_"
 "_ZN5Eigen16dimensions_matchIKNS_6DSizesIxLi3EEES3_EEbRT_RT0_"
 "_ZN5Eigen16dimensions_matchIKNS_6DSizesIxLi4EEEKNS_5SizesIJLx3ELx6ELx10ELx2EEEEEEbRT_RT0_"
 "_ZN5Eigen16dimensions_matchIKNS_6DSizesIxLi4EEEKNS_5SizesIJLx3ELx7ELx5ELx2EEEEEEbRT_RT0_"
 "_ZN5Eigen16dimensions_matchIKNS_6DSizesIxLi4EEEKNS_5SizesIJLx3ELx7ELx66ELx2EEEEEEbRT_RT0_"
 "_ZN5Eigen16dimensions_matchIKNS_6DSizesIxLi4EEEKNS_5SizesIJLx3ELx7ELx9ELx2EEEEEEbRT_RT0_"
 "_ZN5Eigen16dimensions_matchIKNS_6DSizesIxLi4EEEKNS_5SizesIJLx6ELx4ELx10ELx2EEEEEEbRT_RT0_"
 "_ZN5Eigen16dimensions_matchIKNS_6DSizesIxLi4EEEKNS_5SizesIJLx6ELx4ELx5ELx2EEEEEEbRT_RT0_"
 "_ZN5Eigen16dimensions_matchIKNS_6DSizesIxLi4EEEKNS_5SizesIJLx7ELx4ELx15ELx2EEEEEEbRT_RT0_"
 "_ZN5Eigen16dimensions_matchIKNS_6DSizesIxLi4EEEKNS_5SizesIJLx7ELx4ELx5ELx2EEEEEEbRT_RT0_"
 "_ZN5Eigen16dimensions_matchIKNS_6DSizesIxLi4EEES3_EEbRT_RT0_"
 "_ZN5Eigen16dimensions_matchIKNS_6DSizesIxLi5EEES3_EEbRT_RT0_"
 "_ZN5Eigen16TensorChippingOpILxn1ENS_6TensorIdLi2ELi0ExEEEaSINS_15TensorFixedSizeIdNS_5SizesIJLx4EEEELi0ExEEEERS3_RKT_"
 "_ZN5Eigen16TensorChippingOpILxn1ENS_6TensorIdLi2ELi0ExEEEC1ERKS2_xx"
 "_ZN5Eigen16TensorChippingOpILxn1ENS_6TensorIdLi3ELi0ExEEEaSINS_15TensorFixedSizeIdNS_5SizesIJLx81ELx2EEEELi0ExEEEERS3_RKT_"
 "_ZN5Eigen16TensorChippingOpILxn1ENS_6TensorIdLi3ELi0ExEEEC1ERKS2_xx"
 "_ZN5Eigen16TensorChippingOpILxn1ENS_6TensorIdLi4ELi0ExEEEaSINS_15TensorFixedSizeIdNS_5SizesIJLx4ELx5ELx2EEEELi0ExEEEERS3_RKT_"
 "_ZN5Eigen16TensorChippingOpILxn1ENS_6TensorIdLi4ELi0ExEEEaSINS_15TensorFixedSizeIdNS_5SizesIJLx7ELx66ELx2EEEELi0ExEEEERS3_RKT_"
 "_ZN5Eigen16TensorChippingOpILxn1ENS_6TensorIdLi4ELi0ExEEEaSINS_15TensorFixedSizeIdNS_5SizesIJLx7ELx9ELx2EEEELi0ExEEEERS3_RKT_"
 "_ZN5Eigen16TensorChippingOpILxn1ENS_6TensorIdLi4ELi0ExEEEC1ERKS2_xx"
 "_ZN5Eigen16TensorChippingOpILxn1ENS_6TensorIdLi5ELi0ExEEEaSINS_15TensorFixedSizeIdNS_5SizesIJLx3ELx6ELx10ELx2EEEELi0ExEEEERS3_RKT_"
 "_ZN5Eigen16TensorChippingOpILxn1ENS_6TensorIdLi5ELi0ExEEEaSINS_15TensorFixedSizeIdNS_5SizesIJLx3ELx7ELx5ELx2EEEELi0ExEEEERS3_RKT_"
 "_ZN5Eigen16TensorChippingOpILxn1ENS_6TensorIdLi5ELi0ExEEEaSINS_15TensorFixedSizeIdNS_5SizesIJLx3ELx7ELx66ELx2EEEELi0ExEEEERS3_RKT_"
 "_ZN5Eigen16TensorChippingOpILxn1ENS_6TensorIdLi5ELi0ExEEEaSINS_15TensorFixedSizeIdNS_5SizesIJLx3ELx7ELx9ELx2EEEELi0ExEEEERS3_RKT_"
 "_ZN5Eigen16TensorChippingOpILxn1ENS_6TensorIdLi5ELi0ExEEEaSINS_15TensorFixedSizeIdNS_5SizesIJLx6ELx4ELx10ELx2EEEELi0ExEEEERS3_RKT_"
 "_ZN5Eigen16TensorChippingOpILxn1ENS_6TensorIdLi5ELi0ExEEEaSINS_15TensorFixedSizeIdNS_5SizesIJLx6ELx4ELx5ELx2EEEELi0ExEEEERS3_RKT_"
 "_ZN5Eigen16TensorChippingOpILxn1ENS_6TensorIdLi5ELi0ExEEEaSINS_15TensorFixedSizeIdNS_5SizesIJLx7ELx4ELx15ELx2EEEELi0ExEEEERS3_RKT_"
 "_ZN5Eigen16TensorChippingOpILxn1ENS_6TensorIdLi5ELi0ExEEEaSINS_15TensorFixedSizeIdNS_5SizesIJLx7ELx4ELx5ELx2EEEELi0ExEEEERS3_RKT_"
 "_ZN5Eigen16TensorChippingOpILxn1ENS_6TensorIdLi5ELi0ExEEEC1ERKS2_xx"
 "_ZN5Eigen20TensorCwiseNullaryOpINS_8internal18scalar_constant_opIdEEKNS_15TensorFixedSizeIdNS_5SizesIJLx2EEEELi0ExEEEC1ERS8_RKS3_"
 "_ZN5Eigen20TensorCwiseNullaryOpINS_8internal18scalar_constant_opIdEEKNS_15TensorFixedSizeIdNS_5SizesIJLx3EEEELi0ExEEEC1ERS8_RKS3_"
 "_ZN5Eigen20TensorCwiseNullaryOpINS_8internal18scalar_constant_opIdEEKNS_15TensorFixedSizeIdNS_5SizesIJLx3ELx6ELx10ELx2EEEELi0ExEEEC1ERS8_RKS3_"
 "_ZN5Eigen20TensorCwiseNullaryOpINS_8internal18scalar_constant_opIdEEKNS_15TensorFixedSizeIdNS_5SizesIJLx3ELx7ELx2EEEELi0ExEEEC1ERS8_RKS3_"
 "_ZN5Eigen20TensorCwiseNullaryOpINS_8internal18scalar_constant_opIdEEKNS_15TensorFixedSizeIdNS_5SizesIJLx3ELx7ELx5ELx2EEEELi0ExEEEC1ERS8_RKS3_"
 "_ZN5Eigen20TensorCwiseNullaryOpINS_8internal18scalar_constant_opIdEEKNS_15TensorFixedSizeIdNS_5SizesIJLx3ELx7ELx66ELx2EEEELi0ExEEEC1ERS8_RKS3_"
 "_ZN5Eigen20TensorCwiseNullaryOpINS_8internal18scalar_constant_opIdEEKNS_15TensorFixedSizeIdNS_5SizesIJLx3ELx7ELx9ELx2EEEELi0ExEEEC1ERS8_RKS3_"
 "_ZN5Eigen20TensorCwiseNullaryOpINS_8internal18scalar_constant_opIdEEKNS_15TensorFixedSizeIdNS_5SizesIJLx4EEEELi0ExEEEC1ERS8_RKS3_"
 "_ZN5Eigen20TensorCwiseNullaryOpINS_8internal18scalar_constant_opIdEEKNS_15TensorFixedSizeIdNS_5SizesIJLx4ELx5ELx2EEEELi0ExEEEC1ERS8_RKS3_"
 "_ZN5Eigen20TensorCwiseNullaryOpINS_8internal18scalar_constant_opIdEEKNS_15TensorFixedSizeIdNS_5SizesIJLx66EEEELi0ExEEEC1ERS8_RKS3_"
 "_ZN5Eigen20TensorCwiseNullaryOpINS_8internal18scalar_constant_opIdEEKNS_15TensorFixedSizeIdNS_5SizesIJLx66ELx2EEEELi0ExEEEC1ERS8_RKS3_"
 "_ZN5Eigen20TensorCwiseNullaryOpINS_8internal18scalar_constant_opIdEEKNS_15TensorFixedSizeIdNS_5SizesIJLx6ELx4ELx10ELx2EEEELi0ExEEEC1ERS8_RKS3_"
 "_ZN5Eigen20TensorCwiseNullaryOpINS_8internal18scalar_constant_opIdEEKNS_15TensorFixedSizeIdNS_5SizesIJLx6ELx4ELx5ELx2EEEELi0ExEEEC1ERS8_RKS3_"
 "_ZN5Eigen20TensorCwiseNullaryOpINS_8internal18scalar_constant_opIdEEKNS_15TensorFixedSizeIdNS_5SizesIJLx7EEEELi0ExEEEC1ERS8_RKS3_"
 "_ZN5Eigen20TensorCwiseNullaryOpINS_8internal18scalar_constant_opIdEEKNS_15TensorFixedSizeIdNS_5SizesIJLx7ELx15ELx2EEEELi0ExEEEC1ERS8_RKS3_"
 "_ZN5Eigen20TensorCwiseNullaryOpINS_8internal18scalar_constant_opIdEEKNS_15TensorFixedSizeIdNS_5SizesIJLx7ELx2EEEELi0ExEEEC1ERS8_RKS3_"
 "_ZN5Eigen20TensorCwiseNullaryOpINS_8internal18scalar_constant_opIdEEKNS_15TensorFixedSizeIdNS_5SizesIJLx7ELx4ELx15ELx2EEEELi0ExEEEC1ERS8_RKS3_"
 "_ZN5Eigen20TensorCwiseNullaryOpINS_8internal18scalar_constant_opIdEEKNS_15TensorFixedSizeIdNS_5SizesIJLx7ELx4ELx5ELx2EEEELi0ExEEEC1ERS8_RKS3_"
 "_ZN5Eigen20TensorCwiseNullaryOpINS_8internal18scalar_constant_opIdEEKNS_15TensorFixedSizeIdNS_5SizesIJLx7ELx4ELx66ELx2EEEELi0ExEEEC1ERS8_RKS3_"
 "_ZN5Eigen20TensorCwiseNullaryOpINS_8internal18scalar_constant_opIdEEKNS_15TensorFixedSizeIdNS_5SizesIJLx7ELx66EEEELi0ExEEEC1ERS8_RKS3_"
 "_ZN5Eigen20TensorCwiseNullaryOpINS_8internal18scalar_constant_opIdEEKNS_15TensorFixedSizeIdNS_5SizesIJLx7ELx66ELx2EEEELi0ExEEEC1ERS8_RKS3_"
 "_ZN5Eigen20TensorCwiseNullaryOpINS_8internal18scalar_constant_opIdEEKNS_15TensorFixedSizeIdNS_5SizesIJLx7ELx9EEEELi0ExEEEC1ERS8_RKS3_"
 "_ZN5Eigen20TensorCwiseNullaryOpINS_8internal18scalar_constant_opIdEEKNS_15TensorFixedSizeIdNS_5SizesIJLx7ELx9ELx2EEEELi0ExEEEC1ERS8_RKS3_"
 "_ZN5Eigen20TensorCwiseNullaryOpINS_8internal18scalar_constant_opIdEEKNS_15TensorFixedSizeIdNS_5SizesIJLx81EEEELi0ExEEEC1ERS8_RKS3_"
 "_ZN5Eigen20TensorCwiseNullaryOpINS_8internal18scalar_constant_opIdEEKNS_15TensorFixedSizeIdNS_5SizesIJLx81ELx2EEEELi0ExEEEC1ERS8_RKS3_"
 "_ZN5Eigen20TensorCwiseNullaryOpINS_8internal18scalar_constant_opIdEEKNS_15TensorFixedSizeIdNS_5SizesIJLx9EEEELi0ExEEEC1ERS8_RKS3_"
 "_ZN5Eigen20TensorCwiseNullaryOpINS_8internal18scalar_constant_opIdEEKNS_15TensorFixedSizeIdNS_5SizesIJLx9ELx2EEEELi0ExEEEC1ERS8_RKS3_"
 "_ZN5Eigen20TensorCwiseNullaryOpINS_8internal18scalar_constant_opIdEEKNS_6TensorIdLi1ELi0ExEEEC1ERS6_RKS3_"
 "_ZN5Eigen20TensorCwiseNullaryOpINS_8internal18scalar_constant_opIdEEKNS_6TensorIdLi2ELi0ExEEEC1ERS6_RKS3_"
 "_ZN5Eigen20TensorCwiseNullaryOpINS_8internal18scalar_constant_opIdEEKNS_6TensorIdLi3ELi0ExEEEC1ERS6_RKS3_"
 "_ZN5Eigen20TensorCwiseNullaryOpINS_8internal18scalar_constant_opIdEEKNS_6TensorIdLi4ELi0ExEEEC1ERS6_RKS3_"
 "_ZN5Eigen20TensorCwiseNullaryOpINS_8internal18scalar_constant_opIdEEKNS_6TensorIdLi5ELi0ExEEEC1ERS6_RKS3_"
 "_ZN5Eigen5SizesIJLx2EEE9TotalSizeEv"
 "_ZN5Eigen5SizesIJLx2EEEC1Ev"
 "_ZN5Eigen5SizesIJLx3EEE9TotalSizeEv"
 "_ZN5Eigen5SizesIJLx3EEEC1Ev"
 "_ZN5Eigen5SizesIJLx3ELx6ELx10ELx2EEE9TotalSizeEv"
 "_ZN5Eigen5SizesIJLx3ELx6ELx10ELx2EEEC1Ev"
 "_ZN5Eigen5SizesIJLx3ELx7ELx2EEE9TotalSizeEv"
 "_ZN5Eigen5SizesIJLx3ELx7ELx2EEEC1Ev"
 "_ZN5Eigen5SizesIJLx3ELx7ELx5ELx2EEE9TotalSizeEv"
 "_ZN5Eigen5SizesIJLx3ELx7ELx5ELx2EEEC1Ev"
 "_ZN5Eigen5SizesIJLx3ELx7ELx66ELx2EEE9TotalSizeEv"
 "_ZN5Eigen5SizesIJLx3ELx7ELx66ELx2EEEC1Ev"
 "_ZN5Eigen5SizesIJLx3ELx7ELx9ELx2EEE9TotalSizeEv"
 "_ZN5Eigen5SizesIJLx3ELx7ELx9ELx2EEEC1Ev"
 "_ZN5Eigen5SizesIJLx4EEE9TotalSizeEv"
 "_ZN5Eigen5SizesIJLx4EEEC1Ev"
 "_ZN5Eigen5SizesIJLx4ELx5ELx2EEE9TotalSizeEv"
 "_ZN5Eigen5SizesIJLx4ELx5ELx2EEEC1Ev"
 "_ZN5Eigen5SizesIJLx66EEE9TotalSizeEv"
 "_ZN5Eigen5SizesIJLx66EEEC1Ev"
 "_ZN5Eigen5SizesIJLx66ELx2EEE9TotalSizeEv"
 "_ZN5Eigen5SizesIJLx66ELx2EEEC1Ev"
 "_ZN5Eigen5SizesIJLx6ELx4ELx10ELx2EEE9TotalSizeEv"
 "_ZN5Eigen5SizesIJLx6ELx4ELx10ELx2EEEC1Ev"
 "_ZN5Eigen5SizesIJLx6ELx4ELx5ELx2EEE9TotalSizeEv"
 "_ZN5Eigen5SizesIJLx6ELx4ELx5ELx2EEEC1Ev"
 "_ZN5Eigen5SizesIJLx7EEE9TotalSizeEv"
 "_ZN5Eigen5SizesIJLx7EEEC1Ev"
 "_ZN5Eigen5SizesIJLx7ELx15ELx2EEE9TotalSizeEv"
 "_ZN5Eigen5SizesIJLx7ELx15ELx2EEEC1Ev"
 "_ZN5Eigen5SizesIJLx7ELx2EEE9TotalSizeEv"
 "_ZN5Eigen5SizesIJLx7ELx2EEEC1Ev"
 "_ZN5Eigen5SizesIJLx7ELx4ELx15ELx2EEE9TotalSizeEv"
 "_ZN5Eigen5SizesIJLx7ELx4ELx15ELx2EEEC1Ev"
 "_ZN5Eigen5SizesIJLx7ELx4ELx5ELx2EEE9TotalSizeEv"
 "_ZN5Eigen5SizesIJLx7ELx4ELx5ELx2EEEC1Ev"
 "_ZN5Eigen5SizesIJLx7ELx4ELx66ELx2EEE9TotalSizeEv"
 "_ZN5Eigen5SizesIJLx7ELx4ELx66ELx2EEEC1Ev"
 "_ZN5Eigen5SizesIJLx7ELx66EEE9TotalSizeEv"
 "_ZN5Eigen5SizesIJLx7ELx66EEEC1Ev"
 "_ZN5Eigen5SizesIJLx7ELx66ELx2EEE9TotalSizeEv"
 "_ZN5Eigen5SizesIJLx7ELx66ELx2EEEC1Ev"
 "_ZN5Eigen5SizesIJLx7ELx9EEE9TotalSizeEv"
 "_ZN5Eigen5SizesIJLx7ELx9EEEC1Ev"
 "_ZN5Eigen5SizesIJLx7ELx9ELx2EEE9TotalSizeEv"
 "_ZN5Eigen5SizesIJLx7ELx9ELx2EEEC1Ev"
 "_ZN5Eigen5SizesIJLx81EEE9TotalSizeEv"
 "_ZN5Eigen5SizesIJLx81EEEC1Ev"
 "_ZN5Eigen5SizesIJLx81ELx2EEE9TotalSizeEv"
 "_ZN5Eigen5SizesIJLx81ELx2EEEC1Ev"
 "_ZN5Eigen5SizesIJLx9EEE9TotalSizeEv"
 "_ZN5Eigen5SizesIJLx9EEEC1Ev"
 "_ZN5Eigen5SizesIJLx9ELx2EEE9TotalSizeEv"
 "_ZN5Eigen5SizesIJLx9ELx2EEEC1Ev"
 "_ZN5Eigen6DSizesIxLi1EEaSERKSt5arrayIxLy1EE"
 "_ZN5Eigen6DSizesIxLi1EEC1Ev"
 "_ZN5Eigen6DSizesIxLi1EEC1Ex"
 "_ZN5Eigen6DSizesIxLi2EEaSERKSt5arrayIxLy2EE"
 "_ZN5Eigen6DSizesIxLi2EEC1Ev"
 "_ZN5Eigen6DSizesIxLi2EEC1IJEEExxDpT_"
 "_ZN5Eigen6DSizesIxLi3EEaSERKSt5arrayIxLy3EE"
 "_ZN5Eigen6DSizesIxLi3EEC1Ev"
 "_ZN5Eigen6DSizesIxLi3EEC1IJiEEExxDpT_"
 "_ZN5Eigen6DSizesIxLi4EEaSERKSt5arrayIxLy4EE"
 "_ZN5Eigen6DSizesIxLi4EEC1Ev"
 "_ZN5Eigen6DSizesIxLi4EEC1IJiiEEExxDpT_"
 "_ZN5Eigen6DSizesIxLi5EEaSERKSt5arrayIxLy5EE"
 "_ZN5Eigen6DSizesIxLi5EEC1IJiiiEEExxDpT_"
 "_ZN5Eigen6TensorIdLi1ELi0ExE6resizeERKNS_6DSizesIxLi1EEE"
 "_ZN5Eigen6TensorIdLi1ELi0ExE6resizeERKSt5arrayIxLy1EE"
 "_ZN5Eigen6TensorIdLi1ELi0ExE6resizeISt5arrayIxLy1EELi0EEEvRT_"
 "_ZN5Eigen6TensorIdLi1ELi0ExE8coeffRefEx"
 "_ZN5Eigen6TensorIdLi1ELi0ExEaSINS_20TensorCwiseNullaryOpINS_8internal18scalar_constant_opIdEEKS1_EEEERS1_RKT_"
 "_ZN5Eigen6TensorIdLi1ELi0ExEC1ERKS1_"
 "_ZN5Eigen6TensorIdLi1ELi0ExEC1IJEEExDpT_"
 "_ZN5Eigen6TensorIdLi1ELi0ExEclEx"
 "_ZN5Eigen6TensorIdLi1ELi0ExED1Ev"
 "_ZN5Eigen6TensorIdLi2ELi0ExE6resizeERKNS_6DSizesIxLi2EEE"
 "_ZN5Eigen6TensorIdLi2ELi0ExE6resizeERKSt5arrayIxLy2EE"
 "_ZN5Eigen6TensorIdLi2ELi0ExE6resizeISt5arrayIxLy2EELi0EEEvRT_"
 "_ZN5Eigen6TensorIdLi2ELi0ExEaSINS_20TensorCwiseNullaryOpINS_8internal18scalar_constant_opIdEEKS1_EEEERS1_RKT_"
 "_ZN5Eigen6TensorIdLi2ELi0ExEC1ERKS1_"
 "_ZN5Eigen6TensorIdLi2ELi0ExEC1IJiEEExDpT_"
 "_ZN5Eigen6TensorIdLi2ELi0ExED1Ev"
 "_ZN5Eigen6TensorIdLi3ELi0ExE6resizeERKNS_6DSizesIxLi3EEE"
 "_ZN5Eigen6TensorIdLi3ELi0ExE6resizeERKSt5arrayIxLy3EE"
 "_ZN5Eigen6TensorIdLi3ELi0ExE6resizeISt5arrayIxLy3EELi0EEEvRT_"
 "_ZN5Eigen6TensorIdLi3ELi0ExEaSINS_20TensorCwiseNullaryOpINS_8internal18scalar_constant_opIdEEKS1_EEEERS1_RKT_"
 "_ZN5Eigen6TensorIdLi3ELi0ExEC1ERKS1_"
 "_ZN5Eigen6TensorIdLi3ELi0ExEC1IJiiEEExDpT_"
 "_ZN5Eigen6TensorIdLi3ELi0ExED1Ev"
 "_ZN5Eigen6TensorIdLi4ELi0ExE6resizeERKNS_6DSizesIxLi4EEE"
 "_ZN5Eigen6TensorIdLi4ELi0ExE6resizeERKSt5arrayIxLy4EE"
 "_ZN5Eigen6TensorIdLi4ELi0ExE6resizeISt5arrayIxLy4EELi0EEEvRT_"
 "_ZN5Eigen6TensorIdLi4ELi0ExEaSINS_20TensorCwiseNullaryOpINS_8internal18scalar_constant_opIdEEKS1_EEEERS1_RKT_"
 "_ZN5Eigen6TensorIdLi4ELi0ExEC1ERKS1_"
 "_ZN5Eigen6TensorIdLi4ELi0ExEC1IJiiiEEExDpT_"
 "_ZN5Eigen6TensorIdLi4ELi0ExED1Ev"
 "_ZN5Eigen6TensorIdLi5ELi0ExE6resizeERKNS_6DSizesIxLi5EEE"
 "_ZN5Eigen6TensorIdLi5ELi0ExE6resizeERKSt5arrayIxLy5EE"
 "_ZN5Eigen6TensorIdLi5ELi0ExE6resizeISt5arrayIxLy5EELi0EEEvRT_"
 "_ZN5Eigen6TensorIdLi5ELi0ExEaSINS_20TensorCwiseNullaryOpINS_8internal18scalar_constant_opIdEEKS1_EEEERS1_RKT_"
 "_ZN5Eigen6TensorIdLi5ELi0ExEC1ERKS1_"
 "_ZN5Eigen6TensorIdLi5ELi0ExEC1IJiiiiEEExDpT_"
 "_ZN5Eigen6TensorIdLi5ELi0ExED1Ev"
 "_ZN5Eigen8internal10array_prodIJLx2EEEExRKNS_5SizesIJXspT_EEEE"
 "_ZN5Eigen8internal10array_prodIJLx3EEEExRKNS_5SizesIJXspT_EEEE"
 "_ZN5Eigen8internal10array_prodIJLx3ELx6ELx10ELx2EEEExRKNS_5SizesIJXspT_EEEE"
 "_ZN5Eigen8internal10array_prodIJLx3ELx7ELx2EEEExRKNS_5SizesIJXspT_EEEE"
 "_ZN5Eigen8internal10array_prodIJLx3ELx7ELx5ELx2EEEExRKNS_5SizesIJXspT_EEEE"
 "_ZN5Eigen8internal10array_prodIJLx3ELx7ELx66ELx2EEEExRKNS_5SizesIJXspT_EEEE"
 "_ZN5Eigen8internal10array_prodIJLx3ELx7ELx9ELx2EEEExRKNS_5SizesIJXspT_EEEE"
 "_ZN5Eigen8internal10array_prodIJLx4EEEExRKNS_5SizesIJXspT_EEEE"
 "_ZN5Eigen8internal10array_prodIJLx4ELx5ELx2EEEExRKNS_5SizesIJXspT_EEEE"
 "_ZN5Eigen8internal10array_prodIJLx66EEEExRKNS_5SizesIJXspT_EEEE"
 "_ZN5Eigen8internal10array_prodIJLx66ELx2EEEExRKNS_5SizesIJXspT_EEEE"
 "_ZN5Eigen8internal10array_prodIJLx6ELx4ELx10ELx2EEEExRKNS_5SizesIJXspT_EEEE"
 "_ZN5Eigen8internal10array_prodIJLx6ELx4ELx5ELx2EEEExRKNS_5SizesIJXspT_EEEE"
 "_ZN5Eigen8internal10array_prodIJLx7EEEExRKNS_5SizesIJXspT_EEEE"
 "_ZN5Eigen8internal10array_prodIJLx7ELx15ELx2EEEExRKNS_5SizesIJXspT_EEEE"
 "_ZN5Eigen8internal10array_prodIJLx7ELx2EEEExRKNS_5SizesIJXspT_EEEE"
 "_ZN5Eigen8internal10array_prodIJLx7ELx4ELx15ELx2EEEExRKNS_5SizesIJXspT_EEEE"
 "_ZN5Eigen8internal10array_prodIJLx7ELx4ELx5ELx2EEEExRKNS_5SizesIJXspT_EEEE"
 "_ZN5Eigen8internal10array_prodIJLx7ELx4ELx66ELx2EEEExRKNS_5SizesIJXspT_EEEE"
 "_ZN5Eigen8internal10array_prodIJLx7ELx66EEEExRKNS_5SizesIJXspT_EEEE"
 "_ZN5Eigen8internal10array_prodIJLx7ELx66ELx2EEEExRKNS_5SizesIJXspT_EEEE"
 "_ZN5Eigen8internal10array_prodIJLx7ELx9EEEExRKNS_5SizesIJXspT_EEEE"
 "_ZN5Eigen8internal10array_prodIJLx7ELx9ELx2EEEExRKNS_5SizesIJXspT_EEEE"
 "_ZN5Eigen8internal10array_prodIJLx81EEEExRKNS_5SizesIJXspT_EEEE"
 "_ZN5Eigen8internal10array_prodIJLx81ELx2EEEExRKNS_5SizesIJXspT_EEEE"
 "_ZN5Eigen8internal10array_prodIJLx9EEEExRKNS_5SizesIJXspT_EEEE"
 "_ZN5Eigen8internal10array_prodIJLx9ELx2EEEExRKNS_5SizesIJXspT_EEEE"
 "_ZN5Eigen8internal10array_prodIxLy1EEEDTcl12array_reduceINS0_10product_opET_XT0_EEfp_scS3_Li1EEERKSt5arrayIS3_XT0_EE"
 "_ZN5Eigen8internal10array_prodIxLy2EEEDTcl12array_reduceINS0_10product_opET_XT0_EEfp_scS3_Li1EEERKSt5arrayIS3_XT0_EE"
 "_ZN5Eigen8internal10array_prodIxLy3EEEDTcl12array_reduceINS0_10product_opET_XT0_EEfp_scS3_Li1EEERKSt5arrayIS3_XT0_EE"
 "_ZN5Eigen8internal10array_prodIxLy4EEEDTcl12array_reduceINS0_10product_opET_XT0_EEfp_scS3_Li1EEERKSt5arrayIS3_XT0_EE"
 "_ZN5Eigen8internal10array_prodIxLy5EEEDTcl12array_reduceINS0_10product_opET_XT0_EEfp_scS3_Li1EEERKSt5arrayIS3_XT0_EE"
 "_ZN5Eigen8internal10product_op3runIxxEEDTmlfp_fp0_ET_T0_"
 "_ZN5Eigen8internal10smart_copyIdEEvPKT_S4_PS2_"
 "_ZN5Eigen8internal11DimensionIdILxn1EEC1Ex"
 "_ZN5Eigen8internal12aligned_freeEPv"
 "_ZN5Eigen8internal12array_reduceINS0_10product_opExLy1EEEDTclsrNS0_14h_array_reduceIT_T0_XT1_EXmiT1_Li1EEEE3runfp_fp0_EERKSt5arrayIS5_XT1_EES5_"
 "_ZN5Eigen8internal12array_reduceINS0_10product_opExLy2EEEDTclsrNS0_14h_array_reduceIT_T0_XT1_EXmiT1_Li1EEEE3runfp_fp0_EERKSt5arrayIS5_XT1_EES5_"
 "_ZN5Eigen8internal12array_reduceINS0_10product_opExLy3EEEDTclsrNS0_14h_array_reduceIT_T0_XT1_EXmiT1_Li1EEEE3runfp_fp0_EERKSt5arrayIS5_XT1_EES5_"
 "_ZN5Eigen8internal12array_reduceINS0_10product_opExLy4EEEDTclsrNS0_14h_array_reduceIT_T0_XT1_EXmiT1_Li1EEEE3runfp_fp0_EERKSt5arrayIS5_XT1_EES5_"
 "_ZN5Eigen8internal12array_reduceINS0_10product_opExLy5EEEDTclsrNS0_14h_array_reduceIT_T0_XT1_EXmiT1_Li1EEEE3runfp_fp0_EERKSt5arrayIS5_XT1_EES5_"
 "_ZN5Eigen8internal14aligned_mallocEy"
 "_ZN5Eigen8internal14h_array_reduceINS0_10product_opExLy1ELy0EE3runERKSt5arrayIxLy1EEx"
 "_ZN5Eigen8internal14h_array_reduceINS0_10product_opExLy2ELy0EE3runERKSt5arrayIxLy2EEx"
 "_ZN5Eigen8internal14h_array_reduceINS0_10product_opExLy2ELy1EE3runESt5arrayIxLy2EEx"
 "_ZN5Eigen8internal14h_array_reduceINS0_10product_opExLy3ELy0EE3runERKSt5arrayIxLy3EEx"
 "_ZN5Eigen8internal14h_array_reduceINS0_10product_opExLy3ELy1EE3runESt5arrayIxLy3EEx"
 "_ZN5Eigen8internal14h_array_reduceINS0_10product_opExLy3ELy2EE3runESt5arrayIxLy3EEx"
 "_ZN5Eigen8internal14h_array_reduceINS0_10product_opExLy4ELy0EE3runERKSt5arrayIxLy4EEx"
 "_ZN5Eigen8internal14h_array_reduceINS0_10product_opExLy4ELy1EE3runESt5arrayIxLy4EEx"
 "_ZN5Eigen8internal14h_array_reduceINS0_10product_opExLy4ELy2EE3runESt5arrayIxLy4EEx"
 "_ZN5Eigen8internal14h_array_reduceINS0_10product_opExLy4ELy3EE3runESt5arrayIxLy4EEx"
 "_ZN5Eigen8internal14h_array_reduceINS0_10product_opExLy5ELy0EE3runERKSt5arrayIxLy5EEx"
 "_ZN5Eigen8internal14h_array_reduceINS0_10product_opExLy5ELy1EE3runESt5arrayIxLy5EEx"
 "_ZN5Eigen8internal14h_array_reduceINS0_10product_opExLy5ELy2EE3runESt5arrayIxLy5EEx"
 "_ZN5Eigen8internal14h_array_reduceINS0_10product_opExLy5ELy3EE3runESt5arrayIxLy5EEx"
 "_ZN5Eigen8internal14h_array_reduceINS0_10product_opExLy5ELy4EE3runESt5arrayIxLy5EEx"
 "_ZN5Eigen8internal14TensorExecutorIKNS_14TensorAssignOpINS_15TensorFixedSizeIdNS_5SizesIJLx2EEEELi0ExEEKNS_20TensorCwiseNullaryOpINS0_18scalar_constant_opIdEEKS6_EEEENS_13DefaultDeviceELb1EE3runERSE_RKSF_"
 "_ZN5Eigen8internal14TensorExecutorIKNS_14TensorAssignOpINS_15TensorFixedSizeIdNS_5SizesIJLx3EEEELi0ExEEKNS_20TensorCwiseNullaryOpINS0_18scalar_constant_opIdEEKS6_EEEENS_13DefaultDeviceELb1EE3runERSE_RKSF_"
 "_ZN5Eigen8internal14TensorExecutorIKNS_14TensorAssignOpINS_15TensorFixedSizeIdNS_5SizesIJLx3ELx6ELx10ELx2EEEELi0ExEEKNS_20TensorCwiseNullaryOpINS0_18scalar_constant_opIdEEKS6_EEEENS_13DefaultDeviceELb1EE3runERSE_RKSF_"
 "_ZN5Eigen8internal14TensorExecutorIKNS_14TensorAssignOpINS_15TensorFixedSizeIdNS_5SizesIJLx3ELx6ELx10ELx2EEEELi0ExEEKNS_9TensorMapINS_6TensorIdLi4ELi0ExEELi0ENS_11MakePointerEEEEENS_13DefaultDeviceELb1EE3runERSE_RKSF_"
 "_ZN5Eigen8internal14TensorExecutorIKNS_14TensorAssignOpINS_15TensorFixedSizeIdNS_5SizesIJLx3ELx6ELx10ELx2EEEELi0ExEEKS6_EENS_13DefaultDeviceELb1EE3runERS9_RKSA_"
 "_ZN5Eigen8internal14TensorExecutorIKNS_14TensorAssignOpINS_15TensorFixedSizeIdNS_5SizesIJLx3ELx7ELx2EEEELi0ExEEKNS_20TensorCwiseNullaryOpINS0_18scalar_constant_opIdEEKS6_EEEENS_13DefaultDeviceELb1EE3runERSE_RKSF_"
 "_ZN5Eigen8internal14TensorExecutorIKNS_14TensorAssignOpINS_15TensorFixedSizeIdNS_5SizesIJLx3ELx7ELx5ELx2EEEELi0ExEEKNS_20TensorCwiseNullaryOpINS0_18scalar_constant_opIdEEKS6_EEEENS_13DefaultDeviceELb1EE3runERSE_RKSF_"
 "_ZN5Eigen8internal14TensorExecutorIKNS_14TensorAssignOpINS_15TensorFixedSizeIdNS_5SizesIJLx3ELx7ELx5ELx2EEEELi0ExEEKNS_9TensorMapINS_6TensorIdLi4ELi0ExEELi0ENS_11MakePointerEEEEENS_13DefaultDeviceELb1EE3runERSE_RKSF_"
 "_ZN5Eigen8internal14TensorExecutorIKNS_14TensorAssignOpINS_15TensorFixedSizeIdNS_5SizesIJLx3ELx7ELx5ELx2EEEELi0ExEEKS6_EENS_13DefaultDeviceELb1EE3runERS9_RKSA_"
 "_ZN5Eigen8internal14TensorExecutorIKNS_14TensorAssignOpINS_15TensorFixedSizeIdNS_5SizesIJLx3ELx7ELx66ELx2EEEELi0ExEEKNS_20TensorCwiseNullaryOpINS0_18scalar_constant_opIdEEKS6_EEEENS_13DefaultDeviceELb1EE3runERSE_RKSF_"
 "_ZN5Eigen8internal14TensorExecutorIKNS_14TensorAssignOpINS_15TensorFixedSizeIdNS_5SizesIJLx3ELx7ELx66ELx2EEEELi0ExEEKNS_9TensorMapINS_6TensorIdLi4ELi0ExEELi0ENS_11MakePointerEEEEENS_13DefaultDeviceELb1EE3runERSE_RKSF_"
 "_ZN5Eigen8internal14TensorExecutorIKNS_14TensorAssignOpINS_15TensorFixedSizeIdNS_5SizesIJLx3ELx7ELx66ELx2EEEELi0ExEEKS6_EENS_13DefaultDeviceELb1EE3runERS9_RKSA_"
 "_ZN5Eigen8internal14TensorExecutorIKNS_14TensorAssignOpINS_15TensorFixedSizeIdNS_5SizesIJLx3ELx7ELx9ELx2EEEELi0ExEEKNS_20TensorCwiseNullaryOpINS0_18scalar_constant_opIdEEKS6_EEEENS_13DefaultDeviceELb1EE3runERSE_RKSF_"
 "_ZN5Eigen8internal14TensorExecutorIKNS_14TensorAssignOpINS_15TensorFixedSizeIdNS_5SizesIJLx3ELx7ELx9ELx2EEEELi0ExEEKNS_9TensorMapINS_6TensorIdLi4ELi0ExEELi0ENS_11MakePointerEEEEENS_13DefaultDeviceELb1EE3runERSE_RKSF_"
 "_ZN5Eigen8internal14TensorExecutorIKNS_14TensorAssignOpINS_15TensorFixedSizeIdNS_5SizesIJLx3ELx7ELx9ELx2EEEELi0ExEEKS6_EENS_13DefaultDeviceELb1EE3runERS9_RKSA_"
 "_ZN5Eigen8internal14TensorExecutorIKNS_14TensorAssignOpINS_15TensorFixedSizeIdNS_5SizesIJLx4EEEELi0ExEEKNS_20TensorCwiseNullaryOpINS0_18scalar_constant_opIdEEKS6_EEEENS_13DefaultDeviceELb1EE3runERSE_RKSF_"
 "_ZN5Eigen8internal14TensorExecutorIKNS_14TensorAssignOpINS_15TensorFixedSizeIdNS_5SizesIJLx4EEEELi0ExEEKNS_9TensorMapINS_6TensorIdLi1ELi0ExEELi0ENS_11MakePointerEEEEENS_13DefaultDeviceELb1EE3runERSE_RKSF_"
 "_ZN5Eigen8internal14TensorExecutorIKNS_14TensorAssignOpINS_15TensorFixedSizeIdNS_5SizesIJLx4EEEELi0ExEEKS6_EENS_13DefaultDeviceELb1EE3runERS9_RKSA_"
 "_ZN5Eigen8internal14TensorExecutorIKNS_14TensorAssignOpINS_15TensorFixedSizeIdNS_5SizesIJLx4ELx5ELx2EEEELi0ExEEKNS_20TensorCwiseNullaryOpINS0_18scalar_constant_opIdEEKS6_EEEENS_13DefaultDeviceELb1EE3runERSE_RKSF_"
 "_ZN5Eigen8internal14TensorExecutorIKNS_14TensorAssignOpINS_15TensorFixedSizeIdNS_5SizesIJLx4ELx5ELx2EEEELi0ExEEKNS_9TensorMapINS_6TensorIdLi3ELi0ExEELi0ENS_11MakePointerEEEEENS_13DefaultDeviceELb1EE3runERSE_RKSF_"
 "_ZN5Eigen8internal14TensorExecutorIKNS_14TensorAssignOpINS_15TensorFixedSizeIdNS_5SizesIJLx4ELx5ELx2EEEELi0ExEEKS6_EENS_13DefaultDeviceELb1EE3runERS9_RKSA_"
 "_ZN5Eigen8internal14TensorExecutorIKNS_14TensorAssignOpINS_15TensorFixedSizeIdNS_5SizesIJLx66EEEELi0ExEEKNS_20TensorCwiseNullaryOpINS0_18scalar_constant_opIdEEKS6_EEEENS_13DefaultDeviceELb1EE3runERSE_RKSF_"
 "_ZN5Eigen8internal14TensorExecutorIKNS_14TensorAssignOpINS_15TensorFixedSizeIdNS_5SizesIJLx66ELx2EEEELi0ExEEKNS_20TensorCwiseNullaryOpINS0_18scalar_constant_opIdEEKS6_EEEENS_13DefaultDeviceELb1EE3runERSE_RKSF_"
 "_ZN5Eigen8internal14TensorExecutorIKNS_14TensorAssignOpINS_15TensorFixedSizeIdNS_5SizesIJLx6ELx4ELx10ELx2EEEELi0ExEEKNS_20TensorCwiseNullaryOpINS0_18scalar_constant_opIdEEKS6_EEEENS_13DefaultDeviceELb1EE3runERSE_RKSF_"
 "_ZN5Eigen8internal14TensorExecutorIKNS_14TensorAssignOpINS_15TensorFixedSizeIdNS_5SizesIJLx6ELx4ELx10ELx2EEEELi0ExEEKNS_9TensorMapINS_6TensorIdLi4ELi0ExEELi0ENS_11MakePointerEEEEENS_13DefaultDeviceELb1EE3runERSE_RKSF_"
 "_ZN5Eigen8internal14TensorExecutorIKNS_14TensorAssignOpINS_15TensorFixedSizeIdNS_5SizesIJLx6ELx4ELx10ELx2EEEELi0ExEEKS6_EENS_13DefaultDeviceELb1EE3runERS9_RKSA_"
 "_ZN5Eigen8internal14TensorExecutorIKNS_14TensorAssignOpINS_15TensorFixedSizeIdNS_5SizesIJLx6ELx4ELx5ELx2EEEELi0ExEEKNS_20TensorCwiseNullaryOpINS0_18scalar_constant_opIdEEKS6_EEEENS_13DefaultDeviceELb1EE3runERSE_RKSF_"
 "_ZN5Eigen8internal14TensorExecutorIKNS_14TensorAssignOpINS_15TensorFixedSizeIdNS_5SizesIJLx6ELx4ELx5ELx2EEEELi0ExEEKNS_9TensorMapINS_6TensorIdLi4ELi0ExEELi0ENS_11MakePointerEEEEENS_13DefaultDeviceELb1EE3runERSE_RKSF_"
 "_ZN5Eigen8internal14TensorExecutorIKNS_14TensorAssignOpINS_15TensorFixedSizeIdNS_5SizesIJLx6ELx4ELx5ELx2EEEELi0ExEEKS6_EENS_13DefaultDeviceELb1EE3runERS9_RKSA_"
 "_ZN5Eigen8internal14TensorExecutorIKNS_14TensorAssignOpINS_15TensorFixedSizeIdNS_5SizesIJLx7EEEELi0ExEEKNS_20TensorCwiseNullaryOpINS0_18scalar_constant_opIdEEKS6_EEEENS_13DefaultDeviceELb1EE3runERSE_RKSF_"
 "_ZN5Eigen8internal14TensorExecutorIKNS_14TensorAssignOpINS_15TensorFixedSizeIdNS_5SizesIJLx7ELx15ELx2EEEELi0ExEEKNS_20TensorCwiseNullaryOpINS0_18scalar_constant_opIdEEKS6_EEEENS_13DefaultDeviceELb1EE3runERSE_RKSF_"
 "_ZN5Eigen8internal14TensorExecutorIKNS_14TensorAssignOpINS_15TensorFixedSizeIdNS_5SizesIJLx7ELx2EEEELi0ExEEKNS_20TensorCwiseNullaryOpINS0_18scalar_constant_opIdEEKS6_EEEENS_13DefaultDeviceELb1EE3runERSE_RKSF_"
 "_ZN5Eigen8internal14TensorExecutorIKNS_14TensorAssignOpINS_15TensorFixedSizeIdNS_5SizesIJLx7ELx4ELx15ELx2EEEELi0ExEEKNS_20TensorCwiseNullaryOpINS0_18scalar_constant_opIdEEKS6_EEEENS_13DefaultDeviceELb1EE3runERSE_RKSF_"
 "_ZN5Eigen8internal14TensorExecutorIKNS_14TensorAssignOpINS_15TensorFixedSizeIdNS_5SizesIJLx7ELx4ELx15ELx2EEEELi0ExEEKNS_9TensorMapINS_6TensorIdLi4ELi0ExEELi0ENS_11MakePointerEEEEENS_13DefaultDeviceELb1EE3runERSE_RKSF_"
 "_ZN5Eigen8internal14TensorExecutorIKNS_14TensorAssignOpINS_15TensorFixedSizeIdNS_5SizesIJLx7ELx4ELx15ELx2EEEELi0ExEEKS6_EENS_13DefaultDeviceELb1EE3runERS9_RKSA_"
 "_ZN5Eigen8internal14TensorExecutorIKNS_14TensorAssignOpINS_15TensorFixedSizeIdNS_5SizesIJLx7ELx4ELx5ELx2EEEELi0ExEEKNS_20TensorCwiseNullaryOpINS0_18scalar_constant_opIdEEKS6_EEEENS_13DefaultDeviceELb1EE3runERSE_RKSF_"
 "_ZN5Eigen8internal14TensorExecutorIKNS_14TensorAssignOpINS_15TensorFixedSizeIdNS_5SizesIJLx7ELx4ELx5ELx2EEEELi0ExEEKNS_9TensorMapINS_6TensorIdLi4ELi0ExEELi0ENS_11MakePointerEEEEENS_13DefaultDeviceELb1EE3runERSE_RKSF_"
 "_ZN5Eigen8internal14TensorExecutorIKNS_14TensorAssignOpINS_15TensorFixedSizeIdNS_5SizesIJLx7ELx4ELx5ELx2EEEELi0ExEEKS6_EENS_13DefaultDeviceELb1EE3runERS9_RKSA_"
 "_ZN5Eigen8internal14TensorExecutorIKNS_14TensorAssignOpINS_15TensorFixedSizeIdNS_5SizesIJLx7ELx4ELx66ELx2EEEELi0ExEEKNS_20TensorCwiseNullaryOpINS0_18scalar_constant_opIdEEKS6_EEEENS_13DefaultDeviceELb1EE3runERSE_RKSF_"
 "_ZN5Eigen8internal14TensorExecutorIKNS_14TensorAssignOpINS_15TensorFixedSizeIdNS_5SizesIJLx7ELx66EEEELi0ExEEKNS_20TensorCwiseNullaryOpINS0_18scalar_constant_opIdEEKS6_EEEENS_13DefaultDeviceELb1EE3runERSE_RKSF_"
 "_ZN5Eigen8internal14TensorExecutorIKNS_14TensorAssignOpINS_15TensorFixedSizeIdNS_5SizesIJLx7ELx66ELx2EEEELi0ExEEKNS_20TensorCwiseNullaryOpINS0_18scalar_constant_opIdEEKS6_EEEENS_13DefaultDeviceELb1EE3runERSE_RKSF_"
 "_ZN5Eigen8internal14TensorExecutorIKNS_14TensorAssignOpINS_15TensorFixedSizeIdNS_5SizesIJLx7ELx66ELx2EEEELi0ExEEKNS_9TensorMapINS_6TensorIdLi3ELi0ExEELi0ENS_11MakePointerEEEEENS_13DefaultDeviceELb1EE3runERSE_RKSF_"
 "_ZN5Eigen8internal14TensorExecutorIKNS_14TensorAssignOpINS_15TensorFixedSizeIdNS_5SizesIJLx7ELx66ELx2EEEELi0ExEEKS6_EENS_13DefaultDeviceELb1EE3runERS9_RKSA_"
 "_ZN5Eigen8internal14TensorExecutorIKNS_14TensorAssignOpINS_15TensorFixedSizeIdNS_5SizesIJLx7ELx9EEEELi0ExEEKNS_20TensorCwiseNullaryOpINS0_18scalar_constant_opIdEEKS6_EEEENS_13DefaultDeviceELb1EE3runERSE_RKSF_"
 "_ZN5Eigen8internal14TensorExecutorIKNS_14TensorAssignOpINS_15TensorFixedSizeIdNS_5SizesIJLx7ELx9ELx2EEEELi0ExEEKNS_20TensorCwiseNullaryOpINS0_18scalar_constant_opIdEEKS6_EEEENS_13DefaultDeviceELb1EE3runERSE_RKSF_"
 "_ZN5Eigen8internal14TensorExecutorIKNS_14TensorAssignOpINS_15TensorFixedSizeIdNS_5SizesIJLx7ELx9ELx2EEEELi0ExEEKNS_9TensorMapINS_6TensorIdLi3ELi0ExEELi0ENS_11MakePointerEEEEENS_13DefaultDeviceELb1EE3runERSE_RKSF_"
 "_ZN5Eigen8internal14TensorExecutorIKNS_14TensorAssignOpINS_15TensorFixedSizeIdNS_5SizesIJLx7ELx9ELx2EEEELi0ExEEKS6_EENS_13DefaultDeviceELb1EE3runERS9_RKSA_"
 "_ZN5Eigen8internal14TensorExecutorIKNS_14TensorAssignOpINS_15TensorFixedSizeIdNS_5SizesIJLx81EEEELi0ExEEKNS_20TensorCwiseNullaryOpINS0_18scalar_constant_opIdEEKS6_EEEENS_13DefaultDeviceELb1EE3runERSE_RKSF_"
 "_ZN5Eigen8internal14TensorExecutorIKNS_14TensorAssignOpINS_15TensorFixedSizeIdNS_5SizesIJLx81ELx2EEEELi0ExEEKNS_20TensorCwiseNullaryOpINS0_18scalar_constant_opIdEEKS6_EEEENS_13DefaultDeviceELb1EE3runERSE_RKSF_"
 "_ZN5Eigen8internal14TensorExecutorIKNS_14TensorAssignOpINS_15TensorFixedSizeIdNS_5SizesIJLx81ELx2EEEELi0ExEEKNS_9TensorMapINS_6TensorIdLi2ELi0ExEELi0ENS_11MakePointerEEEEENS_13DefaultDeviceELb1EE3runERSE_RKSF_"
 "_ZN5Eigen8internal14TensorExecutorIKNS_14TensorAssignOpINS_15TensorFixedSizeIdNS_5SizesIJLx81ELx2EEEELi0ExEEKS6_EENS_13DefaultDeviceELb1EE3runERS9_RKSA_"
 "_ZN5Eigen8internal14TensorExecutorIKNS_14TensorAssignOpINS_15TensorFixedSizeIdNS_5SizesIJLx9EEEELi0ExEEKNS_20TensorCwiseNullaryOpINS0_18scalar_constant_opIdEEKS6_EEEENS_13DefaultDeviceELb1EE3runERSE_RKSF_"
 "_ZN5Eigen8internal14TensorExecutorIKNS_14TensorAssignOpINS_15TensorFixedSizeIdNS_5SizesIJLx9ELx2EEEELi0ExEEKNS_20TensorCwiseNullaryOpINS0_18scalar_constant_opIdEEKS6_EEEENS_13DefaultDeviceELb1EE3runERSE_RKSF_"
 "_ZN5Eigen8internal14TensorExecutorIKNS_14TensorAssignOpINS_16TensorChippingOpILxn1ENS_6TensorIdLi2ELi0ExEEEEKNS_15TensorFixedSizeIdNS_5SizesIJLx4EEEELi0ExEEEENS_13DefaultDeviceELb1EE3runERSD_RKSE_"
 "_ZN5Eigen8internal14TensorExecutorIKNS_14TensorAssignOpINS_16TensorChippingOpILxn1ENS_6TensorIdLi3ELi0ExEEEEKNS_15TensorFixedSizeIdNS_5SizesIJLx81ELx2EEEELi0ExEEEENS_13DefaultDeviceELb1EE3runERSD_RKSE_"
 "_ZN5Eigen8internal14TensorExecutorIKNS_14TensorAssignOpINS_16TensorChippingOpILxn1ENS_6TensorIdLi4ELi0ExEEEEKNS_15TensorFixedSizeIdNS_5SizesIJLx4ELx5ELx2EEEELi0ExEEEENS_13DefaultDeviceELb1EE3runERSD_RKSE_"
 "_ZN5Eigen8internal14TensorExecutorIKNS_14TensorAssignOpINS_16TensorChippingOpILxn1ENS_6TensorIdLi4ELi0ExEEEEKNS_15TensorFixedSizeIdNS_5SizesIJLx7ELx66ELx2EEEELi0ExEEEENS_13DefaultDeviceELb1EE3runERSD_RKSE_"
 "_ZN5Eigen8internal14TensorExecutorIKNS_14TensorAssignOpINS_16TensorChippingOpILxn1ENS_6TensorIdLi4ELi0ExEEEEKNS_15TensorFixedSizeIdNS_5SizesIJLx7ELx9ELx2EEEELi0ExEEEENS_13DefaultDeviceELb1EE3runERSD_RKSE_"
 "_ZN5Eigen8internal14TensorExecutorIKNS_14TensorAssignOpINS_16TensorChippingOpILxn1ENS_6TensorIdLi5ELi0ExEEEEKNS_15TensorFixedSizeIdNS_5SizesIJLx3ELx6ELx10ELx2EEEELi0ExEEEENS_13DefaultDeviceELb1EE3runERSD_RKSE_"
 "_ZN5Eigen8internal14TensorExecutorIKNS_14TensorAssignOpINS_16TensorChippingOpILxn1ENS_6TensorIdLi5ELi0ExEEEEKNS_15TensorFixedSizeIdNS_5SizesIJLx3ELx7ELx5ELx2EEEELi0ExEEEENS_13DefaultDeviceELb1EE3runERSD_RKSE_"
 "_ZN5Eigen8internal14TensorExecutorIKNS_14TensorAssignOpINS_16TensorChippingOpILxn1ENS_6TensorIdLi5ELi0ExEEEEKNS_15TensorFixedSizeIdNS_5SizesIJLx3ELx7ELx66ELx2EEEELi0ExEEEENS_13DefaultDeviceELb1EE3runERSD_RKSE_"
 "_ZN5Eigen8internal14TensorExecutorIKNS_14TensorAssignOpINS_16TensorChippingOpILxn1ENS_6TensorIdLi5ELi0ExEEEEKNS_15TensorFixedSizeIdNS_5SizesIJLx3ELx7ELx9ELx2EEEELi0ExEEEENS_13DefaultDeviceELb1EE3runERSD_RKSE_"
 "_ZN5Eigen8internal14TensorExecutorIKNS_14TensorAssignOpINS_16TensorChippingOpILxn1ENS_6TensorIdLi5ELi0ExEEEEKNS_15TensorFixedSizeIdNS_5SizesIJLx6ELx4ELx10ELx2EEEELi0ExEEEENS_13DefaultDeviceELb1EE3runERSD_RKSE_"
 "_ZN5Eigen8internal14TensorExecutorIKNS_14TensorAssignOpINS_16TensorChippingOpILxn1ENS_6TensorIdLi5ELi0ExEEEEKNS_15TensorFixedSizeIdNS_5SizesIJLx6ELx4ELx5ELx2EEEELi0ExEEEENS_13DefaultDeviceELb1EE3runERSD_RKSE_"
 "_ZN5Eigen8internal14TensorExecutorIKNS_14TensorAssignOpINS_16TensorChippingOpILxn1ENS_6TensorIdLi5ELi0ExEEEEKNS_15TensorFixedSizeIdNS_5SizesIJLx7ELx4ELx15ELx2EEEELi0ExEEEENS_13DefaultDeviceELb1EE3runERSD_RKSE_"
 "_ZN5Eigen8internal14TensorExecutorIKNS_14TensorAssignOpINS_16TensorChippingOpILxn1ENS_6TensorIdLi5ELi0ExEEEEKNS_15TensorFixedSizeIdNS_5SizesIJLx7ELx4ELx5ELx2EEEELi0ExEEEENS_13DefaultDeviceELb1EE3runERSD_RKSE_"
 "_ZN5Eigen8internal14TensorExecutorIKNS_14TensorAssignOpINS_6TensorIdLi1ELi0ExEEKNS_20TensorCwiseNullaryOpINS0_18scalar_constant_opIdEEKS4_EEEENS_13DefaultDeviceELb1EE3runERSC_RKSD_"
 "_ZN5Eigen8internal14TensorExecutorIKNS_14TensorAssignOpINS_6TensorIdLi2ELi0ExEEKNS_20TensorCwiseNullaryOpINS0_18scalar_constant_opIdEEKS4_EEEENS_13DefaultDeviceELb1EE3runERSC_RKSD_"
 "_ZN5Eigen8internal14TensorExecutorIKNS_14TensorAssignOpINS_6TensorIdLi3ELi0ExEEKNS_20TensorCwiseNullaryOpINS0_18scalar_constant_opIdEEKS4_EEEENS_13DefaultDeviceELb1EE3runERSC_RKSD_"
 "_ZN5Eigen8internal14TensorExecutorIKNS_14TensorAssignOpINS_6TensorIdLi4ELi0ExEEKNS_20TensorCwiseNullaryOpINS0_18scalar_constant_opIdEEKS4_EEEENS_13DefaultDeviceELb1EE3runERSC_RKSD_"
 "_ZN5Eigen8internal14TensorExecutorIKNS_14TensorAssignOpINS_6TensorIdLi5ELi0ExEEKNS_20TensorCwiseNullaryOpINS0_18scalar_constant_opIdEEKS4_EEEENS_13DefaultDeviceELb1EE3runERSC_RKSD_"
 "_ZN5Eigen8internal17smart_copy_helperIdLb1EE3runEPKdS4_Pd"
 "_ZN5Eigen8internal18scalar_constant_opIdEC1ERKd"
 "_ZN5Eigen8internal18scalar_constant_opIdEC1ERKS2_"
 "_ZN5Eigen8internal19customIndices2ArrayISt5arrayIxLy1EEJLx0EEEES2_IxXsZT0_EERT_NS0_12numeric_listIxJXspT0_EEEE"
 "_ZN5Eigen8internal19customIndices2ArrayISt5arrayIxLy2EEJLx0ELx1EEEES2_IxXsZT0_EERT_NS0_12numeric_listIxJXspT0_EEEE"
 "_ZN5Eigen8internal19customIndices2ArrayISt5arrayIxLy3EEJLx0ELx1ELx2EEEES2_IxXsZT0_EERT_NS0_12numeric_listIxJXspT0_EEEE"
 "_ZN5Eigen8internal19customIndices2ArrayISt5arrayIxLy4EEJLx0ELx1ELx2ELx3EEEES2_IxXsZT0_EERT_NS0_12numeric_listIxJXspT0_EEEE"
 "_ZN5Eigen8internal19customIndices2ArrayISt5arrayIxLy5EEJLx0ELx1ELx2ELx3ELx4EEEES2_IxXsZT0_EERT_NS0_12numeric_listIxJXspT0_EEEE"
 "_ZN5Eigen8internal19customIndices2ArrayIxLy1ESt5arrayIxLy1EEEES2_IT_XT0_EERT1_"
 "_ZN5Eigen8internal19customIndices2ArrayIxLy2ESt5arrayIxLy2EEEES2_IT_XT0_EERT1_"
 "_ZN5Eigen8internal19customIndices2ArrayIxLy3ESt5arrayIxLy3EEEES2_IT_XT0_EERT1_"
 "_ZN5Eigen8internal19customIndices2ArrayIxLy4ESt5arrayIxLy4EEEES2_IT_XT0_EERT1_"
 "_ZN5Eigen8internal19customIndices2ArrayIxLy5ESt5arrayIxLy5EEEES2_IT_XT0_EERT1_"
 "_ZN5Eigen8internal19throw_std_bad_allocEv"
 "_ZN5Eigen8internal21sizes_match_below_dimIKNS_5SizesIJLx2EEEES4_Ly0ELy0EE3runERS4_S6_"
 "_ZN5Eigen8internal21sizes_match_below_dimIKNS_5SizesIJLx2EEEES4_Ly1ELy1EE3runERS4_S6_"
 "_ZN5Eigen8internal21sizes_match_below_dimIKNS_5SizesIJLx3EEEES4_Ly0ELy0EE3runERS4_S6_"
 "_ZN5Eigen8internal21sizes_match_below_dimIKNS_5SizesIJLx3EEEES4_Ly1ELy1EE3runERS4_S6_"
 "_ZN5Eigen8internal21sizes_match_below_dimIKNS_5SizesIJLx3ELx6ELx10ELx2EEEEKNS_6DSizesIxLi4EEELy0ELy0EE3runERS4_RS7_"
 "_ZN5Eigen8internal21sizes_match_below_dimIKNS_5SizesIJLx3ELx6ELx10ELx2EEEEKNS_6DSizesIxLi4EEELy1ELy1EE3runERS4_RS7_"
 "_ZN5Eigen8internal21sizes_match_below_dimIKNS_5SizesIJLx3ELx6ELx10ELx2EEEEKNS_6DSizesIxLi4EEELy2ELy2EE3runERS4_RS7_"
 "_ZN5Eigen8internal21sizes_match_below_dimIKNS_5SizesIJLx3ELx6ELx10ELx2EEEEKNS_6DSizesIxLi4EEELy3ELy3EE3runERS4_RS7_"
 "_ZN5Eigen8internal21sizes_match_below_dimIKNS_5SizesIJLx3ELx6ELx10ELx2EEEEKNS_6DSizesIxLi4EEELy4ELy4EE3runERS4_RS7_"
 "_ZN5Eigen8internal21sizes_match_below_dimIKNS_5SizesIJLx3ELx6ELx10ELx2EEEES4_Ly0ELy0EE3runERS4_S6_"
 "_ZN5Eigen8internal21sizes_match_below_dimIKNS_5SizesIJLx3ELx6ELx10ELx2EEEES4_Ly1ELy1EE3runERS4_S6_"
 "_ZN5Eigen8internal21sizes_match_below_dimIKNS_5SizesIJLx3ELx6ELx10ELx2EEEES4_Ly2ELy2EE3runERS4_S6_"
 "_ZN5Eigen8internal21sizes_match_below_dimIKNS_5SizesIJLx3ELx6ELx10ELx2EEEES4_Ly3ELy3EE3runERS4_S6_"
 "_ZN5Eigen8internal21sizes_match_below_dimIKNS_5SizesIJLx3ELx6ELx10ELx2EEEES4_Ly4ELy4EE3runERS4_S6_"
 "_ZN5Eigen8internal21sizes_match_below_dimIKNS_5SizesIJLx3ELx7ELx2EEEES4_Ly0ELy0EE3runERS4_S6_"
 "_ZN5Eigen8internal21sizes_match_below_dimIKNS_5SizesIJLx3ELx7ELx2EEEES4_Ly1ELy1EE3runERS4_S6_"
 "_ZN5Eigen8internal21sizes_match_below_dimIKNS_5SizesIJLx3ELx7ELx2EEEES4_Ly2ELy2EE3runERS4_S6_"
 "_ZN5Eigen8internal21sizes_match_below_dimIKNS_5SizesIJLx3ELx7ELx2EEEES4_Ly3ELy3EE3runERS4_S6_"
 "_ZN5Eigen8internal21sizes_match_below_dimIKNS_5SizesIJLx3ELx7ELx5ELx2EEEEKNS_6DSizesIxLi4EEELy0ELy0EE3runERS4_RS7_"
 "_ZN5Eigen8internal21sizes_match_below_dimIKNS_5SizesIJLx3ELx7ELx5ELx2EEEEKNS_6DSizesIxLi4EEELy1ELy1EE3runERS4_RS7_"
 "_ZN5Eigen8internal21sizes_match_below_dimIKNS_5SizesIJLx3ELx7ELx5ELx2EEEEKNS_6DSizesIxLi4EEELy2ELy2EE3runERS4_RS7_"
 "_ZN5Eigen8internal21sizes_match_below_dimIKNS_5SizesIJLx3ELx7ELx5ELx2EEEEKNS_6DSizesIxLi4EEELy3ELy3EE3runERS4_RS7_"
 "_ZN5Eigen8internal21sizes_match_below_dimIKNS_5SizesIJLx3ELx7ELx5ELx2EEEEKNS_6DSizesIxLi4EEELy4ELy4EE3runERS4_RS7_"
 "_ZN5Eigen8internal21sizes_match_below_dimIKNS_5SizesIJLx3ELx7ELx5ELx2EEEES4_Ly0ELy0EE3runERS4_S6_"
 "_ZN5Eigen8internal21sizes_match_below_dimIKNS_5SizesIJLx3ELx7ELx5ELx2EEEES4_Ly1ELy1EE3runERS4_S6_"
 "_ZN5Eigen8internal21sizes_match_below_dimIKNS_5SizesIJLx3ELx7ELx5ELx2EEEES4_Ly2ELy2EE3runERS4_S6_"
 "_ZN5Eigen8internal21sizes_match_below_dimIKNS_5SizesIJLx3ELx7ELx5ELx2EEEES4_Ly3ELy3EE3runERS4_S6_"
 "_ZN5Eigen8internal21sizes_match_below_dimIKNS_5SizesIJLx3ELx7ELx5ELx2EEEES4_Ly4ELy4EE3runERS4_S6_"
 "_ZN5Eigen8internal21sizes_match_below_dimIKNS_5SizesIJLx3ELx7ELx66ELx2EEEEKNS_6DSizesIxLi4EEELy0ELy0EE3runERS4_RS7_"
 "_ZN5Eigen8internal21sizes_match_below_dimIKNS_5SizesIJLx3ELx7ELx66ELx2EEEEKNS_6DSizesIxLi4EEELy1ELy1EE3runERS4_RS7_"
 "_ZN5Eigen8internal21sizes_match_below_dimIKNS_5SizesIJLx3ELx7ELx66ELx2EEEEKNS_6DSizesIxLi4EEELy2ELy2EE3runERS4_RS7_"
 "_ZN5Eigen8internal21sizes_match_below_dimIKNS_5SizesIJLx3ELx7ELx66ELx2EEEEKNS_6DSizesIxLi4EEELy3ELy3EE3runERS4_RS7_"
 "_ZN5Eigen8internal21sizes_match_below_dimIKNS_5SizesIJLx3ELx7ELx66ELx2EEEEKNS_6DSizesIxLi4EEELy4ELy4EE3runERS4_RS7_"
 "_ZN5Eigen8internal21sizes_match_below_dimIKNS_5SizesIJLx3ELx7ELx66ELx2EEEES4_Ly0ELy0EE3runERS4_S6_"
 "_ZN5Eigen8internal21sizes_match_below_dimIKNS_5SizesIJLx3ELx7ELx66ELx2EEEES4_Ly1ELy1EE3runERS4_S6_"
 "_ZN5Eigen8internal21sizes_match_below_dimIKNS_5SizesIJLx3ELx7ELx66ELx2EEEES4_Ly2ELy2EE3runERS4_S6_"
 "_ZN5Eigen8internal21sizes_match_below_dimIKNS_5SizesIJLx3ELx7ELx66ELx2EEEES4_Ly3ELy3EE3runERS4_S6_"
 "_ZN5Eigen8internal21sizes_match_below_dimIKNS_5SizesIJLx3ELx7ELx66ELx2EEEES4_Ly4ELy4EE3runERS4_S6_"
 "_ZN5Eigen8internal21sizes_match_below_dimIKNS_5SizesIJLx3ELx7ELx9ELx2EEEEKNS_6DSizesIxLi4EEELy0ELy0EE3runERS4_RS7_"
 "_ZN5Eigen8internal21sizes_match_below_dimIKNS_5SizesIJLx3ELx7ELx9ELx2EEEEKNS_6DSizesIxLi4EEELy1ELy1EE3runERS4_RS7_"
 "_ZN5Eigen8internal21sizes_match_below_dimIKNS_5SizesIJLx3ELx7ELx9ELx2EEEEKNS_6DSizesIxLi4EEELy2ELy2EE3runERS4_RS7_"
 "_ZN5Eigen8internal21sizes_match_below_dimIKNS_5SizesIJLx3ELx7ELx9ELx2EEEEKNS_6DSizesIxLi4EEELy3ELy3EE3runERS4_RS7_"
 "_ZN5Eigen8internal21sizes_match_below_dimIKNS_5SizesIJLx3ELx7ELx9ELx2EEEEKNS_6DSizesIxLi4EEELy4ELy4EE3runERS4_RS7_"
 "_ZN5Eigen8internal21sizes_match_below_dimIKNS_5SizesIJLx3ELx7ELx9ELx2EEEES4_Ly0ELy0EE3runERS4_S6_"
 "_ZN5Eigen8internal21sizes_match_below_dimIKNS_5SizesIJLx3ELx7ELx9ELx2EEEES4_Ly1ELy1EE3runERS4_S6_"
 "_ZN5Eigen8internal21sizes_match_below_dimIKNS_5SizesIJLx3ELx7ELx9ELx2EEEES4_Ly2ELy2EE3runERS4_S6_"
 "_ZN5Eigen8internal21sizes_match_below_dimIKNS_5SizesIJLx3ELx7ELx9ELx2EEEES4_Ly3ELy3EE3runERS4_S6_"
 "_ZN5Eigen8internal21sizes_match_below_dimIKNS_5SizesIJLx3ELx7ELx9ELx2EEEES4_Ly4ELy4EE3runERS4_S6_"
 "_ZN5Eigen8internal21sizes_match_below_dimIKNS_5SizesIJLx4EEEEKNS_6DSizesIxLi1EEELy0ELy0EE3runERS4_RS7_"
 "_ZN5Eigen8internal21sizes_match_below_dimIKNS_5SizesIJLx4EEEEKNS_6DSizesIxLi1EEELy1ELy1EE3runERS4_RS7_"
 "_ZN5Eigen8internal21sizes_match_below_dimIKNS_5SizesIJLx4EEEES4_Ly0ELy0EE3runERS4_S6_"
 "_ZN5Eigen8internal21sizes_match_below_dimIKNS_5SizesIJLx4EEEES4_Ly1ELy1EE3runERS4_S6_"
 "_ZN5Eigen8internal21sizes_match_below_dimIKNS_5SizesIJLx4ELx5ELx2EEEEKNS_6DSizesIxLi3EEELy0ELy0EE3runERS4_RS7_"
 "_ZN5Eigen8internal21sizes_match_below_dimIKNS_5SizesIJLx4ELx5ELx2EEEEKNS_6DSizesIxLi3EEELy1ELy1EE3runERS4_RS7_"
 "_ZN5Eigen8internal21sizes_match_below_dimIKNS_5SizesIJLx4ELx5ELx2EEEEKNS_6DSizesIxLi3EEELy2ELy2EE3runERS4_RS7_"
 "_ZN5Eigen8internal21sizes_match_below_dimIKNS_5SizesIJLx4ELx5ELx2EEEEKNS_6DSizesIxLi3EEELy3ELy3EE3runERS4_RS7_"
 "_ZN5Eigen8internal21sizes_match_below_dimIKNS_5SizesIJLx4ELx5ELx2EEEES4_Ly0ELy0EE3runERS4_S6_"
 "_ZN5Eigen8internal21sizes_match_below_dimIKNS_5SizesIJLx4ELx5ELx2EEEES4_Ly1ELy1EE3runERS4_S6_"
 "_ZN5Eigen8internal21sizes_match_below_dimIKNS_5SizesIJLx4ELx5ELx2EEEES4_Ly2ELy2EE3runERS4_S6_"
 "_ZN5Eigen8internal21sizes_match_below_dimIKNS_5SizesIJLx4ELx5ELx2EEEES4_Ly3ELy3EE3runERS4_S6_"
 "_ZN5Eigen8internal21sizes_match_below_dimIKNS_5SizesIJLx66EEEES4_Ly0ELy0EE3runERS4_S6_"
 "_ZN5Eigen8internal21sizes_match_below_dimIKNS_5SizesIJLx66EEEES4_Ly1ELy1EE3runERS4_S6_"
 "_ZN5Eigen8internal21sizes_match_below_dimIKNS_5SizesIJLx66ELx2EEEES4_Ly0ELy0EE3runERS4_S6_"
 "_ZN5Eigen8internal21sizes_match_below_dimIKNS_5SizesIJLx66ELx2EEEES4_Ly1ELy1EE3runERS4_S6_"
 "_ZN5Eigen8internal21sizes_match_below_dimIKNS_5SizesIJLx66ELx2EEEES4_Ly2ELy2EE3runERS4_S6_"
 "_ZN5Eigen8internal21sizes_match_below_dimIKNS_5SizesIJLx6ELx4ELx10ELx2EEEEKNS_6DSizesIxLi4EEELy0ELy0EE3runERS4_RS7_"
 "_ZN5Eigen8internal21sizes_match_below_dimIKNS_5SizesIJLx6ELx4ELx10ELx2EEEEKNS_6DSizesIxLi4EEELy1ELy1EE3runERS4_RS7_"
 "_ZN5Eigen8internal21sizes_match_below_dimIKNS_5SizesIJLx6ELx4ELx10ELx2EEEEKNS_6DSizesIxLi4EEELy2ELy2EE3runERS4_RS7_"
 "_ZN5Eigen8internal21sizes_match_below_dimIKNS_5SizesIJLx6ELx4ELx10ELx2EEEEKNS_6DSizesIxLi4EEELy3ELy3EE3runERS4_RS7_"
 "_ZN5Eigen8internal21sizes_match_below_dimIKNS_5SizesIJLx6ELx4ELx10ELx2EEEEKNS_6DSizesIxLi4EEELy4ELy4EE3runERS4_RS7_"
 "_ZN5Eigen8internal21sizes_match_below_dimIKNS_5SizesIJLx6ELx4ELx10ELx2EEEES4_Ly0ELy0EE3runERS4_S6_"
 "_ZN5Eigen8internal21sizes_match_below_dimIKNS_5SizesIJLx6ELx4ELx10ELx2EEEES4_Ly1ELy1EE3runERS4_S6_"
 "_ZN5Eigen8internal21sizes_match_below_dimIKNS_5SizesIJLx6ELx4ELx10ELx2EEEES4_Ly2ELy2EE3runERS4_S6_"
 "_ZN5Eigen8internal21sizes_match_below_dimIKNS_5SizesIJLx6ELx4ELx10ELx2EEEES4_Ly3ELy3EE3runERS4_S6_"
 "_ZN5Eigen8internal21sizes_match_below_dimIKNS_5SizesIJLx6ELx4ELx10ELx2EEEES4_Ly4ELy4EE3runERS4_S6_"
 "_ZN5Eigen8internal21sizes_match_below_dimIKNS_5SizesIJLx6ELx4ELx5ELx2EEEEKNS_6DSizesIxLi4EEELy0ELy0EE3runERS4_RS7_"
 "_ZN5Eigen8internal21sizes_match_below_dimIKNS_5SizesIJLx6ELx4ELx5ELx2EEEEKNS_6DSizesIxLi4EEELy1ELy1EE3runERS4_RS7_"
 "_ZN5Eigen8internal21sizes_match_below_dimIKNS_5SizesIJLx6ELx4ELx5ELx2EEEEKNS_6DSizesIxLi4EEELy2ELy2EE3runERS4_RS7_"
 "_ZN5Eigen8internal21sizes_match_below_dimIKNS_5SizesIJLx6ELx4ELx5ELx2EEEEKNS_6DSizesIxLi4EEELy3ELy3EE3runERS4_RS7_"
 "_ZN5Eigen8internal21sizes_match_below_dimIKNS_5SizesIJLx6ELx4ELx5ELx2EEEEKNS_6DSizesIxLi4EEELy4ELy4EE3runERS4_RS7_"
 "_ZN5Eigen8internal21sizes_match_below_dimIKNS_5SizesIJLx6ELx4ELx5ELx2EEEES4_Ly0ELy0EE3runERS4_S6_"
 "_ZN5Eigen8internal21sizes_match_below_dimIKNS_5SizesIJLx6ELx4ELx5ELx2EEEES4_Ly1ELy1EE3runERS4_S6_"
 "_ZN5Eigen8internal21sizes_match_below_dimIKNS_5SizesIJLx6ELx4ELx5ELx2EEEES4_Ly2ELy2EE3runERS4_S6_"
 "_ZN5Eigen8internal21sizes_match_below_dimIKNS_5SizesIJLx6ELx4ELx5ELx2EEEES4_Ly3ELy3EE3runERS4_S6_"
 "_ZN5Eigen8internal21sizes_match_below_dimIKNS_5SizesIJLx6ELx4ELx5ELx2EEEES4_Ly4ELy4EE3runERS4_S6_"
 "_ZN5Eigen8internal21sizes_match_below_dimIKNS_5SizesIJLx7EEEES4_Ly0ELy0EE3runERS4_S6_"
 "_ZN5Eigen8internal21sizes_match_below_dimIKNS_5SizesIJLx7EEEES4_Ly1ELy1EE3runERS4_S6_"
 "_ZN5Eigen8internal21sizes_match_below_dimIKNS_5SizesIJLx7ELx15ELx2EEEES4_Ly0ELy0EE3runERS4_S6_"
 "_ZN5Eigen8internal21sizes_match_below_dimIKNS_5SizesIJLx7ELx15ELx2EEEES4_Ly1ELy1EE3runERS4_S6_"
 "_ZN5Eigen8internal21sizes_match_below_dimIKNS_5SizesIJLx7ELx15ELx2EEEES4_Ly2ELy2EE3runERS4_S6_"
 "_ZN5Eigen8internal21sizes_match_below_dimIKNS_5SizesIJLx7ELx15ELx2EEEES4_Ly3ELy3EE3runERS4_S6_"
 "_ZN5Eigen8internal21sizes_match_below_dimIKNS_5SizesIJLx7ELx2EEEES4_Ly0ELy0EE3runERS4_S6_"
 "_ZN5Eigen8internal21sizes_match_below_dimIKNS_5SizesIJLx7ELx2EEEES4_Ly1ELy1EE3runERS4_S6_"
 "_ZN5Eigen8internal21sizes_match_below_dimIKNS_5SizesIJLx7ELx2EEEES4_Ly2ELy2EE3runERS4_S6_"
 "_ZN5Eigen8internal21sizes_match_below_dimIKNS_5SizesIJLx7ELx4ELx15ELx2EEEEKNS_6DSizesIxLi4EEELy0ELy0EE3runERS4_RS7_"
 "_ZN5Eigen8internal21sizes_match_below_dimIKNS_5SizesIJLx7ELx4ELx15ELx2EEEEKNS_6DSizesIxLi4EEELy1ELy1EE3runERS4_RS7_"
 "_ZN5Eigen8internal21sizes_match_below_dimIKNS_5SizesIJLx7ELx4ELx15ELx2EEEEKNS_6DSizesIxLi4EEELy2ELy2EE3runERS4_RS7_"
 "_ZN5Eigen8internal21sizes_match_below_dimIKNS_5SizesIJLx7ELx4ELx15ELx2EEEEKNS_6DSizesIxLi4EEELy3ELy3EE3runERS4_RS7_"
 "_ZN5Eigen8internal21sizes_match_below_dimIKNS_5SizesIJLx7ELx4ELx15ELx2EEEEKNS_6DSizesIxLi4EEELy4ELy4EE3runERS4_RS7_"
 "_ZN5Eigen8internal21sizes_match_below_dimIKNS_5SizesIJLx7ELx4ELx15ELx2EEEES4_Ly0ELy0EE3runERS4_S6_"
 "_ZN5Eigen8internal21sizes_match_below_dimIKNS_5SizesIJLx7ELx4ELx15ELx2EEEES4_Ly1ELy1EE3runERS4_S6_"
 "_ZN5Eigen8internal21sizes_match_below_dimIKNS_5SizesIJLx7ELx4ELx15ELx2EEEES4_Ly2ELy2EE3runERS4_S6_"
 "_ZN5Eigen8internal21sizes_match_below_dimIKNS_5SizesIJLx7ELx4ELx15ELx2EEEES4_Ly3ELy3EE3runERS4_S6_"
 "_ZN5Eigen8internal21sizes_match_below_dimIKNS_5SizesIJLx7ELx4ELx15ELx2EEEES4_Ly4ELy4EE3runERS4_S6_"
 "_ZN5Eigen8internal21sizes_match_below_dimIKNS_5SizesIJLx7ELx4ELx5ELx2EEEEKNS_6DSizesIxLi4EEELy0ELy0EE3runERS4_RS7_"
 "_ZN5Eigen8internal21sizes_match_below_dimIKNS_5SizesIJLx7ELx4ELx5ELx2EEEEKNS_6DSizesIxLi4EEELy1ELy1EE3runERS4_RS7_"
 "_ZN5Eigen8internal21sizes_match_below_dimIKNS_5SizesIJLx7ELx4ELx5ELx2EEEEKNS_6DSizesIxLi4EEELy2ELy2EE3runERS4_RS7_"
 "_ZN5Eigen8internal21sizes_match_below_dimIKNS_5SizesIJLx7ELx4ELx5ELx2EEEEKNS_6DSizesIxLi4EEELy3ELy3EE3runERS4_RS7_"
 "_ZN5Eigen8internal21sizes_match_below_dimIKNS_5SizesIJLx7ELx4ELx5ELx2EEEEKNS_6DSizesIxLi4EEELy4ELy4EE3runERS4_RS7_"
 "_ZN5Eigen8internal21sizes_match_below_dimIKNS_5SizesIJLx7ELx4ELx5ELx2EEEES4_Ly0ELy0EE3runERS4_S6_"
 "_ZN5Eigen8internal21sizes_match_below_dimIKNS_5SizesIJLx7ELx4ELx5ELx2EEEES4_Ly1ELy1EE3runERS4_S6_"
 "_ZN5Eigen8internal21sizes_match_below_dimIKNS_5SizesIJLx7ELx4ELx5ELx2EEEES4_Ly2ELy2EE3runERS4_S6_"
 "_ZN5Eigen8internal21sizes_match_below_dimIKNS_5SizesIJLx7ELx4ELx5ELx2EEEES4_Ly3ELy3EE3runERS4_S6_"
 "_ZN5Eigen8internal21sizes_match_below_dimIKNS_5SizesIJLx7ELx4ELx5ELx2EEEES4_Ly4ELy4EE3runERS4_S6_"
 "_ZN5Eigen8internal21sizes_match_below_dimIKNS_5SizesIJLx7ELx4ELx66ELx2EEEES4_Ly0ELy0EE3runERS4_S6_"
 "_ZN5Eigen8internal21sizes_match_below_dimIKNS_5SizesIJLx7ELx4ELx66ELx2EEEES4_Ly1ELy1EE3runERS4_S6_"
 "_ZN5Eigen8internal21sizes_match_below_dimIKNS_5SizesIJLx7ELx4ELx66ELx2EEEES4_Ly2ELy2EE3runERS4_S6_"
 "_ZN5Eigen8internal21sizes_match_below_dimIKNS_5SizesIJLx7ELx4ELx66ELx2EEEES4_Ly3ELy3EE3runERS4_S6_"
 "_ZN5Eigen8internal21sizes_match_below_dimIKNS_5SizesIJLx7ELx4ELx66ELx2EEEES4_Ly4ELy4EE3runERS4_S6_"
 "_ZN5Eigen8internal21sizes_match_below_dimIKNS_5SizesIJLx7ELx66EEEES4_Ly0ELy0EE3runERS4_S6_"
 "_ZN5Eigen8internal21sizes_match_below_dimIKNS_5SizesIJLx7ELx66EEEES4_Ly1ELy1EE3runERS4_S6_"
 "_ZN5Eigen8internal21sizes_match_below_dimIKNS_5SizesIJLx7ELx66EEEES4_Ly2ELy2EE3runERS4_S6_"
 "_ZN5Eigen8internal21sizes_match_below_dimIKNS_5SizesIJLx7ELx66ELx2EEEEKNS_6DSizesIxLi3EEELy0ELy0EE3runERS4_RS7_"
 "_ZN5Eigen8internal21sizes_match_below_dimIKNS_5SizesIJLx7ELx66ELx2EEEEKNS_6DSizesIxLi3EEELy1ELy1EE3runERS4_RS7_"
 "_ZN5Eigen8internal21sizes_match_below_dimIKNS_5SizesIJLx7ELx66ELx2EEEEKNS_6DSizesIxLi3EEELy2ELy2EE3runERS4_RS7_"
 "_ZN5Eigen8internal21sizes_match_below_dimIKNS_5SizesIJLx7ELx66ELx2EEEEKNS_6DSizesIxLi3EEELy3ELy3EE3runERS4_RS7_"
 "_ZN5Eigen8internal21sizes_match_below_dimIKNS_5SizesIJLx7ELx66ELx2EEEES4_Ly0ELy0EE3runERS4_S6_"
 "_ZN5Eigen8internal21sizes_match_below_dimIKNS_5SizesIJLx7ELx66ELx2EEEES4_Ly1ELy1EE3runERS4_S6_"
 "_ZN5Eigen8internal21sizes_match_below_dimIKNS_5SizesIJLx7ELx66ELx2EEEES4_Ly2ELy2EE3runERS4_S6_"
 "_ZN5Eigen8internal21sizes_match_below_dimIKNS_5SizesIJLx7ELx66ELx2EEEES4_Ly3ELy3EE3runERS4_S6_"
 "_ZN5Eigen8internal21sizes_match_below_dimIKNS_5SizesIJLx7ELx9EEEES4_Ly0ELy0EE3runERS4_S6_"
 "_ZN5Eigen8internal21sizes_match_below_dimIKNS_5SizesIJLx7ELx9EEEES4_Ly1ELy1EE3runERS4_S6_"
 "_ZN5Eigen8internal21sizes_match_below_dimIKNS_5SizesIJLx7ELx9EEEES4_Ly2ELy2EE3runERS4_S6_"
 "_ZN5Eigen8internal21sizes_match_below_dimIKNS_5SizesIJLx7ELx9ELx2EEEEKNS_6DSizesIxLi3EEELy0ELy0EE3runERS4_RS7_"
 "_ZN5Eigen8internal21sizes_match_below_dimIKNS_5SizesIJLx7ELx9ELx2EEEEKNS_6DSizesIxLi3EEELy1ELy1EE3runERS4_RS7_"
 "_ZN5Eigen8internal21sizes_match_below_dimIKNS_5SizesIJLx7ELx9ELx2EEEEKNS_6DSizesIxLi3EEELy2ELy2EE3runERS4_RS7_"
 "_ZN5Eigen8internal21sizes_match_below_dimIKNS_5SizesIJLx7ELx9ELx2EEEEKNS_6DSizesIxLi3EEELy3ELy3EE3runERS4_RS7_"
 "_ZN5Eigen8internal21sizes_match_below_dimIKNS_5SizesIJLx7ELx9ELx2EEEES4_Ly0ELy0EE3runERS4_S6_"
 "_ZN5Eigen8internal21sizes_match_below_dimIKNS_5SizesIJLx7ELx9ELx2EEEES4_Ly1ELy1EE3runERS4_S6_"
 "_ZN5Eigen8internal21sizes_match_below_dimIKNS_5SizesIJLx7ELx9ELx2EEEES4_Ly2ELy2EE3runERS4_S6_"
 "_ZN5Eigen8internal21sizes_match_below_dimIKNS_5SizesIJLx7ELx9ELx2EEEES4_Ly3ELy3EE3runERS4_S6_"
 "_ZN5Eigen8internal21sizes_match_below_dimIKNS_5SizesIJLx81EEEES4_Ly0ELy0EE3runERS4_S6_"
 "_ZN5Eigen8internal21sizes_match_below_dimIKNS_5SizesIJLx81EEEES4_Ly1ELy1EE3runERS4_S6_"
 "_ZN5Eigen8internal21sizes_match_below_dimIKNS_5SizesIJLx81ELx2EEEEKNS_6DSizesIxLi2EEELy0ELy0EE3runERS4_RS7_"
 "_ZN5Eigen8internal21sizes_match_below_dimIKNS_5SizesIJLx81ELx2EEEEKNS_6DSizesIxLi2EEELy1ELy1EE3runERS4_RS7_"
 "_ZN5Eigen8internal21sizes_match_below_dimIKNS_5SizesIJLx81ELx2EEEEKNS_6DSizesIxLi2EEELy2ELy2EE3runERS4_RS7_"
 "_ZN5Eigen8internal21sizes_match_below_dimIKNS_5SizesIJLx81ELx2EEEES4_Ly0ELy0EE3runERS4_S6_"
 "_ZN5Eigen8internal21sizes_match_below_dimIKNS_5SizesIJLx81ELx2EEEES4_Ly1ELy1EE3runERS4_S6_"
 "_ZN5Eigen8internal21sizes_match_below_dimIKNS_5SizesIJLx81ELx2EEEES4_Ly2ELy2EE3runERS4_S6_"
 "_ZN5Eigen8internal21sizes_match_below_dimIKNS_5SizesIJLx9EEEES4_Ly0ELy0EE3runERS4_S6_"
 "_ZN5Eigen8internal21sizes_match_below_dimIKNS_5SizesIJLx9EEEES4_Ly1ELy1EE3runERS4_S6_"
 "_ZN5Eigen8internal21sizes_match_below_dimIKNS_5SizesIJLx9ELx2EEEES4_Ly0ELy0EE3runERS4_S6_"
 "_ZN5Eigen8internal21sizes_match_below_dimIKNS_5SizesIJLx9ELx2EEEES4_Ly1ELy1EE3runERS4_S6_"
 "_ZN5Eigen8internal21sizes_match_below_dimIKNS_5SizesIJLx9ELx2EEEES4_Ly2ELy2EE3runERS4_S6_"
 "_ZN5Eigen8internal21sizes_match_below_dimIKNS_6DSizesIxLi1EEEKNS_5SizesIJLx4EEEELy0ELy0EE3runERS4_RS7_"
 "_ZN5Eigen8internal21sizes_match_below_dimIKNS_6DSizesIxLi1EEEKNS_5SizesIJLx4EEEELy1ELy1EE3runERS4_RS7_"
 "_ZN5Eigen8internal21sizes_match_below_dimIKNS_6DSizesIxLi1EEES4_Ly0ELy0EE3runERS4_S6_"
 "_ZN5Eigen8internal21sizes_match_below_dimIKNS_6DSizesIxLi1EEES4_Ly1ELy1EE3runERS4_S6_"
 "_ZN5Eigen8internal21sizes_match_below_dimIKNS_6DSizesIxLi2EEEKNS_5SizesIJLx81ELx2EEEELy0ELy0EE3runERS4_RS7_"
 "_ZN5Eigen8internal21sizes_match_below_dimIKNS_6DSizesIxLi2EEEKNS_5SizesIJLx81ELx2EEEELy1ELy1EE3runERS4_RS7_"
 "_ZN5Eigen8internal21sizes_match_below_dimIKNS_6DSizesIxLi2EEEKNS_5SizesIJLx81ELx2EEEELy2ELy2EE3runERS4_RS7_"
 "_ZN5Eigen8internal21sizes_match_below_dimIKNS_6DSizesIxLi2EEES4_Ly0ELy0EE3runERS4_S6_"
 "_ZN5Eigen8internal21sizes_match_below_dimIKNS_6DSizesIxLi2EEES4_Ly1ELy1EE3runERS4_S6_"
 "_ZN5Eigen8internal21sizes_match_below_dimIKNS_6DSizesIxLi2EEES4_Ly2ELy2EE3runERS4_S6_"
 "_ZN5Eigen8internal21sizes_match_below_dimIKNS_6DSizesIxLi3EEEKNS_5SizesIJLx4ELx5ELx2EEEELy0ELy0EE3runERS4_RS7_"
 "_ZN5Eigen8internal21sizes_match_below_dimIKNS_6DSizesIxLi3EEEKNS_5SizesIJLx4ELx5ELx2EEEELy1ELy1EE3runERS4_RS7_"
 "_ZN5Eigen8internal21sizes_match_below_dimIKNS_6DSizesIxLi3EEEKNS_5SizesIJLx4ELx5ELx2EEEELy2ELy2EE3runERS4_RS7_"
 "_ZN5Eigen8internal21sizes_match_below_dimIKNS_6DSizesIxLi3EEEKNS_5SizesIJLx4ELx5ELx2EEEELy3ELy3EE3runERS4_RS7_"
 "_ZN5Eigen8internal21sizes_match_below_dimIKNS_6DSizesIxLi3EEEKNS_5SizesIJLx7ELx66ELx2EEEELy0ELy0EE3runERS4_RS7_"
 "_ZN5Eigen8internal21sizes_match_below_dimIKNS_6DSizesIxLi3EEEKNS_5SizesIJLx7ELx66ELx2EEEELy1ELy1EE3runERS4_RS7_"
 "_ZN5Eigen8internal21sizes_match_below_dimIKNS_6DSizesIxLi3EEEKNS_5SizesIJLx7ELx66ELx2EEEELy2ELy2EE3runERS4_RS7_"
 "_ZN5Eigen8internal21sizes_match_below_dimIKNS_6DSizesIxLi3EEEKNS_5SizesIJLx7ELx66ELx2EEEELy3ELy3EE3runERS4_RS7_"
 "_ZN5Eigen8internal21sizes_match_below_dimIKNS_6DSizesIxLi3EEEKNS_5SizesIJLx7ELx9ELx2EEEELy0ELy0EE3runERS4_RS7_"
 "_ZN5Eigen8internal21sizes_match_below_dimIKNS_6DSizesIxLi3EEEKNS_5SizesIJLx7ELx9ELx2EEEELy1ELy1EE3runERS4_RS7_"
 "_ZN5Eigen8internal21sizes_match_below_dimIKNS_6DSizesIxLi3EEEKNS_5SizesIJLx7ELx9ELx2EEEELy2ELy2EE3runERS4_RS7_"
 "_ZN5Eigen8internal21sizes_match_below_dimIKNS_6DSizesIxLi3EEEKNS_5SizesIJLx7ELx9ELx2EEEELy3ELy3EE3runERS4_RS7_"
 "_ZN5Eigen8internal21sizes_match_below_dimIKNS_6DSizesIxLi3EEES4_Ly0ELy0EE3runERS4_S6_"
 "_ZN5Eigen8internal21sizes_match_below_dimIKNS_6DSizesIxLi3EEES4_Ly1ELy1EE3runERS4_S6_"
 "_ZN5Eigen8internal21sizes_match_below_dimIKNS_6DSizesIxLi3EEES4_Ly2ELy2EE3runERS4_S6_"
 "_ZN5Eigen8internal21sizes_match_below_dimIKNS_6DSizesIxLi3EEES4_Ly3ELy3EE3runERS4_S6_"
 "_ZN5Eigen8internal21sizes_match_below_dimIKNS_6DSizesIxLi4EEEKNS_5SizesIJLx3ELx6ELx10ELx2EEEELy0ELy0EE3runERS4_RS7_"
 "_ZN5Eigen8internal21sizes_match_below_dimIKNS_6DSizesIxLi4EEEKNS_5SizesIJLx3ELx6ELx10ELx2EEEELy1ELy1EE3runERS4_RS7_"
 "_ZN5Eigen8internal21sizes_match_below_dimIKNS_6DSizesIxLi4EEEKNS_5SizesIJLx3ELx6ELx10ELx2EEEELy2ELy2EE3runERS4_RS7_"
 "_ZN5Eigen8internal21sizes_match_below_dimIKNS_6DSizesIxLi4EEEKNS_5SizesIJLx3ELx6ELx10ELx2EEEELy3ELy3EE3runERS4_RS7_"
 "_ZN5Eigen8internal21sizes_match_below_dimIKNS_6DSizesIxLi4EEEKNS_5SizesIJLx3ELx6ELx10ELx2EEEELy4ELy4EE3runERS4_RS7_"
 "_ZN5Eigen8internal21sizes_match_below_dimIKNS_6DSizesIxLi4EEEKNS_5SizesIJLx3ELx7ELx5ELx2EEEELy0ELy0EE3runERS4_RS7_"
 "_ZN5Eigen8internal21sizes_match_below_dimIKNS_6DSizesIxLi4EEEKNS_5SizesIJLx3ELx7ELx5ELx2EEEELy1ELy1EE3runERS4_RS7_"
 "_ZN5Eigen8internal21sizes_match_below_dimIKNS_6DSizesIxLi4EEEKNS_5SizesIJLx3ELx7ELx5ELx2EEEELy2ELy2EE3runERS4_RS7_"
 "_ZN5Eigen8internal21sizes_match_below_dimIKNS_6DSizesIxLi4EEEKNS_5SizesIJLx3ELx7ELx5ELx2EEEELy3ELy3EE3runERS4_RS7_"
 "_ZN5Eigen8internal21sizes_match_below_dimIKNS_6DSizesIxLi4EEEKNS_5SizesIJLx3ELx7ELx5ELx2EEEELy4ELy4EE3runERS4_RS7_"
 "_ZN5Eigen8internal21sizes_match_below_dimIKNS_6DSizesIxLi4EEEKNS_5SizesIJLx3ELx7ELx66ELx2EEEELy0ELy0EE3runERS4_RS7_"
 "_ZN5Eigen8internal21sizes_match_below_dimIKNS_6DSizesIxLi4EEEKNS_5SizesIJLx3ELx7ELx66ELx2EEEELy1ELy1EE3runERS4_RS7_"
 "_ZN5Eigen8internal21sizes_match_below_dimIKNS_6DSizesIxLi4EEEKNS_5SizesIJLx3ELx7ELx66ELx2EEEELy2ELy2EE3runERS4_RS7_"
 "_ZN5Eigen8internal21sizes_match_below_dimIKNS_6DSizesIxLi4EEEKNS_5SizesIJLx3ELx7ELx66ELx2EEEELy3ELy3EE3runERS4_RS7_"
 "_ZN5Eigen8internal21sizes_match_below_dimIKNS_6DSizesIxLi4EEEKNS_5SizesIJLx3ELx7ELx66ELx2EEEELy4ELy4EE3runERS4_RS7_"
 "_ZN5Eigen8internal21sizes_match_below_dimIKNS_6DSizesIxLi4EEEKNS_5SizesIJLx3ELx7ELx9ELx2EEEELy0ELy0EE3runERS4_RS7_"
 "_ZN5Eigen8internal21sizes_match_below_dimIKNS_6DSizesIxLi4EEEKNS_5SizesIJLx3ELx7ELx9ELx2EEEELy1ELy1EE3runERS4_RS7_"
 "_ZN5Eigen8internal21sizes_match_below_dimIKNS_6DSizesIxLi4EEEKNS_5SizesIJLx3ELx7ELx9ELx2EEEELy2ELy2EE3runERS4_RS7_"
 "_ZN5Eigen8internal21sizes_match_below_dimIKNS_6DSizesIxLi4EEEKNS_5SizesIJLx3ELx7ELx9ELx2EEEELy3ELy3EE3runERS4_RS7_"
 "_ZN5Eigen8internal21sizes_match_below_dimIKNS_6DSizesIxLi4EEEKNS_5SizesIJLx3ELx7ELx9ELx2EEEELy4ELy4EE3runERS4_RS7_"
 "_ZN5Eigen8internal21sizes_match_below_dimIKNS_6DSizesIxLi4EEEKNS_5SizesIJLx6ELx4ELx10ELx2EEEELy0ELy0EE3runERS4_RS7_"
 "_ZN5Eigen8internal21sizes_match_below_dimIKNS_6DSizesIxLi4EEEKNS_5SizesIJLx6ELx4ELx10ELx2EEEELy1ELy1EE3runERS4_RS7_"
 "_ZN5Eigen8internal21sizes_match_below_dimIKNS_6DSizesIxLi4EEEKNS_5SizesIJLx6ELx4ELx10ELx2EEEELy2ELy2EE3runERS4_RS7_"
 "_ZN5Eigen8internal21sizes_match_below_dimIKNS_6DSizesIxLi4EEEKNS_5SizesIJLx6ELx4ELx10ELx2EEEELy3ELy3EE3runERS4_RS7_"
 "_ZN5Eigen8internal21sizes_match_below_dimIKNS_6DSizesIxLi4EEEKNS_5SizesIJLx6ELx4ELx10ELx2EEEELy4ELy4EE3runERS4_RS7_"
 "_ZN5Eigen8internal21sizes_match_below_dimIKNS_6DSizesIxLi4EEEKNS_5SizesIJLx6ELx4ELx5ELx2EEEELy0ELy0EE3runERS4_RS7_"
 "_ZN5Eigen8internal21sizes_match_below_dimIKNS_6DSizesIxLi4EEEKNS_5SizesIJLx6ELx4ELx5ELx2EEEELy1ELy1EE3runERS4_RS7_"
 "_ZN5Eigen8internal21sizes_match_below_dimIKNS_6DSizesIxLi4EEEKNS_5SizesIJLx6ELx4ELx5ELx2EEEELy2ELy2EE3runERS4_RS7_"
 "_ZN5Eigen8internal21sizes_match_below_dimIKNS_6DSizesIxLi4EEEKNS_5SizesIJLx6ELx4ELx5ELx2EEEELy3ELy3EE3runERS4_RS7_"
 "_ZN5Eigen8internal21sizes_match_below_dimIKNS_6DSizesIxLi4EEEKNS_5SizesIJLx6ELx4ELx5ELx2EEEELy4ELy4EE3runERS4_RS7_"
 "_ZN5Eigen8internal21sizes_match_below_dimIKNS_6DSizesIxLi4EEEKNS_5SizesIJLx7ELx4ELx15ELx2EEEELy0ELy0EE3runERS4_RS7_"
 "_ZN5Eigen8internal21sizes_match_below_dimIKNS_6DSizesIxLi4EEEKNS_5SizesIJLx7ELx4ELx15ELx2EEEELy1ELy1EE3runERS4_RS7_"
 "_ZN5Eigen8internal21sizes_match_below_dimIKNS_6DSizesIxLi4EEEKNS_5SizesIJLx7ELx4ELx15ELx2EEEELy2ELy2EE3runERS4_RS7_"
 "_ZN5Eigen8internal21sizes_match_below_dimIKNS_6DSizesIxLi4EEEKNS_5SizesIJLx7ELx4ELx15ELx2EEEELy3ELy3EE3runERS4_RS7_"
 "_ZN5Eigen8internal21sizes_match_below_dimIKNS_6DSizesIxLi4EEEKNS_5SizesIJLx7ELx4ELx15ELx2EEEELy4ELy4EE3runERS4_RS7_"
 "_ZN5Eigen8internal21sizes_match_below_dimIKNS_6DSizesIxLi4EEEKNS_5SizesIJLx7ELx4ELx5ELx2EEEELy0ELy0EE3runERS4_RS7_"
 "_ZN5Eigen8internal21sizes_match_below_dimIKNS_6DSizesIxLi4EEEKNS_5SizesIJLx7ELx4ELx5ELx2EEEELy1ELy1EE3runERS4_RS7_"
 "_ZN5Eigen8internal21sizes_match_below_dimIKNS_6DSizesIxLi4EEEKNS_5SizesIJLx7ELx4ELx5ELx2EEEELy2ELy2EE3runERS4_RS7_"
 "_ZN5Eigen8internal21sizes_match_below_dimIKNS_6DSizesIxLi4EEEKNS_5SizesIJLx7ELx4ELx5ELx2EEEELy3ELy3EE3runERS4_RS7_"
 "_ZN5Eigen8internal21sizes_match_below_dimIKNS_6DSizesIxLi4EEEKNS_5SizesIJLx7ELx4ELx5ELx2EEEELy4ELy4EE3runERS4_RS7_"
 "_ZN5Eigen8internal21sizes_match_below_dimIKNS_6DSizesIxLi4EEES4_Ly0ELy0EE3runERS4_S6_"
 "_ZN5Eigen8internal21sizes_match_below_dimIKNS_6DSizesIxLi4EEES4_Ly1ELy1EE3runERS4_S6_"
 "_ZN5Eigen8internal21sizes_match_below_dimIKNS_6DSizesIxLi4EEES4_Ly2ELy2EE3runERS4_S6_"
 "_ZN5Eigen8internal21sizes_match_below_dimIKNS_6DSizesIxLi4EEES4_Ly3ELy3EE3runERS4_S6_"
 "_ZN5Eigen8internal21sizes_match_below_dimIKNS_6DSizesIxLi4EEES4_Ly4ELy4EE3runERS4_S6_"
 "_ZN5Eigen8internal21sizes_match_below_dimIKNS_6DSizesIxLi5EEES4_Ly0ELy0EE3runERS4_S6_"
 "_ZN5Eigen8internal21sizes_match_below_dimIKNS_6DSizesIxLi5EEES4_Ly1ELy1EE3runERS4_S6_"
 "_ZN5Eigen8internal21sizes_match_below_dimIKNS_6DSizesIxLi5EEES4_Ly2ELy2EE3runERS4_S6_"
 "_ZN5Eigen8internal21sizes_match_below_dimIKNS_6DSizesIxLi5EEES4_Ly3ELy3EE3runERS4_S6_"
 "_ZN5Eigen8internal21sizes_match_below_dimIKNS_6DSizesIxLi5EEES4_Ly4ELy4EE3runERS4_S6_"
 "_ZN5Eigen8internal21sizes_match_below_dimIKNS_6DSizesIxLi5EEES4_Ly5ELy5EE3runERS4_S6_"
 "_ZN5Eigen8internal24conditional_aligned_freeILb1EEEvPv"
 "_ZN5Eigen8internal26conditional_aligned_mallocILb1EEEPvy"
 "_ZN5Eigen8internal28check_that_malloc_is_allowedEv"
 "_ZN5Eigen8internal28conditional_aligned_new_autoIdLb1EEEPT_y"
 "_ZN5Eigen8internal31conditional_aligned_delete_autoIdLb1EEEvPT_y"
 "_ZN5Eigen8internal33tensor_index_linearization_helperIxLy2ELy0ELb0EE3runERKSt5arrayIxLy2EES6_"
 "_ZN5Eigen8internal33tensor_index_linearization_helperIxLy2ELy1ELb0EE3runERKSt5arrayIxLy2EES6_"
 "_ZN5Eigen8internal33tensor_index_linearization_helperIxLy3ELy0ELb0EE3runERKSt5arrayIxLy3EES6_"
 "_ZN5Eigen8internal33tensor_index_linearization_helperIxLy3ELy1ELb0EE3runERKSt5arrayIxLy3EES6_"
 "_ZN5Eigen8internal33tensor_index_linearization_helperIxLy3ELy2ELb0EE3runERKSt5arrayIxLy3EES6_"
 "_ZN5Eigen8internal33tensor_index_linearization_helperIxLy4ELy0ELb0EE3runERKSt5arrayIxLy4EES6_"
 "_ZN5Eigen8internal33tensor_index_linearization_helperIxLy4ELy1ELb0EE3runERKSt5arrayIxLy4EES6_"
 "_ZN5Eigen8internal33tensor_index_linearization_helperIxLy4ELy2ELb0EE3runERKSt5arrayIxLy4EES6_"
 "_ZN5Eigen8internal33tensor_index_linearization_helperIxLy4ELy3ELb0EE3runERKSt5arrayIxLy4EES6_"
 "_ZN5Eigen8internal44fixed_size_tensor_index_linearization_helperIxLy2ELy0ELb0EE3runINS0_12numeric_listIxJLx66ELx2EEEEEExRKSt5arrayIxLy2EERKT_"
 "_ZN5Eigen8internal44fixed_size_tensor_index_linearization_helperIxLy2ELy0ELb0EE3runINS0_12numeric_listIxJLx7ELx2EEEEEExRKSt5arrayIxLy2EERKT_"
 "_ZN5Eigen8internal44fixed_size_tensor_index_linearization_helperIxLy2ELy0ELb0EE3runINS0_12numeric_listIxJLx7ELx66EEEEEExRKSt5arrayIxLy2EERKT_"
 "_ZN5Eigen8internal44fixed_size_tensor_index_linearization_helperIxLy2ELy0ELb0EE3runINS0_12numeric_listIxJLx7ELx9EEEEEExRKSt5arrayIxLy2EERKT_"
 "_ZN5Eigen8internal44fixed_size_tensor_index_linearization_helperIxLy2ELy0ELb0EE3runINS0_12numeric_listIxJLx81ELx2EEEEEExRKSt5arrayIxLy2EERKT_"
 "_ZN5Eigen8internal44fixed_size_tensor_index_linearization_helperIxLy2ELy0ELb0EE3runINS0_12numeric_listIxJLx9ELx2EEEEEExRKSt5arrayIxLy2EERKT_"
 "_ZN5Eigen8internal44fixed_size_tensor_index_linearization_helperIxLy2ELy1ELb0EE3runINS0_12numeric_listIxJLx66ELx2EEEEEExRKSt5arrayIxLy2EERKT_"
 "_ZN5Eigen8internal44fixed_size_tensor_index_linearization_helperIxLy2ELy1ELb0EE3runINS0_12numeric_listIxJLx7ELx2EEEEEExRKSt5arrayIxLy2EERKT_"
 "_ZN5Eigen8internal44fixed_size_tensor_index_linearization_helperIxLy2ELy1ELb0EE3runINS0_12numeric_listIxJLx7ELx66EEEEEExRKSt5arrayIxLy2EERKT_"
 "_ZN5Eigen8internal44fixed_size_tensor_index_linearization_helperIxLy2ELy1ELb0EE3runINS0_12numeric_listIxJLx7ELx9EEEEEExRKSt5arrayIxLy2EERKT_"
 "_ZN5Eigen8internal44fixed_size_tensor_index_linearization_helperIxLy2ELy1ELb0EE3runINS0_12numeric_listIxJLx81ELx2EEEEEExRKSt5arrayIxLy2EERKT_"
 "_ZN5Eigen8internal44fixed_size_tensor_index_linearization_helperIxLy2ELy1ELb0EE3runINS0_12numeric_listIxJLx9ELx2EEEEEExRKSt5arrayIxLy2EERKT_"
 "_ZN5Eigen8internal44fixed_size_tensor_index_linearization_helperIxLy2ELy2ELb0EE3runINS0_12numeric_listIxJLx66ELx2EEEEEExRKSt5arrayIxLy2EERKT_"
 "_ZN5Eigen8internal44fixed_size_tensor_index_linearization_helperIxLy2ELy2ELb0EE3runINS0_12numeric_listIxJLx7ELx2EEEEEExRKSt5arrayIxLy2EERKT_"
 "_ZN5Eigen8internal44fixed_size_tensor_index_linearization_helperIxLy2ELy2ELb0EE3runINS0_12numeric_listIxJLx7ELx66EEEEEExRKSt5arrayIxLy2EERKT_"
 "_ZN5Eigen8internal44fixed_size_tensor_index_linearization_helperIxLy2ELy2ELb0EE3runINS0_12numeric_listIxJLx7ELx9EEEEEExRKSt5arrayIxLy2EERKT_"
 "_ZN5Eigen8internal44fixed_size_tensor_index_linearization_helperIxLy2ELy2ELb0EE3runINS0_12numeric_listIxJLx81ELx2EEEEEExRKSt5arrayIxLy2EERKT_"
 "_ZN5Eigen8internal44fixed_size_tensor_index_linearization_helperIxLy2ELy2ELb0EE3runINS0_12numeric_listIxJLx9ELx2EEEEEExRKSt5arrayIxLy2EERKT_"
 "_ZN5Eigen8internal44fixed_size_tensor_index_linearization_helperIxLy3ELy0ELb0EE3runINS0_12numeric_listIxJLx3ELx7ELx2EEEEEExRKSt5arrayIxLy3EERKT_"
 "_ZN5Eigen8internal44fixed_size_tensor_index_linearization_helperIxLy3ELy0ELb0EE3runINS0_12numeric_listIxJLx4ELx5ELx2EEEEEExRKSt5arrayIxLy3EERKT_"
 "_ZN5Eigen8internal44fixed_size_tensor_index_linearization_helperIxLy3ELy0ELb0EE3runINS0_12numeric_listIxJLx7ELx15ELx2EEEEEExRKSt5arrayIxLy3EERKT_"
 "_ZN5Eigen8internal44fixed_size_tensor_index_linearization_helperIxLy3ELy0ELb0EE3runINS0_12numeric_listIxJLx7ELx66ELx2EEEEEExRKSt5arrayIxLy3EERKT_"
 "_ZN5Eigen8internal44fixed_size_tensor_index_linearization_helperIxLy3ELy0ELb0EE3runINS0_12numeric_listIxJLx7ELx9ELx2EEEEEExRKSt5arrayIxLy3EERKT_"
 "_ZN5Eigen8internal44fixed_size_tensor_index_linearization_helperIxLy3ELy1ELb0EE3runINS0_12numeric_listIxJLx3ELx7ELx2EEEEEExRKSt5arrayIxLy3EERKT_"
 "_ZN5Eigen8internal44fixed_size_tensor_index_linearization_helperIxLy3ELy1ELb0EE3runINS0_12numeric_listIxJLx4ELx5ELx2EEEEEExRKSt5arrayIxLy3EERKT_"
 "_ZN5Eigen8internal44fixed_size_tensor_index_linearization_helperIxLy3ELy1ELb0EE3runINS0_12numeric_listIxJLx7ELx15ELx2EEEEEExRKSt5arrayIxLy3EERKT_"
 "_ZN5Eigen8internal44fixed_size_tensor_index_linearization_helperIxLy3ELy1ELb0EE3runINS0_12numeric_listIxJLx7ELx66ELx2EEEEEExRKSt5arrayIxLy3EERKT_"
 "_ZN5Eigen8internal44fixed_size_tensor_index_linearization_helperIxLy3ELy1ELb0EE3runINS0_12numeric_listIxJLx7ELx9ELx2EEEEEExRKSt5arrayIxLy3EERKT_"
 "_ZN5Eigen8internal44fixed_size_tensor_index_linearization_helperIxLy3ELy2ELb0EE3runINS0_12numeric_listIxJLx3ELx7ELx2EEEEEExRKSt5arrayIxLy3EERKT_"
 "_ZN5Eigen8internal44fixed_size_tensor_index_linearization_helperIxLy3ELy2ELb0EE3runINS0_12numeric_listIxJLx4ELx5ELx2EEEEEExRKSt5arrayIxLy3EERKT_"
 "_ZN5Eigen8internal44fixed_size_tensor_index_linearization_helperIxLy3ELy2ELb0EE3runINS0_12numeric_listIxJLx7ELx15ELx2EEEEEExRKSt5arrayIxLy3EERKT_"
 "_ZN5Eigen8internal44fixed_size_tensor_index_linearization_helperIxLy3ELy2ELb0EE3runINS0_12numeric_listIxJLx7ELx66ELx2EEEEEExRKSt5arrayIxLy3EERKT_"
 "_ZN5Eigen8internal44fixed_size_tensor_index_linearization_helperIxLy3ELy2ELb0EE3runINS0_12numeric_listIxJLx7ELx9ELx2EEEEEExRKSt5arrayIxLy3EERKT_"
 "_ZN5Eigen8internal44fixed_size_tensor_index_linearization_helperIxLy3ELy3ELb0EE3runINS0_12numeric_listIxJLx3ELx7ELx2EEEEEExRKSt5arrayIxLy3EERKT_"
 "_ZN5Eigen8internal44fixed_size_tensor_index_linearization_helperIxLy3ELy3ELb0EE3runINS0_12numeric_listIxJLx4ELx5ELx2EEEEEExRKSt5arrayIxLy3EERKT_"
 "_ZN5Eigen8internal44fixed_size_tensor_index_linearization_helperIxLy3ELy3ELb0EE3runINS0_12numeric_listIxJLx7ELx15ELx2EEEEEExRKSt5arrayIxLy3EERKT_"
 "_ZN5Eigen8internal44fixed_size_tensor_index_linearization_helperIxLy3ELy3ELb0EE3runINS0_12numeric_listIxJLx7ELx66ELx2EEEEEExRKSt5arrayIxLy3EERKT_"
 "_ZN5Eigen8internal44fixed_size_tensor_index_linearization_helperIxLy3ELy3ELb0EE3runINS0_12numeric_listIxJLx7ELx9ELx2EEEEEExRKSt5arrayIxLy3EERKT_"
 "_ZN5Eigen8internal44fixed_size_tensor_index_linearization_helperIxLy4ELy0ELb0EE3runINS0_12numeric_listIxJLx3ELx6ELx10ELx2EEEEEExRKSt5arrayIxLy4EERKT_"
 "_ZN5Eigen8internal44fixed_size_tensor_index_linearization_helperIxLy4ELy0ELb0EE3runINS0_12numeric_listIxJLx3ELx7ELx5ELx2EEEEEExRKSt5arrayIxLy4EERKT_"
 "_ZN5Eigen8internal44fixed_size_tensor_index_linearization_helperIxLy4ELy0ELb0EE3runINS0_12numeric_listIxJLx3ELx7ELx66ELx2EEEEEExRKSt5arrayIxLy4EERKT_"
 "_ZN5Eigen8internal44fixed_size_tensor_index_linearization_helperIxLy4ELy0ELb0EE3runINS0_12numeric_listIxJLx3ELx7ELx9ELx2EEEEEExRKSt5arrayIxLy4EERKT_"
 "_ZN5Eigen8internal44fixed_size_tensor_index_linearization_helperIxLy4ELy0ELb0EE3runINS0_12numeric_listIxJLx6ELx4ELx10ELx2EEEEEExRKSt5arrayIxLy4EERKT_"
 "_ZN5Eigen8internal44fixed_size_tensor_index_linearization_helperIxLy4ELy0ELb0EE3runINS0_12numeric_listIxJLx6ELx4ELx5ELx2EEEEEExRKSt5arrayIxLy4EERKT_"
 "_ZN5Eigen8internal44fixed_size_tensor_index_linearization_helperIxLy4ELy0ELb0EE3runINS0_12numeric_listIxJLx7ELx4ELx15ELx2EEEEEExRKSt5arrayIxLy4EERKT_"
 "_ZN5Eigen8internal44fixed_size_tensor_index_linearization_helperIxLy4ELy0ELb0EE3runINS0_12numeric_listIxJLx7ELx4ELx5ELx2EEEEEExRKSt5arrayIxLy4EERKT_"
 "_ZN5Eigen8internal44fixed_size_tensor_index_linearization_helperIxLy4ELy0ELb0EE3runINS0_12numeric_listIxJLx7ELx4ELx66ELx2EEEEEExRKSt5arrayIxLy4EERKT_"
 "_ZN5Eigen8internal44fixed_size_tensor_index_linearization_helperIxLy4ELy1ELb0EE3runINS0_12numeric_listIxJLx3ELx6ELx10ELx2EEEEEExRKSt5arrayIxLy4EERKT_"
 "_ZN5Eigen8internal44fixed_size_tensor_index_linearization_helperIxLy4ELy1ELb0EE3runINS0_12numeric_listIxJLx3ELx7ELx5ELx2EEEEEExRKSt5arrayIxLy4EERKT_"
 "_ZN5Eigen8internal44fixed_size_tensor_index_linearization_helperIxLy4ELy1ELb0EE3runINS0_12numeric_listIxJLx3ELx7ELx66ELx2EEEEEExRKSt5arrayIxLy4EERKT_"
 "_ZN5Eigen8internal44fixed_size_tensor_index_linearization_helperIxLy4ELy1ELb0EE3runINS0_12numeric_listIxJLx3ELx7ELx9ELx2EEEEEExRKSt5arrayIxLy4EERKT_"
 "_ZN5Eigen8internal44fixed_size_tensor_index_linearization_helperIxLy4ELy1ELb0EE3runINS0_12numeric_listIxJLx6ELx4ELx10ELx2EEEEEExRKSt5arrayIxLy4EERKT_"
 "_ZN5Eigen8internal44fixed_size_tensor_index_linearization_helperIxLy4ELy1ELb0EE3runINS0_12numeric_listIxJLx6ELx4ELx5ELx2EEEEEExRKSt5arrayIxLy4EERKT_"
 "_ZN5Eigen8internal44fixed_size_tensor_index_linearization_helperIxLy4ELy1ELb0EE3runINS0_12numeric_listIxJLx7ELx4ELx15ELx2EEEEEExRKSt5arrayIxLy4EERKT_"
 "_ZN5Eigen8internal44fixed_size_tensor_index_linearization_helperIxLy4ELy1ELb0EE3runINS0_12numeric_listIxJLx7ELx4ELx5ELx2EEEEEExRKSt5arrayIxLy4EERKT_"
 "_ZN5Eigen8internal44fixed_size_tensor_index_linearization_helperIxLy4ELy1ELb0EE3runINS0_12numeric_listIxJLx7ELx4ELx66ELx2EEEEEExRKSt5arrayIxLy4EERKT_"
 "_ZN5Eigen8internal44fixed_size_tensor_index_linearization_helperIxLy4ELy2ELb0EE3runINS0_12numeric_listIxJLx3ELx6ELx10ELx2EEEEEExRKSt5arrayIxLy4EERKT_"
 "_ZN5Eigen8internal44fixed_size_tensor_index_linearization_helperIxLy4ELy2ELb0EE3runINS0_12numeric_listIxJLx3ELx7ELx5ELx2EEEEEExRKSt5arrayIxLy4EERKT_"
 "_ZN5Eigen8internal44fixed_size_tensor_index_linearization_helperIxLy4ELy2ELb0EE3runINS0_12numeric_listIxJLx3ELx7ELx66ELx2EEEEEExRKSt5arrayIxLy4EERKT_"
 "_ZN5Eigen8internal44fixed_size_tensor_index_linearization_helperIxLy4ELy2ELb0EE3runINS0_12numeric_listIxJLx3ELx7ELx9ELx2EEEEEExRKSt5arrayIxLy4EERKT_"
 "_ZN5Eigen8internal44fixed_size_tensor_index_linearization_helperIxLy4ELy2ELb0EE3runINS0_12numeric_listIxJLx6ELx4ELx10ELx2EEEEEExRKSt5arrayIxLy4EERKT_"
 "_ZN5Eigen8internal44fixed_size_tensor_index_linearization_helperIxLy4ELy2ELb0EE3runINS0_12numeric_listIxJLx6ELx4ELx5ELx2EEEEEExRKSt5arrayIxLy4EERKT_"
 "_ZN5Eigen8internal44fixed_size_tensor_index_linearization_helperIxLy4ELy2ELb0EE3runINS0_12numeric_listIxJLx7ELx4ELx15ELx2EEEEEExRKSt5arrayIxLy4EERKT_"
 "_ZN5Eigen8internal44fixed_size_tensor_index_linearization_helperIxLy4ELy2ELb0EE3runINS0_12numeric_listIxJLx7ELx4ELx5ELx2EEEEEExRKSt5arrayIxLy4EERKT_"
 "_ZN5Eigen8internal44fixed_size_tensor_index_linearization_helperIxLy4ELy2ELb0EE3runINS0_12numeric_listIxJLx7ELx4ELx66ELx2EEEEEExRKSt5arrayIxLy4EERKT_"
 "_ZN5Eigen8internal44fixed_size_tensor_index_linearization_helperIxLy4ELy3ELb0EE3runINS0_12numeric_listIxJLx3ELx6ELx10ELx2EEEEEExRKSt5arrayIxLy4EERKT_"
 "_ZN5Eigen8internal44fixed_size_tensor_index_linearization_helperIxLy4ELy3ELb0EE3runINS0_12numeric_listIxJLx3ELx7ELx5ELx2EEEEEExRKSt5arrayIxLy4EERKT_"
 "_ZN5Eigen8internal44fixed_size_tensor_index_linearization_helperIxLy4ELy3ELb0EE3runINS0_12numeric_listIxJLx3ELx7ELx66ELx2EEEEEExRKSt5arrayIxLy4EERKT_"
 "_ZN5Eigen8internal44fixed_size_tensor_index_linearization_helperIxLy4ELy3ELb0EE3runINS0_12numeric_listIxJLx3ELx7ELx9ELx2EEEEEExRKSt5arrayIxLy4EERKT_"
 "_ZN5Eigen8internal44fixed_size_tensor_index_linearization_helperIxLy4ELy3ELb0EE3runINS0_12numeric_listIxJLx6ELx4ELx10ELx2EEEEEExRKSt5arrayIxLy4EERKT_"
 "_ZN5Eigen8internal44fixed_size_tensor_index_linearization_helperIxLy4ELy3ELb0EE3runINS0_12numeric_listIxJLx6ELx4ELx5ELx2EEEEEExRKSt5arrayIxLy4EERKT_"
 "_ZN5Eigen8internal44fixed_size_tensor_index_linearization_helperIxLy4ELy3ELb0EE3runINS0_12numeric_listIxJLx7ELx4ELx15ELx2EEEEEExRKSt5arrayIxLy4EERKT_"
 "_ZN5Eigen8internal44fixed_size_tensor_index_linearization_helperIxLy4ELy3ELb0EE3runINS0_12numeric_listIxJLx7ELx4ELx5ELx2EEEEEExRKSt5arrayIxLy4EERKT_"
 "_ZN5Eigen8internal44fixed_size_tensor_index_linearization_helperIxLy4ELy3ELb0EE3runINS0_12numeric_listIxJLx7ELx4ELx66ELx2EEEEEExRKSt5arrayIxLy4EERKT_"
 "_ZN5Eigen8internal44fixed_size_tensor_index_linearization_helperIxLy4ELy4ELb0EE3runINS0_12numeric_listIxJLx3ELx6ELx10ELx2EEEEEExRKSt5arrayIxLy4EERKT_"
 "_ZN5Eigen8internal44fixed_size_tensor_index_linearization_helperIxLy4ELy4ELb0EE3runINS0_12numeric_listIxJLx3ELx7ELx5ELx2EEEEEExRKSt5arrayIxLy4EERKT_"
 "_ZN5Eigen8internal44fixed_size_tensor_index_linearization_helperIxLy4ELy4ELb0EE3runINS0_12numeric_listIxJLx3ELx7ELx66ELx2EEEEEExRKSt5arrayIxLy4EERKT_"
 "_ZN5Eigen8internal44fixed_size_tensor_index_linearization_helperIxLy4ELy4ELb0EE3runINS0_12numeric_listIxJLx3ELx7ELx9ELx2EEEEEExRKSt5arrayIxLy4EERKT_"
 "_ZN5Eigen8internal44fixed_size_tensor_index_linearization_helperIxLy4ELy4ELb0EE3runINS0_12numeric_listIxJLx6ELx4ELx10ELx2EEEEEExRKSt5arrayIxLy4EERKT_"
 "_ZN5Eigen8internal44fixed_size_tensor_index_linearization_helperIxLy4ELy4ELb0EE3runINS0_12numeric_listIxJLx6ELx4ELx5ELx2EEEEEExRKSt5arrayIxLy4EERKT_"
 "_ZN5Eigen8internal44fixed_size_tensor_index_linearization_helperIxLy4ELy4ELb0EE3runINS0_12numeric_listIxJLx7ELx4ELx15ELx2EEEEEExRKSt5arrayIxLy4EERKT_"
 "_ZN5Eigen8internal44fixed_size_tensor_index_linearization_helperIxLy4ELy4ELb0EE3runINS0_12numeric_listIxJLx7ELx4ELx5ELx2EEEEEExRKSt5arrayIxLy4EERKT_"
 "_ZN5Eigen8internal44fixed_size_tensor_index_linearization_helperIxLy4ELy4ELb0EE3runINS0_12numeric_listIxJLx7ELx4ELx66ELx2EEEEEExRKSt5arrayIxLy4EERKT_"
 "_ZN5Eigen8internal5ploadIDv2_dEET_PKNS0_15unpacket_traitsIS3_E4typeE"
 "_ZN5Eigen8internal5pset1IDv2_dEET_RKNS0_15unpacket_traitsIS3_E4typeE"
 "_ZN5Eigen8internal6ploaduIDv2_dEET_PKNS0_15unpacket_traitsIS3_E4typeE"
 "_ZN5Eigen8internal6pstoreIdDv2_dEEvPT_RKT0_"
 "_ZN5Eigen8internal6reduceINS0_10product_opEJxEE3runEx"
 "_ZN5Eigen8internal6reduceINS0_10product_opEJxxEE3runExx"
 "_ZN5Eigen8internal6reduceINS0_10product_opEJxxxEE3runExxx"
 "_ZN5Eigen8internal6reduceINS0_10product_opEJxxxxEE3runExxxx"
 "_ZN5Eigen8internal7pstoreuIdDv2_dEEvPT_RKT0_"
 "_ZN5Eigen8internal8arg_prodIJxEEEDTclsrNS0_6reduceINS0_10product_opEJDpT_EEE3runspdecvPS4_Li0EEES5_"
 "_ZN5Eigen8internal8arg_prodIJxxEEEDTclsrNS0_6reduceINS0_10product_opEJDpT_EEE3runspdecvPS4_Li0EEES5_"
 "_ZN5Eigen8internal8arg_prodIJxxxEEEDTclsrNS0_6reduceINS0_10product_opEJDpT_EEE3runspdecvPS4_Li0EEES5_"
 "_ZN5Eigen8internal8arg_prodIJxxxxEEEDTclsrNS0_6reduceINS0_10product_opEJDpT_EEE3runspdecvPS4_Li0EEES5_"
 "_ZN5Eigen8internal9array_getILx0EJLx2EEEExRKNS_5SizesIJXspT0_EEEE"
 "_ZN5Eigen8internal9array_getILx0EJLx3EEEExRKNS_5SizesIJXspT0_EEEE"
 "_ZN5Eigen8internal9array_getILx0EJLx3ELx6ELx10ELx2EEEExRKNS_5SizesIJXspT0_EEEE"
 "_ZN5Eigen8internal9array_getILx0EJLx3ELx7ELx2EEEExRKNS_5SizesIJXspT0_EEEE"
 "_ZN5Eigen8internal9array_getILx0EJLx3ELx7ELx5ELx2EEEExRKNS_5SizesIJXspT0_EEEE"
 "_ZN5Eigen8internal9array_getILx0EJLx3ELx7ELx66ELx2EEEExRKNS_5SizesIJXspT0_EEEE"
 "_ZN5Eigen8internal9array_getILx0EJLx3ELx7ELx9ELx2EEEExRKNS_5SizesIJXspT0_EEEE"
 "_ZN5Eigen8internal9array_getILx0EJLx4EEEExRKNS_5SizesIJXspT0_EEEE"
 "_ZN5Eigen8internal9array_getILx0EJLx4ELx5ELx2EEEExRKNS_5SizesIJXspT0_EEEE"
 "_ZN5Eigen8internal9array_getILx0EJLx66EEEExRKNS_5SizesIJXspT0_EEEE"
 "_ZN5Eigen8internal9array_getILx0EJLx66ELx2EEEExRKNS_5SizesIJXspT0_EEEE"
 "_ZN5Eigen8internal9array_getILx0EJLx6ELx4ELx10ELx2EEEExRKNS_5SizesIJXspT0_EEEE"
 "_ZN5Eigen8internal9array_getILx0EJLx6ELx4ELx5ELx2EEEExRKNS_5SizesIJXspT0_EEEE"
 "_ZN5Eigen8internal9array_getILx0EJLx7EEEExRKNS_5SizesIJXspT0_EEEE"
 "_ZN5Eigen8internal9array_getILx0EJLx7ELx15ELx2EEEExRKNS_5SizesIJXspT0_EEEE"
 "_ZN5Eigen8internal9array_getILx0EJLx7ELx2EEEExRKNS_5SizesIJXspT0_EEEE"
 "_ZN5Eigen8internal9array_getILx0EJLx7ELx4ELx15ELx2EEEExRKNS_5SizesIJXspT0_EEEE"
 "_ZN5Eigen8internal9array_getILx0EJLx7ELx4ELx5ELx2EEEExRKNS_5SizesIJXspT0_EEEE"
 "_ZN5Eigen8internal9array_getILx0EJLx7ELx4ELx66ELx2EEEExRKNS_5SizesIJXspT0_EEEE"
 "_ZN5Eigen8internal9array_getILx0EJLx7ELx66EEEExRKNS_5SizesIJXspT0_EEEE"
 "_ZN5Eigen8internal9array_getILx0EJLx7ELx66ELx2EEEExRKNS_5SizesIJXspT0_EEEE"
 "_ZN5Eigen8internal9array_getILx0EJLx7ELx9EEEExRKNS_5SizesIJXspT0_EEEE"
 "_ZN5Eigen8internal9array_getILx0EJLx7ELx9ELx2EEEExRKNS_5SizesIJXspT0_EEEE"
 "_ZN5Eigen8internal9array_getILx0EJLx81EEEExRKNS_5SizesIJXspT0_EEEE"
 "_ZN5Eigen8internal9array_getILx0EJLx81ELx2EEEExRKNS_5SizesIJXspT0_EEEE"
 "_ZN5Eigen8internal9array_getILx0EJLx9EEEExRKNS_5SizesIJXspT0_EEEE"
 "_ZN5Eigen8internal9array_getILx0EJLx9ELx2EEEExRKNS_5SizesIJXspT0_EEEE"
 "_ZN5Eigen8internal9array_getILx1EJLx3ELx6ELx10ELx2EEEExRKNS_5SizesIJXspT0_EEEE"
 "_ZN5Eigen8internal9array_getILx1EJLx3ELx7ELx2EEEExRKNS_5SizesIJXspT0_EEEE"
 "_ZN5Eigen8internal9array_getILx1EJLx3ELx7ELx5ELx2EEEExRKNS_5SizesIJXspT0_EEEE"
 "_ZN5Eigen8internal9array_getILx1EJLx3ELx7ELx66ELx2EEEExRKNS_5SizesIJXspT0_EEEE"
 "_ZN5Eigen8internal9array_getILx1EJLx3ELx7ELx9ELx2EEEExRKNS_5SizesIJXspT0_EEEE"
 "_ZN5Eigen8internal9array_getILx1EJLx4ELx5ELx2EEEExRKNS_5SizesIJXspT0_EEEE"
 "_ZN5Eigen8internal9array_getILx1EJLx66ELx2EEEExRKNS_5SizesIJXspT0_EEEE"
 "_ZN5Eigen8internal9array_getILx1EJLx6ELx4ELx10ELx2EEEExRKNS_5SizesIJXspT0_EEEE"
 "_ZN5Eigen8internal9array_getILx1EJLx6ELx4ELx5ELx2EEEExRKNS_5SizesIJXspT0_EEEE"
 "_ZN5Eigen8internal9array_getILx1EJLx7ELx15ELx2EEEExRKNS_5SizesIJXspT0_EEEE"
 "_ZN5Eigen8internal9array_getILx1EJLx7ELx2EEEExRKNS_5SizesIJXspT0_EEEE"
 "_ZN5Eigen8internal9array_getILx1EJLx7ELx4ELx15ELx2EEEExRKNS_5SizesIJXspT0_EEEE"
 "_ZN5Eigen8internal9array_getILx1EJLx7ELx4ELx5ELx2EEEExRKNS_5SizesIJXspT0_EEEE"
 "_ZN5Eigen8internal9array_getILx1EJLx7ELx4ELx66ELx2EEEExRKNS_5SizesIJXspT0_EEEE"
 "_ZN5Eigen8internal9array_getILx1EJLx7ELx66EEEExRKNS_5SizesIJXspT0_EEEE"
 "_ZN5Eigen8internal9array_getILx1EJLx7ELx66ELx2EEEExRKNS_5SizesIJXspT0_EEEE"
 "_ZN5Eigen8internal9array_getILx1EJLx7ELx9EEEExRKNS_5SizesIJXspT0_EEEE"
 "_ZN5Eigen8internal9array_getILx1EJLx7ELx9ELx2EEEExRKNS_5SizesIJXspT0_EEEE"
 "_ZN5Eigen8internal9array_getILx1EJLx81ELx2EEEExRKNS_5SizesIJXspT0_EEEE"
 "_ZN5Eigen8internal9array_getILx1EJLx9ELx2EEEExRKNS_5SizesIJXspT0_EEEE"
 "_ZN5Eigen8internal9array_getILx2EJLx3ELx6ELx10ELx2EEEExRKNS_5SizesIJXspT0_EEEE"
 "_ZN5Eigen8internal9array_getILx2EJLx3ELx7ELx2EEEExRKNS_5SizesIJXspT0_EEEE"
 "_ZN5Eigen8internal9array_getILx2EJLx3ELx7ELx5ELx2EEEExRKNS_5SizesIJXspT0_EEEE"
 "_ZN5Eigen8internal9array_getILx2EJLx3ELx7ELx66ELx2EEEExRKNS_5SizesIJXspT0_EEEE"
 "_ZN5Eigen8internal9array_getILx2EJLx3ELx7ELx9ELx2EEEExRKNS_5SizesIJXspT0_EEEE"
 "_ZN5Eigen8internal9array_getILx2EJLx4ELx5ELx2EEEExRKNS_5SizesIJXspT0_EEEE"
 "_ZN5Eigen8internal9array_getILx2EJLx6ELx4ELx10ELx2EEEExRKNS_5SizesIJXspT0_EEEE"
 "_ZN5Eigen8internal9array_getILx2EJLx6ELx4ELx5ELx2EEEExRKNS_5SizesIJXspT0_EEEE"
 "_ZN5Eigen8internal9array_getILx2EJLx7ELx15ELx2EEEExRKNS_5SizesIJXspT0_EEEE"
 "_ZN5Eigen8internal9array_getILx2EJLx7ELx4ELx15ELx2EEEExRKNS_5SizesIJXspT0_EEEE"
 "_ZN5Eigen8internal9array_getILx2EJLx7ELx4ELx5ELx2EEEExRKNS_5SizesIJXspT0_EEEE"
 "_ZN5Eigen8internal9array_getILx2EJLx7ELx4ELx66ELx2EEEExRKNS_5SizesIJXspT0_EEEE"
 "_ZN5Eigen8internal9array_getILx2EJLx7ELx66ELx2EEEExRKNS_5SizesIJXspT0_EEEE"
 "_ZN5Eigen8internal9array_getILx2EJLx7ELx9ELx2EEEExRKNS_5SizesIJXspT0_EEEE"
 "_ZN5Eigen8internal9array_getILx3EJLx3ELx6ELx10ELx2EEEExRKNS_5SizesIJXspT0_EEEE"
 "_ZN5Eigen8internal9array_getILx3EJLx3ELx7ELx5ELx2EEEExRKNS_5SizesIJXspT0_EEEE"
 "_ZN5Eigen8internal9array_getILx3EJLx3ELx7ELx66ELx2EEEExRKNS_5SizesIJXspT0_EEEE"
 "_ZN5Eigen8internal9array_getILx3EJLx3ELx7ELx9ELx2EEEExRKNS_5SizesIJXspT0_EEEE"
 "_ZN5Eigen8internal9array_getILx3EJLx6ELx4ELx10ELx2EEEExRKNS_5SizesIJXspT0_EEEE"
 "_ZN5Eigen8internal9array_getILx3EJLx6ELx4ELx5ELx2EEEExRKNS_5SizesIJXspT0_EEEE"
 "_ZN5Eigen8internal9array_getILx3EJLx7ELx4ELx15ELx2EEEExRKNS_5SizesIJXspT0_EEEE"
 "_ZN5Eigen8internal9array_getILx3EJLx7ELx4ELx5ELx2EEEExRKNS_5SizesIJXspT0_EEEE"
 "_ZN5Eigen8internal9array_getILx3EJLx7ELx4ELx66ELx2EEEExRKNS_5SizesIJXspT0_EEEE"
 "_ZN5Eigen8internal9array_getILy0ExLy1EEERKT0_RKSt5arrayIS2_XT1_EE"
 "_ZN5Eigen8internal9array_getILy0ExLy2EEERKT0_RKSt5arrayIS2_XT1_EE"
 "_ZN5Eigen8internal9array_getILy0ExLy3EEERKT0_RKSt5arrayIS2_XT1_EE"
 "_ZN5Eigen8internal9array_getILy0ExLy4EEERKT0_RKSt5arrayIS2_XT1_EE"
 "_ZN5Eigen8internal9array_getILy0ExLy5EEERKT0_RKSt5arrayIS2_XT1_EE"
 "_ZN5Eigen8internal9array_getILy1ExLy2EEERKT0_RKSt5arrayIS2_XT1_EE"
 "_ZN5Eigen8internal9array_getILy1ExLy2EEERT0_RSt5arrayIS2_XT1_EE"
 "_ZN5Eigen8internal9array_getILy1ExLy3EEERKT0_RKSt5arrayIS2_XT1_EE"
 "_ZN5Eigen8internal9array_getILy1ExLy3EEERT0_RSt5arrayIS2_XT1_EE"
 "_ZN5Eigen8internal9array_getILy1ExLy4EEERKT0_RKSt5arrayIS2_XT1_EE"
 "_ZN5Eigen8internal9array_getILy1ExLy4EEERT0_RSt5arrayIS2_XT1_EE"
 "_ZN5Eigen8internal9array_getILy1ExLy5EEERKT0_RKSt5arrayIS2_XT1_EE"
 "_ZN5Eigen8internal9array_getILy1ExLy5EEERT0_RSt5arrayIS2_XT1_EE"
 "_ZN5Eigen8internal9array_getILy2ExLy3EEERKT0_RKSt5arrayIS2_XT1_EE"
 "_ZN5Eigen8internal9array_getILy2ExLy3EEERT0_RSt5arrayIS2_XT1_EE"
 "_ZN5Eigen8internal9array_getILy2ExLy4EEERKT0_RKSt5arrayIS2_XT1_EE"
 "_ZN5Eigen8internal9array_getILy2ExLy4EEERT0_RSt5arrayIS2_XT1_EE"
 "_ZN5Eigen8internal9array_getILy2ExLy5EEERKT0_RKSt5arrayIS2_XT1_EE"
 "_ZN5Eigen8internal9array_getILy2ExLy5EEERT0_RSt5arrayIS2_XT1_EE"
 "_ZN5Eigen8internal9array_getILy3ExLy4EEERKT0_RKSt5arrayIS2_XT1_EE"
 "_ZN5Eigen8internal9array_getILy3ExLy4EEERT0_RSt5arrayIS2_XT1_EE"
 "_ZN5Eigen8internal9array_getILy3ExLy5EEERKT0_RKSt5arrayIS2_XT1_EE"
 "_ZN5Eigen8internal9array_getILy3ExLy5EEERT0_RSt5arrayIS2_XT1_EE"
 "_ZN5Eigen8internal9array_getILy4ExLy5EEERKT0_RKSt5arrayIS2_XT1_EE"
 "_ZN5Eigen8internal9array_getILy4ExLy5EEERT0_RSt5arrayIS2_XT1_EE"
 "_ZN5Eigen9TensorMapINS_6TensorIdLi1ELi0ExEELi0ENS_11MakePointerEEC1IiEEPdRKT_"
 "_ZN5Eigen9TensorMapINS_6TensorIdLi2ELi0ExEELi0ENS_11MakePointerEEC1IJiEEEPdxDpT_"
 "_ZN5Eigen9TensorMapINS_6TensorIdLi3ELi0ExEELi0ENS_11MakePointerEEC1IJiiEEEPdxDpT_"
 "_ZN5Eigen9TensorMapINS_6TensorIdLi4ELi0ExEELi0ENS_11MakePointerEEC1IJiiiEEEPdxDpT_"
 "_ZN5Eigen9TensorMapINS_6TensorIiLi1ELi0ExEELi0ENS_11MakePointerEEC1IiEEPiRKT_"
 "_ZN5Eigen9TensorMapINS_6TensorIiLi2ELi0ExEELi0ENS_11MakePointerEEC1IJiEEEPixDpT_"
 "_ZN8leapfrog7OptionsIdEC1Eiiiii"
 "_ZN8leapfrog8get_optsIdEEKNS_7OptionsIT_EEiiSt17basic_string_viewIcSt11char_traitsIcEEiRKSt6vectorIiSaIiEE"
 "_ZN8leapfrog8internal10parse_dataIdJiEEEDaN4Rcpp6VectorILi19ENS2_15PreserveStorageEEERKNSt7__cxx1112basic_stringIcSt11char_traitsIcESaIcEEEDpT0_"
 "_ZN8leapfrog8internal10parse_dataIdJiiEEEDaN4Rcpp6VectorILi19ENS2_15PreserveStorageEEERKNSt7__cxx1112basic_stringIcSt11char_traitsIcESaIcEEEDpT0_"
 "_ZN8leapfrog8internal10parse_dataIdJiiiEEEDaN4Rcpp6VectorILi19ENS2_15PreserveStorageEEERKNSt7__cxx1112basic_stringIcSt11char_traitsIcESaIcEEEDpT0_"
 "_ZN8leapfrog8internal10parse_dataIdJiiiiEEEDaN4Rcpp6VectorILi19ENS2_15PreserveStorageEEERKNSt7__cxx1112basic_stringIcSt11char_traitsIcESaIcEEEDpT0_"
 "_ZN8leapfrog8internal10parse_dataIiJiEEEDaN4Rcpp6VectorILi19ENS2_15PreserveStorageEEERKNSt7__cxx1112basic_stringIcSt11char_traitsIcESaIcEEEDpT0_"
 "_ZN8leapfrog8internal10parse_dataIiJiiEEEDaN4Rcpp6VectorILi19ENS2_15PreserveStorageEEERKNSt7__cxx1112basic_stringIcSt11char_traitsIcESaIcEEEDpT0_"
 "_ZN8leapfrog8internal11ConfigMixerILNS_8LanguageE1EJdNS_10ChildModelEEE11OutputState10save_stateINS1_ILS2_1EJdS3_NS0_4PairILb1ENS0_8HcConfigIdS3_EEEEEE5StateEEEvyRKT_"
 "_ZN8leapfrog8internal11ConfigMixerILNS_8LanguageE1EJdNS_10ChildModelEEE11OutputStateC2Ei"
 "_ZN8leapfrog8internal11ConfigMixerILNS_8LanguageE1EJdNS_10ChildModelEEE12build_outputIJRKNS1_ILS2_1EJdS3_NS0_4PairILb1ENS0_8HcConfigIdS3_EEEEEE11OutputStateERN4Rcpp6VectorILi19ENSE_15PreserveStorageEEERNSF_ILi16ESG_EEyEEEiiDpOT_"
 "_ZN8leapfrog8internal11ConfigMixerILNS_8LanguageE1EJdNS_10ChildModelEEE12Intermediate5resetEv"
 "_ZN8leapfrog8internal11ConfigMixerILNS_8LanguageE1EJdNS_10ChildModelEEE17get_initial_stateIJRN4Rcpp6VectorILi19ENS6_15PreserveStorageEEEEEENS4_5StateEDpOT_"
 "_ZN8leapfrog8internal11ConfigMixerILNS_8LanguageE1EJdNS_10ChildModelEEE21get_build_output_sizeEi"
 "_ZN8leapfrog8internal11ConfigMixerILNS_8LanguageE1EJdNS_10ChildModelEEE24build_output_single_yearIJRKNS1_ILS2_1EJdS3_NS0_4PairILb1ENS0_8HcConfigIdS3_EEEEEE5StateERN4Rcpp6VectorILi19ENSE_15PreserveStorageEEERNSF_ILi16ESG_EEEEEiiDpOT_"
 "_ZN8leapfrog8internal11ConfigMixerILNS_8LanguageE1EJdNS_10ChildModelEEE5State5resetEv"
 "_ZN8leapfrog8internal11ConfigMixerILNS_8LanguageE1EJdNS_10ChildModelEEE8get_parsIJRKN4Rcpp6VectorILi19ENS6_15PreserveStorageEEERKNS_7OptionsIdEEEEENS4_4ParsEDpOT_"
 "_ZN8leapfrog8internal11ConfigMixerILNS_8LanguageE1EJdNS_10ChildModelENS0_4PairILb1ENS0_8DpConfigIdS3_EEEENS4_ILb1ENS0_8HaConfigIdS3_EEEENS4_ILb1ENS0_8HcConfigIdS3_EEEEEE11OutputState10save_stateEyRKNSE_5StateE"
 "_ZN8leapfrog8internal11ConfigMixerILNS_8LanguageE1EJdNS_10ChildModelENS0_4PairILb1ENS0_8DpConfigIdS3_EEEENS4_ILb1ENS0_8HaConfigIdS3_EEEENS4_ILb1ENS0_8HcConfigIdS3_EEEEEE11OutputStateC1Ei"
 "_ZN8leapfrog8internal11ConfigMixerILNS_8LanguageE1EJdNS_10ChildModelENS0_4PairILb1ENS0_8DpConfigIdS3_EEEENS4_ILb1ENS0_8HaConfigIdS3_EEEENS4_ILb1ENS0_8HcConfigIdS3_EEEEEE11OutputStateC1ERKSF_"
 "_ZN8leapfrog8internal11ConfigMixerILNS_8LanguageE1EJdNS_10ChildModelENS0_4PairILb1ENS0_8DpConfigIdS3_EEEENS4_ILb1ENS0_8HaConfigIdS3_EEEENS4_ILb1ENS0_8HcConfigIdS3_EEEEEE11OutputStateD1Ev"
 "_ZN8leapfrog8internal11ConfigMixerILNS_8LanguageE1EJdNS_10ChildModelENS0_4PairILb1ENS0_8DpConfigIdS3_EEEENS4_ILb1ENS0_8HaConfigIdS3_EEEENS4_ILb1ENS0_8HcConfigIdS3_EEEEEE12build_outputIJRN4Rcpp6VectorILi19ENSG_15PreserveStorageEEERNSH_ILi16ESI_EEyEEEiiRKNSE_11OutputStateEDpOT_"
 "_ZN8leapfrog8internal11ConfigMixerILNS_8LanguageE1EJdNS_10ChildModelENS0_4PairILb1ENS0_8DpConfigIdS3_EEEENS4_ILb1ENS0_8HaConfigIdS3_EEEENS4_ILb1ENS0_8HcConfigIdS3_EEEEEE12Intermediate5resetEv"
 "_ZN8leapfrog8internal11ConfigMixerILNS_8LanguageE1EJdNS_10ChildModelENS0_4PairILb1ENS0_8DpConfigIdS3_EEEENS4_ILb1ENS0_8HaConfigIdS3_EEEENS4_ILb1ENS0_8HcConfigIdS3_EEEEEE12IntermediateC1Ev"
 "_ZN8leapfrog8internal11ConfigMixerILNS_8LanguageE1EJdNS_10ChildModelENS0_4PairILb1ENS0_8DpConfigIdS3_EEEENS4_ILb1ENS0_8HaConfigIdS3_EEEENS4_ILb1ENS0_8HcConfigIdS3_EEEEEE17get_initial_stateIJRN4Rcpp6VectorILi19ENSG_15PreserveStorageEEEEEENSE_5StateEDpOT_"
 "_ZN8leapfrog8internal11ConfigMixerILNS_8LanguageE1EJdNS_10ChildModelENS0_4PairILb1ENS0_8DpConfigIdS3_EEEENS4_ILb1ENS0_8HaConfigIdS3_EEEENS4_ILb1ENS0_8HcConfigIdS3_EEEEEE21get_build_output_sizeEi"
 "_ZN8leapfrog8internal11ConfigMixerILNS_8LanguageE1EJdNS_10ChildModelENS0_4PairILb1ENS0_8DpConfigIdS3_EEEENS4_ILb1ENS0_8HaConfigIdS3_EEEENS4_ILb1ENS0_8HcConfigIdS3_EEEEEE24build_output_single_yearIJRN4Rcpp6VectorILi19ENSG_15PreserveStorageEEERNSH_ILi16ESI_EEEEEiiRKNSE_5StateEDpOT_"
 "_ZN8leapfrog8internal11ConfigMixerILNS_8LanguageE1EJdNS_10ChildModelENS0_4PairILb1ENS0_8DpConfigIdS3_EEEENS4_ILb1ENS0_8HaConfigIdS3_EEEENS4_ILb1ENS0_8HcConfigIdS3_EEEEEE5State5resetEv"
 "_ZN8leapfrog8internal11ConfigMixerILNS_8LanguageE1EJdNS_10ChildModelENS0_4PairILb1ENS0_8DpConfigIdS3_EEEENS4_ILb1ENS0_8HaConfigIdS3_EEEENS4_ILb1ENS0_8HcConfigIdS3_EEEEEE5StateaSEOSF_"
 "_ZN8leapfrog8internal11ConfigMixerILNS_8LanguageE1EJdNS_10ChildModelENS0_4PairILb1ENS0_8DpConfigIdS3_EEEENS4_ILb1ENS0_8HaConfigIdS3_EEEENS4_ILb1ENS0_8HcConfigIdS3_EEEEEE5StateC1EOSF_"
 "_ZN8leapfrog8internal11ConfigMixerILNS_8LanguageE1EJdNS_10ChildModelENS0_4PairILb1ENS0_8DpConfigIdS3_EEEENS4_ILb1ENS0_8HaConfigIdS3_EEEENS4_ILb1ENS0_8HcConfigIdS3_EEEEEE5StateC1ERKSF_"
 "_ZN8leapfrog8internal11ConfigMixerILNS_8LanguageE1EJdNS_10ChildModelENS0_4PairILb1ENS0_8DpConfigIdS3_EEEENS4_ILb1ENS0_8HaConfigIdS3_EEEENS4_ILb1ENS0_8HcConfigIdS3_EEEEEE8get_parsIJRKN4Rcpp6VectorILi19ENSG_15PreserveStorageEEERKNS_7OptionsIdEEEEENSE_4ParsEDpOT_"
 "_ZN8leapfrog8internal11ConfigMixerILNS_8LanguageE1EJdNS_10ChildModelENS0_4PairILb1ENS0_8HaConfigIdS3_EEEENS4_ILb1ENS0_8HcConfigIdS3_EEEEEE11OutputState10save_stateEyRKNSB_5StateE"
 "_ZN8leapfrog8internal11ConfigMixerILNS_8LanguageE1EJdNS_10ChildModelENS0_4PairILb1ENS0_8HaConfigIdS3_EEEENS4_ILb1ENS0_8HcConfigIdS3_EEEEEE11OutputStateC2Ei"
 "_ZN8leapfrog8internal11ConfigMixerILNS_8LanguageE1EJdNS_10ChildModelENS0_4PairILb1ENS0_8HaConfigIdS3_EEEENS4_ILb1ENS0_8HcConfigIdS3_EEEEEE11OutputStateC2ERKSC_"
 "_ZN8leapfrog8internal11ConfigMixerILNS_8LanguageE1EJdNS_10ChildModelENS0_4PairILb1ENS0_8HaConfigIdS3_EEEENS4_ILb1ENS0_8HcConfigIdS3_EEEEEE11OutputStateD2Ev"
 "_ZN8leapfrog8internal11ConfigMixerILNS_8LanguageE1EJdNS_10ChildModelENS0_4PairILb1ENS0_8HaConfigIdS3_EEEENS4_ILb1ENS0_8HcConfigIdS3_EEEEEE12build_outputIJRN4Rcpp6VectorILi19ENSD_15PreserveStorageEEERNSE_ILi16ESF_EEyEEEiiRKNSB_11OutputStateEDpOT_"
 "_ZN8leapfrog8internal11ConfigMixerILNS_8LanguageE1EJdNS_10ChildModelENS0_4PairILb1ENS0_8HaConfigIdS3_EEEENS4_ILb1ENS0_8HcConfigIdS3_EEEEEE12Intermediate5resetEv"
 "_ZN8leapfrog8internal11ConfigMixerILNS_8LanguageE1EJdNS_10ChildModelENS0_4PairILb1ENS0_8HaConfigIdS3_EEEENS4_ILb1ENS0_8HcConfigIdS3_EEEEEE12IntermediateC2Ev"
 "_ZN8leapfrog8internal11ConfigMixerILNS_8LanguageE1EJdNS_10ChildModelENS0_4PairILb1ENS0_8HaConfigIdS3_EEEENS4_ILb1ENS0_8HcConfigIdS3_EEEEEE17get_initial_stateIJRN4Rcpp6VectorILi19ENSD_15PreserveStorageEEEEEENSB_5StateEDpOT_"
 "_ZN8leapfrog8internal11ConfigMixerILNS_8LanguageE1EJdNS_10ChildModelENS0_4PairILb1ENS0_8HaConfigIdS3_EEEENS4_ILb1ENS0_8HcConfigIdS3_EEEEEE21get_build_output_sizeEi"
 "_ZN8leapfrog8internal11ConfigMixerILNS_8LanguageE1EJdNS_10ChildModelENS0_4PairILb1ENS0_8HaConfigIdS3_EEEENS4_ILb1ENS0_8HcConfigIdS3_EEEEEE24build_output_single_yearIJRN4Rcpp6VectorILi19ENSD_15PreserveStorageEEERNSE_ILi16ESF_EEEEEiiRKNSB_5StateEDpOT_"
 "_ZN8leapfrog8internal11ConfigMixerILNS_8LanguageE1EJdNS_10ChildModelENS0_4PairILb1ENS0_8HaConfigIdS3_EEEENS4_ILb1ENS0_8HcConfigIdS3_EEEEEE5State5resetEv"
 "_ZN8leapfrog8internal11ConfigMixerILNS_8LanguageE1EJdNS_10ChildModelENS0_4PairILb1ENS0_8HaConfigIdS3_EEEENS4_ILb1ENS0_8HcConfigIdS3_EEEEEE5StateaSEOSC_"
 "_ZN8leapfrog8internal11ConfigMixerILNS_8LanguageE1EJdNS_10ChildModelENS0_4PairILb1ENS0_8HaConfigIdS3_EEEENS4_ILb1ENS0_8HcConfigIdS3_EEEEEE5StateC2EOSC_"
 "_ZN8leapfrog8internal11ConfigMixerILNS_8LanguageE1EJdNS_10ChildModelENS0_4PairILb1ENS0_8HaConfigIdS3_EEEENS4_ILb1ENS0_8HcConfigIdS3_EEEEEE5StateC2ERKSC_"
 "_ZN8leapfrog8internal11ConfigMixerILNS_8LanguageE1EJdNS_10ChildModelENS0_4PairILb1ENS0_8HaConfigIdS3_EEEENS4_ILb1ENS0_8HcConfigIdS3_EEEEEE8get_parsIJRKN4Rcpp6VectorILi19ENSD_15PreserveStorageEEERKNS_7OptionsIdEEEEENSB_4ParsEDpOT_"
 "_ZN8leapfrog8internal11ConfigMixerILNS_8LanguageE1EJdNS_10ChildModelENS0_4PairILb1ENS0_8HcConfigIdS3_EEEEEE11OutputState10save_stateEyRKNS8_5StateE"
 "_ZN8leapfrog8internal11ConfigMixerILNS_8LanguageE1EJdNS_10ChildModelENS0_4PairILb1ENS0_8HcConfigIdS3_EEEEEE11OutputStateC2Ei"
 "_ZN8leapfrog8internal11ConfigMixerILNS_8LanguageE1EJdNS_10ChildModelENS0_4PairILb1ENS0_8HcConfigIdS3_EEEEEE11OutputStateC2ERKS9_"
 "_ZN8leapfrog8internal11ConfigMixerILNS_8LanguageE1EJdNS_10ChildModelENS0_4PairILb1ENS0_8HcConfigIdS3_EEEEEE11OutputStateD2Ev"
 "_ZN8leapfrog8internal11ConfigMixerILNS_8LanguageE1EJdNS_10ChildModelENS0_4PairILb1ENS0_8HcConfigIdS3_EEEEEE12build_outputIJRN4Rcpp6VectorILi19ENSA_15PreserveStorageEEERNSB_ILi16ESC_EEyEEEiiRKNS8_11OutputStateEDpOT_"
 "_ZN8leapfrog8internal11ConfigMixerILNS_8LanguageE1EJdNS_10ChildModelENS0_4PairILb1ENS0_8HcConfigIdS3_EEEEEE12Intermediate5resetEv"
 "_ZN8leapfrog8internal11ConfigMixerILNS_8LanguageE1EJdNS_10ChildModelENS0_4PairILb1ENS0_8HcConfigIdS3_EEEEEE12IntermediateC2Ev"
 "_ZN8leapfrog8internal11ConfigMixerILNS_8LanguageE1EJdNS_10ChildModelENS0_4PairILb1ENS0_8HcConfigIdS3_EEEEEE17get_initial_stateIJRN4Rcpp6VectorILi19ENSA_15PreserveStorageEEEEEENS8_5StateEDpOT_"
 "_ZN8leapfrog8internal11ConfigMixerILNS_8LanguageE1EJdNS_10ChildModelENS0_4PairILb1ENS0_8HcConfigIdS3_EEEEEE21get_build_output_sizeEi"
 "_ZN8leapfrog8internal11ConfigMixerILNS_8LanguageE1EJdNS_10ChildModelENS0_4PairILb1ENS0_8HcConfigIdS3_EEEEEE24build_output_single_yearIJRN4Rcpp6VectorILi19ENSA_15PreserveStorageEEERNSB_ILi16ESC_EEEEEiiRKNS8_5StateEDpOT_"
 "_ZN8leapfrog8internal11ConfigMixerILNS_8LanguageE1EJdNS_10ChildModelENS0_4PairILb1ENS0_8HcConfigIdS3_EEEEEE5State5resetEv"
 "_ZN8leapfrog8internal11ConfigMixerILNS_8LanguageE1EJdNS_10ChildModelENS0_4PairILb1ENS0_8HcConfigIdS3_EEEEEE5StateaSEOS9_"
 "_ZN8leapfrog8internal11ConfigMixerILNS_8LanguageE1EJdNS_10ChildModelENS0_4PairILb1ENS0_8HcConfigIdS3_EEEEEE5StateC2EOS9_"
 "_ZN8leapfrog8internal11ConfigMixerILNS_8LanguageE1EJdNS_10ChildModelENS0_4PairILb1ENS0_8HcConfigIdS3_EEEEEE5StateC2ERKS9_"
 "_ZN8leapfrog8internal11ConfigMixerILNS_8LanguageE1EJdNS_10ChildModelENS0_4PairILb1ENS0_8HcConfigIdS3_EEEEEE8get_parsIJRKN4Rcpp6VectorILi19ENSA_15PreserveStorageEEERKNS_7OptionsIdEEEEENS8_4ParsEDpOT_"
 "_ZN8leapfrog8internal11ConfigMixerILNS_8LanguageE1EJdNS_21DemographicProjectionEEE11OutputState10save_stateINS1_ILS2_1EJdS3_NS0_4PairILb1ENS0_8DpConfigIdS3_EEEENS7_ILb0ENS0_8HaConfigIdS3_EEEENS7_ILb0ENS0_8HcConfigIdS3_EEEEEE5StateEEEvyRKT_"
 "_ZN8leapfrog8internal11ConfigMixerILNS_8LanguageE1EJdNS_21DemographicProjectionEEE11OutputStateC2Ei"
 "_ZN8leapfrog8internal11ConfigMixerILNS_8LanguageE1EJdNS_21DemographicProjectionEEE12build_outputIJRKNS1_ILS2_1EJdS3_NS0_4PairILb1ENS0_8DpConfigIdS3_EEEENS6_ILb0ENS0_8HaConfigIdS3_EEEENS6_ILb0ENS0_8HcConfigIdS3_EEEEEE11OutputStateERN4Rcpp6VectorILi19ENSK_15PreserveStorageEEERNSL_ILi16ESM_EEyEEEiiDpOT_"
 "_ZN8leapfrog8internal11ConfigMixerILNS_8LanguageE1EJdNS_21DemographicProjectionEEE12Intermediate5resetEv"
 "_ZN8leapfrog8internal11ConfigMixerILNS_8LanguageE1EJdNS_21DemographicProjectionEEE17get_initial_stateIJRN4Rcpp6VectorILi19ENS6_15PreserveStorageEEEEEENS4_5StateEDpOT_"
 "_ZN8leapfrog8internal11ConfigMixerILNS_8LanguageE1EJdNS_21DemographicProjectionEEE21get_build_output_sizeEi"
 "_ZN8leapfrog8internal11ConfigMixerILNS_8LanguageE1EJdNS_21DemographicProjectionEEE24build_output_single_yearIJRKNS1_ILS2_1EJdS3_NS0_4PairILb1ENS0_8DpConfigIdS3_EEEENS6_ILb0ENS0_8HaConfigIdS3_EEEENS6_ILb0ENS0_8HcConfigIdS3_EEEEEE5StateERN4Rcpp6VectorILi19ENSK_15PreserveStorageEEERNSL_ILi16ESM_EEEEEiiDpOT_"
 "_ZN8leapfrog8internal11ConfigMixerILNS_8LanguageE1EJdNS_21DemographicProjectionEEE5State5resetEv"
 "_ZN8leapfrog8internal11ConfigMixerILNS_8LanguageE1EJdNS_21DemographicProjectionEEE8get_parsIJRKN4Rcpp6VectorILi19ENS6_15PreserveStorageEEERKNS_7OptionsIdEEEEENS4_4ParsEDpOT_"
 "_ZN8leapfrog8internal11ConfigMixerILNS_8LanguageE1EJdNS_21DemographicProjectionENS0_4PairILb1ENS0_8DpConfigIdS3_EEEENS4_ILb0ENS0_8HaConfigIdS3_EEEENS4_ILb0ENS0_8HcConfigIdS3_EEEEEE11OutputState10save_stateEyRKNSE_5StateE"
 "_ZN8leapfrog8internal11ConfigMixerILNS_8LanguageE1EJdNS_21DemographicProjectionENS0_4PairILb1ENS0_8DpConfigIdS3_EEEENS4_ILb0ENS0_8HaConfigIdS3_EEEENS4_ILb0ENS0_8HcConfigIdS3_EEEEEE11OutputStateC1Ei"
 "_ZN8leapfrog8internal11ConfigMixerILNS_8LanguageE1EJdNS_21DemographicProjectionENS0_4PairILb1ENS0_8DpConfigIdS3_EEEENS4_ILb0ENS0_8HaConfigIdS3_EEEENS4_ILb0ENS0_8HcConfigIdS3_EEEEEE11OutputStateC1ERKSF_"
 "_ZN8leapfrog8internal11ConfigMixerILNS_8LanguageE1EJdNS_21DemographicProjectionENS0_4PairILb1ENS0_8DpConfigIdS3_EEEENS4_ILb0ENS0_8HaConfigIdS3_EEEENS4_ILb0ENS0_8HcConfigIdS3_EEEEEE11OutputStateD1Ev"
 "_ZN8leapfrog8internal11ConfigMixerILNS_8LanguageE1EJdNS_21DemographicProjectionENS0_4PairILb1ENS0_8DpConfigIdS3_EEEENS4_ILb0ENS0_8HaConfigIdS3_EEEENS4_ILb0ENS0_8HcConfigIdS3_EEEEEE12build_outputIJRN4Rcpp6VectorILi19ENSG_15PreserveStorageEEERNSH_ILi16ESI_EEyEEEiiRKNSE_11OutputStateEDpOT_"
 "_ZN8leapfrog8internal11ConfigMixerILNS_8LanguageE1EJdNS_21DemographicProjectionENS0_4PairILb1ENS0_8DpConfigIdS3_EEEENS4_ILb0ENS0_8HaConfigIdS3_EEEENS4_ILb0ENS0_8HcConfigIdS3_EEEEEE12Intermediate5resetEv"
 "_ZN8leapfrog8internal11ConfigMixerILNS_8LanguageE1EJdNS_21DemographicProjectionENS0_4PairILb1ENS0_8DpConfigIdS3_EEEENS4_ILb0ENS0_8HaConfigIdS3_EEEENS4_ILb0ENS0_8HcConfigIdS3_EEEEEE12IntermediateC1Ev"
 "_ZN8leapfrog8internal11ConfigMixerILNS_8LanguageE1EJdNS_21DemographicProjectionENS0_4PairILb1ENS0_8DpConfigIdS3_EEEENS4_ILb0ENS0_8HaConfigIdS3_EEEENS4_ILb0ENS0_8HcConfigIdS3_EEEEEE17get_initial_stateIJRN4Rcpp6VectorILi19ENSG_15PreserveStorageEEEEEENSE_5StateEDpOT_"
 "_ZN8leapfrog8internal11ConfigMixerILNS_8LanguageE1EJdNS_21DemographicProjectionENS0_4PairILb1ENS0_8DpConfigIdS3_EEEENS4_ILb0ENS0_8HaConfigIdS3_EEEENS4_ILb0ENS0_8HcConfigIdS3_EEEEEE21get_build_output_sizeEi"
 "_ZN8leapfrog8internal11ConfigMixerILNS_8LanguageE1EJdNS_21DemographicProjectionENS0_4PairILb1ENS0_8DpConfigIdS3_EEEENS4_ILb0ENS0_8HaConfigIdS3_EEEENS4_ILb0ENS0_8HcConfigIdS3_EEEEEE24build_output_single_yearIJRN4Rcpp6VectorILi19ENSG_15PreserveStorageEEERNSH_ILi16ESI_EEEEEiiRKNSE_5StateEDpOT_"
 "_ZN8leapfrog8internal11ConfigMixerILNS_8LanguageE1EJdNS_21DemographicProjectionENS0_4PairILb1ENS0_8DpConfigIdS3_EEEENS4_ILb0ENS0_8HaConfigIdS3_EEEENS4_ILb0ENS0_8HcConfigIdS3_EEEEEE5State5resetEv"
 "_ZN8leapfrog8internal11ConfigMixerILNS_8LanguageE1EJdNS_21DemographicProjectionENS0_4PairILb1ENS0_8DpConfigIdS3_EEEENS4_ILb0ENS0_8HaConfigIdS3_EEEENS4_ILb0ENS0_8HcConfigIdS3_EEEEEE5StateaSEOSF_"
 "_ZN8leapfrog8internal11ConfigMixerILNS_8LanguageE1EJdNS_21DemographicProjectionENS0_4PairILb1ENS0_8DpConfigIdS3_EEEENS4_ILb0ENS0_8HaConfigIdS3_EEEENS4_ILb0ENS0_8HcConfigIdS3_EEEEEE5StateC1EOSF_"
 "_ZN8leapfrog8internal11ConfigMixerILNS_8LanguageE1EJdNS_21DemographicProjectionENS0_4PairILb1ENS0_8DpConfigIdS3_EEEENS4_ILb0ENS0_8HaConfigIdS3_EEEENS4_ILb0ENS0_8HcConfigIdS3_EEEEEE5StateC1ERKSF_"
 "_ZN8leapfrog8internal11ConfigMixerILNS_8LanguageE1EJdNS_21DemographicProjectionENS0_4PairILb1ENS0_8DpConfigIdS3_EEEENS4_ILb0ENS0_8HaConfigIdS3_EEEENS4_ILb0ENS0_8HcConfigIdS3_EEEEEE8get_parsIJRKN4Rcpp6VectorILi19ENSG_15PreserveStorageEEERKNS_7OptionsIdEEEEENSE_4ParsEDpOT_"
 "_ZN8leapfrog8internal11ConfigMixerILNS_8LanguageE1EJdNS_24HivFullAgeStratificationEEE11OutputState10save_stateINS1_ILS2_1EJdS3_NS0_4PairILb1ENS0_8HaConfigIdS3_EEEENS7_ILb0ENS0_8HcConfigIdS3_EEEEEE5StateEEEvyRKT_"
 "_ZN8leapfrog8internal11ConfigMixerILNS_8LanguageE1EJdNS_24HivFullAgeStratificationEEE11OutputStateC2Ei"
 "_ZN8leapfrog8internal11ConfigMixerILNS_8LanguageE1EJdNS_24HivFullAgeStratificationEEE12build_outputIJRKNS1_ILS2_1EJdS3_NS0_4PairILb1ENS0_8HaConfigIdS3_EEEENS6_ILb0ENS0_8HcConfigIdS3_EEEEEE11OutputStateERN4Rcpp6VectorILi19ENSH_15PreserveStorageEEERNSI_ILi16ESJ_EEyEEEiiDpOT_"
 "_ZN8leapfrog8internal11ConfigMixerILNS_8LanguageE1EJdNS_24HivFullAgeStratificationEEE12Intermediate5resetEv"
 "_ZN8leapfrog8internal11ConfigMixerILNS_8LanguageE1EJdNS_24HivFullAgeStratificationEEE17get_initial_stateIJRN4Rcpp6VectorILi19ENS6_15PreserveStorageEEEEEENS4_5StateEDpOT_"
 "_ZN8leapfrog8internal11ConfigMixerILNS_8LanguageE1EJdNS_24HivFullAgeStratificationEEE21get_build_output_sizeEi"
 "_ZN8leapfrog8internal11ConfigMixerILNS_8LanguageE1EJdNS_24HivFullAgeStratificationEEE24build_output_single_yearIJRKNS1_ILS2_1EJdS3_NS0_4PairILb1ENS0_8HaConfigIdS3_EEEENS6_ILb0ENS0_8HcConfigIdS3_EEEEEE5StateERN4Rcpp6VectorILi19ENSH_15PreserveStorageEEERNSI_ILi16ESJ_EEEEEiiDpOT_"
 "_ZN8leapfrog8internal11ConfigMixerILNS_8LanguageE1EJdNS_24HivFullAgeStratificationEEE5State5resetEv"
 "_ZN8leapfrog8internal11ConfigMixerILNS_8LanguageE1EJdNS_24HivFullAgeStratificationEEE8get_parsIJRKN4Rcpp6VectorILi19ENS6_15PreserveStorageEEERKNS_7OptionsIdEEEEENS4_4ParsEDpOT_"
 "_ZN8leapfrog8internal11ConfigMixerILNS_8LanguageE1EJdNS_24HivFullAgeStratificationENS0_4PairILb1ENS0_8DpConfigIdS3_EEEENS4_ILb1ENS0_8HaConfigIdS3_EEEENS4_ILb0ENS0_8HcConfigIdS3_EEEEEE11OutputState10save_stateEyRKNSE_5StateE"
 "_ZN8leapfrog8internal11ConfigMixerILNS_8LanguageE1EJdNS_24HivFullAgeStratificationENS0_4PairILb1ENS0_8DpConfigIdS3_EEEENS4_ILb1ENS0_8HaConfigIdS3_EEEENS4_ILb0ENS0_8HcConfigIdS3_EEEEEE11OutputStateC1Ei"
 "_ZN8leapfrog8internal11ConfigMixerILNS_8LanguageE1EJdNS_24HivFullAgeStratificationENS0_4PairILb1ENS0_8DpConfigIdS3_EEEENS4_ILb1ENS0_8HaConfigIdS3_EEEENS4_ILb0ENS0_8HcConfigIdS3_EEEEEE11OutputStateC1ERKSF_"
 "_ZN8leapfrog8internal11ConfigMixerILNS_8LanguageE1EJdNS_24HivFullAgeStratificationENS0_4PairILb1ENS0_8DpConfigIdS3_EEEENS4_ILb1ENS0_8HaConfigIdS3_EEEENS4_ILb0ENS0_8HcConfigIdS3_EEEEEE11OutputStateD1Ev"
 "_ZN8leapfrog8internal11ConfigMixerILNS_8LanguageE1EJdNS_24HivFullAgeStratificationENS0_4PairILb1ENS0_8DpConfigIdS3_EEEENS4_ILb1ENS0_8HaConfigIdS3_EEEENS4_ILb0ENS0_8HcConfigIdS3_EEEEEE12build_outputIJRN4Rcpp6VectorILi19ENSG_15PreserveStorageEEERNSH_ILi16ESI_EEyEEEiiRKNSE_11OutputStateEDpOT_"
 "_ZN8leapfrog8internal11ConfigMixerILNS_8LanguageE1EJdNS_24HivFullAgeStratificationENS0_4PairILb1ENS0_8DpConfigIdS3_EEEENS4_ILb1ENS0_8HaConfigIdS3_EEEENS4_ILb0ENS0_8HcConfigIdS3_EEEEEE12Intermediate5resetEv"
 "_ZN8leapfrog8internal11ConfigMixerILNS_8LanguageE1EJdNS_24HivFullAgeStratificationENS0_4PairILb1ENS0_8DpConfigIdS3_EEEENS4_ILb1ENS0_8HaConfigIdS3_EEEENS4_ILb0ENS0_8HcConfigIdS3_EEEEEE12IntermediateC1Ev"
 "_ZN8leapfrog8internal11ConfigMixerILNS_8LanguageE1EJdNS_24HivFullAgeStratificationENS0_4PairILb1ENS0_8DpConfigIdS3_EEEENS4_ILb1ENS0_8HaConfigIdS3_EEEENS4_ILb0ENS0_8HcConfigIdS3_EEEEEE17get_initial_stateIJRN4Rcpp6VectorILi19ENSG_15PreserveStorageEEEEEENSE_5StateEDpOT_"
 "_ZN8leapfrog8internal11ConfigMixerILNS_8LanguageE1EJdNS_24HivFullAgeStratificationENS0_4PairILb1ENS0_8DpConfigIdS3_EEEENS4_ILb1ENS0_8HaConfigIdS3_EEEENS4_ILb0ENS0_8HcConfigIdS3_EEEEEE21get_build_output_sizeEi"
 "_ZN8leapfrog8internal11ConfigMixerILNS_8LanguageE1EJdNS_24HivFullAgeStratificationENS0_4PairILb1ENS0_8DpConfigIdS3_EEEENS4_ILb1ENS0_8HaConfigIdS3_EEEENS4_ILb0ENS0_8HcConfigIdS3_EEEEEE24build_output_single_yearIJRN4Rcpp6VectorILi19ENSG_15PreserveStorageEEERNSH_ILi16ESI_EEEEEiiRKNSE_5StateEDpOT_"
 "_ZN8leapfrog8internal11ConfigMixerILNS_8LanguageE1EJdNS_24HivFullAgeStratificationENS0_4PairILb1ENS0_8DpConfigIdS3_EEEENS4_ILb1ENS0_8HaConfigIdS3_EEEENS4_ILb0ENS0_8HcConfigIdS3_EEEEEE5State5resetEv"
 "_ZN8leapfrog8internal11ConfigMixerILNS_8LanguageE1EJdNS_24HivFullAgeStratificationENS0_4PairILb1ENS0_8DpConfigIdS3_EEEENS4_ILb1ENS0_8HaConfigIdS3_EEEENS4_ILb0ENS0_8HcConfigIdS3_EEEEEE5StateaSEOSF_"
 "_ZN8leapfrog8internal11ConfigMixerILNS_8LanguageE1EJdNS_24HivFullAgeStratificationENS0_4PairILb1ENS0_8DpConfigIdS3_EEEENS4_ILb1ENS0_8HaConfigIdS3_EEEENS4_ILb0ENS0_8HcConfigIdS3_EEEEEE5StateC1EOSF_"
 "_ZN8leapfrog8internal11ConfigMixerILNS_8LanguageE1EJdNS_24HivFullAgeStratificationENS0_4PairILb1ENS0_8DpConfigIdS3_EEEENS4_ILb1ENS0_8HaConfigIdS3_EEEENS4_ILb0ENS0_8HcConfigIdS3_EEEEEE5StateC1ERKSF_"
 "_ZN8leapfrog8internal11ConfigMixerILNS_8LanguageE1EJdNS_24HivFullAgeStratificationENS0_4PairILb1ENS0_8DpConfigIdS3_EEEENS4_ILb1ENS0_8HaConfigIdS3_EEEENS4_ILb0ENS0_8HcConfigIdS3_EEEEEE8get_parsIJRKN4Rcpp6VectorILi19ENSG_15PreserveStorageEEERKNS_7OptionsIdEEEEENSE_4ParsEDpOT_"
 "_ZN8leapfrog8internal11ConfigMixerILNS_8LanguageE1EJdNS_24HivFullAgeStratificationENS0_4PairILb1ENS0_8HaConfigIdS3_EEEENS4_ILb0ENS0_8HcConfigIdS3_EEEEEE11OutputState10save_stateEyRKNSB_5StateE"
 "_ZN8leapfrog8internal11ConfigMixerILNS_8LanguageE1EJdNS_24HivFullAgeStratificationENS0_4PairILb1ENS0_8HaConfigIdS3_EEEENS4_ILb0ENS0_8HcConfigIdS3_EEEEEE11OutputStateC2Ei"
 "_ZN8leapfrog8internal11ConfigMixerILNS_8LanguageE1EJdNS_24HivFullAgeStratificationENS0_4PairILb1ENS0_8HaConfigIdS3_EEEENS4_ILb0ENS0_8HcConfigIdS3_EEEEEE11OutputStateC2ERKSC_"
 "_ZN8leapfrog8internal11ConfigMixerILNS_8LanguageE1EJdNS_24HivFullAgeStratificationENS0_4PairILb1ENS0_8HaConfigIdS3_EEEENS4_ILb0ENS0_8HcConfigIdS3_EEEEEE11OutputStateD2Ev"
 "_ZN8leapfrog8internal11ConfigMixerILNS_8LanguageE1EJdNS_24HivFullAgeStratificationENS0_4PairILb1ENS0_8HaConfigIdS3_EEEENS4_ILb0ENS0_8HcConfigIdS3_EEEEEE12build_outputIJRN4Rcpp6VectorILi19ENSD_15PreserveStorageEEERNSE_ILi16ESF_EEyEEEiiRKNSB_11OutputStateEDpOT_"
 "_ZN8leapfrog8internal11ConfigMixerILNS_8LanguageE1EJdNS_24HivFullAgeStratificationENS0_4PairILb1ENS0_8HaConfigIdS3_EEEENS4_ILb0ENS0_8HcConfigIdS3_EEEEEE12Intermediate5resetEv"
 "_ZN8leapfrog8internal11ConfigMixerILNS_8LanguageE1EJdNS_24HivFullAgeStratificationENS0_4PairILb1ENS0_8HaConfigIdS3_EEEENS4_ILb0ENS0_8HcConfigIdS3_EEEEEE12IntermediateC2Ev"
 "_ZN8leapfrog8internal11ConfigMixerILNS_8LanguageE1EJdNS_24HivFullAgeStratificationENS0_4PairILb1ENS0_8HaConfigIdS3_EEEENS4_ILb0ENS0_8HcConfigIdS3_EEEEEE17get_initial_stateIJRN4Rcpp6VectorILi19ENSD_15PreserveStorageEEEEEENSB_5StateEDpOT_"
 "_ZN8leapfrog8internal11ConfigMixerILNS_8LanguageE1EJdNS_24HivFullAgeStratificationENS0_4PairILb1ENS0_8HaConfigIdS3_EEEENS4_ILb0ENS0_8HcConfigIdS3_EEEEEE21get_build_output_sizeEi"
 "_ZN8leapfrog8internal11ConfigMixerILNS_8LanguageE1EJdNS_24HivFullAgeStratificationENS0_4PairILb1ENS0_8HaConfigIdS3_EEEENS4_ILb0ENS0_8HcConfigIdS3_EEEEEE24build_output_single_yearIJRN4Rcpp6VectorILi19ENSD_15PreserveStorageEEERNSE_ILi16ESF_EEEEEiiRKNSB_5StateEDpOT_"
 "_ZN8leapfrog8internal11ConfigMixerILNS_8LanguageE1EJdNS_24HivFullAgeStratificationENS0_4PairILb1ENS0_8HaConfigIdS3_EEEENS4_ILb0ENS0_8HcConfigIdS3_EEEEEE5State5resetEv"
 "_ZN8leapfrog8internal11ConfigMixerILNS_8LanguageE1EJdNS_24HivFullAgeStratificationENS0_4PairILb1ENS0_8HaConfigIdS3_EEEENS4_ILb0ENS0_8HcConfigIdS3_EEEEEE5StateaSEOSC_"
 "_ZN8leapfrog8internal11ConfigMixerILNS_8LanguageE1EJdNS_24HivFullAgeStratificationENS0_4PairILb1ENS0_8HaConfigIdS3_EEEENS4_ILb0ENS0_8HcConfigIdS3_EEEEEE5StateC2EOSC_"
 "_ZN8leapfrog8internal11ConfigMixerILNS_8LanguageE1EJdNS_24HivFullAgeStratificationENS0_4PairILb1ENS0_8HaConfigIdS3_EEEENS4_ILb0ENS0_8HcConfigIdS3_EEEEEE5StateC2ERKSC_"
 "_ZN8leapfrog8internal11ConfigMixerILNS_8LanguageE1EJdNS_24HivFullAgeStratificationENS0_4PairILb1ENS0_8HaConfigIdS3_EEEENS4_ILb0ENS0_8HcConfigIdS3_EEEEEE8get_parsIJRKN4Rcpp6VectorILi19ENSD_15PreserveStorageEEERKNS_7OptionsIdEEEEENSB_4ParsEDpOT_"
 "_ZN8leapfrog8internal11ConfigMixerILNS_8LanguageE1EJdNS_26HivCoarseAgeStratificationEEE11OutputState10save_stateINS1_ILS2_1EJdS3_NS0_4PairILb1ENS0_8HaConfigIdS3_EEEENS7_ILb0ENS0_8HcConfigIdS3_EEEEEE5StateEEEvyRKT_"
 "_ZN8leapfrog8internal11ConfigMixerILNS_8LanguageE1EJdNS_26HivCoarseAgeStratificationEEE11OutputStateC2Ei"
 "_ZN8leapfrog8internal11ConfigMixerILNS_8LanguageE1EJdNS_26HivCoarseAgeStratificationEEE12build_outputIJRKNS1_ILS2_1EJdS3_NS0_4PairILb1ENS0_8HaConfigIdS3_EEEENS6_ILb0ENS0_8HcConfigIdS3_EEEEEE11OutputStateERN4Rcpp6VectorILi19ENSH_15PreserveStorageEEERNSI_ILi16ESJ_EEyEEEiiDpOT_"
 "_ZN8leapfrog8internal11ConfigMixerILNS_8LanguageE1EJdNS_26HivCoarseAgeStratificationEEE12Intermediate5resetEv"
 "_ZN8leapfrog8internal11ConfigMixerILNS_8LanguageE1EJdNS_26HivCoarseAgeStratificationEEE17get_initial_stateIJRN4Rcpp6VectorILi19ENS6_15PreserveStorageEEEEEENS4_5StateEDpOT_"
 "_ZN8leapfrog8internal11ConfigMixerILNS_8LanguageE1EJdNS_26HivCoarseAgeStratificationEEE21get_build_output_sizeEi"
 "_ZN8leapfrog8internal11ConfigMixerILNS_8LanguageE1EJdNS_26HivCoarseAgeStratificationEEE24build_output_single_yearIJRKNS1_ILS2_1EJdS3_NS0_4PairILb1ENS0_8HaConfigIdS3_EEEENS6_ILb0ENS0_8HcConfigIdS3_EEEEEE5StateERN4Rcpp6VectorILi19ENSH_15PreserveStorageEEERNSI_ILi16ESJ_EEEEEiiDpOT_"
 "_ZN8leapfrog8internal11ConfigMixerILNS_8LanguageE1EJdNS_26HivCoarseAgeStratificationEEE5State5resetEv"
 "_ZN8leapfrog8internal11ConfigMixerILNS_8LanguageE1EJdNS_26HivCoarseAgeStratificationEEE8get_parsIJRKN4Rcpp6VectorILi19ENS6_15PreserveStorageEEERKNS_7OptionsIdEEEEENS4_4ParsEDpOT_"
 "_ZN8leapfrog8internal11ConfigMixerILNS_8LanguageE1EJdNS_26HivCoarseAgeStratificationENS0_4PairILb1ENS0_8DpConfigIdS3_EEEENS4_ILb1ENS0_8HaConfigIdS3_EEEENS4_ILb0ENS0_8HcConfigIdS3_EEEEEE11OutputState10save_stateEyRKNSE_5StateE"
 "_ZN8leapfrog8internal11ConfigMixerILNS_8LanguageE1EJdNS_26HivCoarseAgeStratificationENS0_4PairILb1ENS0_8DpConfigIdS3_EEEENS4_ILb1ENS0_8HaConfigIdS3_EEEENS4_ILb0ENS0_8HcConfigIdS3_EEEEEE11OutputStateC1Ei"
 "_ZN8leapfrog8internal11ConfigMixerILNS_8LanguageE1EJdNS_26HivCoarseAgeStratificationENS0_4PairILb1ENS0_8DpConfigIdS3_EEEENS4_ILb1ENS0_8HaConfigIdS3_EEEENS4_ILb0ENS0_8HcConfigIdS3_EEEEEE11OutputStateC1ERKSF_"
 "_ZN8leapfrog8internal11ConfigMixerILNS_8LanguageE1EJdNS_26HivCoarseAgeStratificationENS0_4PairILb1ENS0_8DpConfigIdS3_EEEENS4_ILb1ENS0_8HaConfigIdS3_EEEENS4_ILb0ENS0_8HcConfigIdS3_EEEEEE11OutputStateD1Ev"
 "_ZN8leapfrog8internal11ConfigMixerILNS_8LanguageE1EJdNS_26HivCoarseAgeStratificationENS0_4PairILb1ENS0_8DpConfigIdS3_EEEENS4_ILb1ENS0_8HaConfigIdS3_EEEENS4_ILb0ENS0_8HcConfigIdS3_EEEEEE12build_outputIJRN4Rcpp6VectorILi19ENSG_15PreserveStorageEEERNSH_ILi16ESI_EEyEEEiiRKNSE_11OutputStateEDpOT_"
 "_ZN8leapfrog8internal11ConfigMixerILNS_8LanguageE1EJdNS_26HivCoarseAgeStratificationENS0_4PairILb1ENS0_8DpConfigIdS3_EEEENS4_ILb1ENS0_8HaConfigIdS3_EEEENS4_ILb0ENS0_8HcConfigIdS3_EEEEEE12Intermediate5resetEv"
 "_ZN8leapfrog8internal11ConfigMixerILNS_8LanguageE1EJdNS_26HivCoarseAgeStratificationENS0_4PairILb1ENS0_8DpConfigIdS3_EEEENS4_ILb1ENS0_8HaConfigIdS3_EEEENS4_ILb0ENS0_8HcConfigIdS3_EEEEEE12IntermediateC1Ev"
 "_ZN8leapfrog8internal11ConfigMixerILNS_8LanguageE1EJdNS_26HivCoarseAgeStratificationENS0_4PairILb1ENS0_8DpConfigIdS3_EEEENS4_ILb1ENS0_8HaConfigIdS3_EEEENS4_ILb0ENS0_8HcConfigIdS3_EEEEEE17get_initial_stateIJRN4Rcpp6VectorILi19ENSG_15PreserveStorageEEEEEENSE_5StateEDpOT_"
 "_ZN8leapfrog8internal11ConfigMixerILNS_8LanguageE1EJdNS_26HivCoarseAgeStratificationENS0_4PairILb1ENS0_8DpConfigIdS3_EEEENS4_ILb1ENS0_8HaConfigIdS3_EEEENS4_ILb0ENS0_8HcConfigIdS3_EEEEEE21get_build_output_sizeEi"
 "_ZN8leapfrog8internal11ConfigMixerILNS_8LanguageE1EJdNS_26HivCoarseAgeStratificationENS0_4PairILb1ENS0_8DpConfigIdS3_EEEENS4_ILb1ENS0_8HaConfigIdS3_EEEENS4_ILb0ENS0_8HcConfigIdS3_EEEEEE24build_output_single_yearIJRN4Rcpp6VectorILi19ENSG_15PreserveStorageEEERNSH_ILi16ESI_EEEEEiiRKNSE_5StateEDpOT_"
 "_ZN8leapfrog8internal11ConfigMixerILNS_8LanguageE1EJdNS_26HivCoarseAgeStratificationENS0_4PairILb1ENS0_8DpConfigIdS3_EEEENS4_ILb1ENS0_8HaConfigIdS3_EEEENS4_ILb0ENS0_8HcConfigIdS3_EEEEEE5State5resetEv"
 "_ZN8leapfrog8internal11ConfigMixerILNS_8LanguageE1EJdNS_26HivCoarseAgeStratificationENS0_4PairILb1ENS0_8DpConfigIdS3_EEEENS4_ILb1ENS0_8HaConfigIdS3_EEEENS4_ILb0ENS0_8HcConfigIdS3_EEEEEE5StateaSEOSF_"
 "_ZN8leapfrog8internal11ConfigMixerILNS_8LanguageE1EJdNS_26HivCoarseAgeStratificationENS0_4PairILb1ENS0_8DpConfigIdS3_EEEENS4_ILb1ENS0_8HaConfigIdS3_EEEENS4_ILb0ENS0_8HcConfigIdS3_EEEEEE5StateC1EOSF_"
 "_ZN8leapfrog8internal11ConfigMixerILNS_8LanguageE1EJdNS_26HivCoarseAgeStratificationENS0_4PairILb1ENS0_8DpConfigIdS3_EEEENS4_ILb1ENS0_8HaConfigIdS3_EEEENS4_ILb0ENS0_8HcConfigIdS3_EEEEEE5StateC1ERKSF_"
 "_ZN8leapfrog8internal11ConfigMixerILNS_8LanguageE1EJdNS_26HivCoarseAgeStratificationENS0_4PairILb1ENS0_8DpConfigIdS3_EEEENS4_ILb1ENS0_8HaConfigIdS3_EEEENS4_ILb0ENS0_8HcConfigIdS3_EEEEEE8get_parsIJRKN4Rcpp6VectorILi19ENSG_15PreserveStorageEEERKNS_7OptionsIdEEEEENSE_4ParsEDpOT_"
 "_ZN8leapfrog8internal11ConfigMixerILNS_8LanguageE1EJdNS_26HivCoarseAgeStratificationENS0_4PairILb1ENS0_8HaConfigIdS3_EEEENS4_ILb0ENS0_8HcConfigIdS3_EEEEEE11OutputState10save_stateEyRKNSB_5StateE"
 "_ZN8leapfrog8internal11ConfigMixerILNS_8LanguageE1EJdNS_26HivCoarseAgeStratificationENS0_4PairILb1ENS0_8HaConfigIdS3_EEEENS4_ILb0ENS0_8HcConfigIdS3_EEEEEE11OutputStateC2Ei"
 "_ZN8leapfrog8internal11ConfigMixerILNS_8LanguageE1EJdNS_26HivCoarseAgeStratificationENS0_4PairILb1ENS0_8HaConfigIdS3_EEEENS4_ILb0ENS0_8HcConfigIdS3_EEEEEE11OutputStateC2ERKSC_"
 "_ZN8leapfrog8internal11ConfigMixerILNS_8LanguageE1EJdNS_26HivCoarseAgeStratificationENS0_4PairILb1ENS0_8HaConfigIdS3_EEEENS4_ILb0ENS0_8HcConfigIdS3_EEEEEE11OutputStateD2Ev"
 "_ZN8leapfrog8internal11ConfigMixerILNS_8LanguageE1EJdNS_26HivCoarseAgeStratificationENS0_4PairILb1ENS0_8HaConfigIdS3_EEEENS4_ILb0ENS0_8HcConfigIdS3_EEEEEE12build_outputIJRN4Rcpp6VectorILi19ENSD_15PreserveStorageEEERNSE_ILi16ESF_EEyEEEiiRKNSB_11OutputStateEDpOT_"
 "_ZN8leapfrog8internal11ConfigMixerILNS_8LanguageE1EJdNS_26HivCoarseAgeStratificationENS0_4PairILb1ENS0_8HaConfigIdS3_EEEENS4_ILb0ENS0_8HcConfigIdS3_EEEEEE12Intermediate5resetEv"
 "_ZN8leapfrog8internal11ConfigMixerILNS_8LanguageE1EJdNS_26HivCoarseAgeStratificationENS0_4PairILb1ENS0_8HaConfigIdS3_EEEENS4_ILb0ENS0_8HcConfigIdS3_EEEEEE12IntermediateC2Ev"
 "_ZN8leapfrog8internal11ConfigMixerILNS_8LanguageE1EJdNS_26HivCoarseAgeStratificationENS0_4PairILb1ENS0_8HaConfigIdS3_EEEENS4_ILb0ENS0_8HcConfigIdS3_EEEEEE17get_initial_stateIJRN4Rcpp6VectorILi19ENSD_15PreserveStorageEEEEEENSB_5StateEDpOT_"
 "_ZN8leapfrog8internal11ConfigMixerILNS_8LanguageE1EJdNS_26HivCoarseAgeStratificationENS0_4PairILb1ENS0_8HaConfigIdS3_EEEENS4_ILb0ENS0_8HcConfigIdS3_EEEEEE21get_build_output_sizeEi"
 "_ZN8leapfrog8internal11ConfigMixerILNS_8LanguageE1EJdNS_26HivCoarseAgeStratificationENS0_4PairILb1ENS0_8HaConfigIdS3_EEEENS4_ILb0ENS0_8HcConfigIdS3_EEEEEE24build_output_single_yearIJRN4Rcpp6VectorILi19ENSD_15PreserveStorageEEERNSE_ILi16ESF_EEEEEiiRKNSB_5StateEDpOT_"
 "_ZN8leapfrog8internal11ConfigMixerILNS_8LanguageE1EJdNS_26HivCoarseAgeStratificationENS0_4PairILb1ENS0_8HaConfigIdS3_EEEENS4_ILb0ENS0_8HcConfigIdS3_EEEEEE5State5resetEv"
 "_ZN8leapfrog8internal11ConfigMixerILNS_8LanguageE1EJdNS_26HivCoarseAgeStratificationENS0_4PairILb1ENS0_8HaConfigIdS3_EEEENS4_ILb0ENS0_8HcConfigIdS3_EEEEEE5StateaSEOSC_"
 "_ZN8leapfrog8internal11ConfigMixerILNS_8LanguageE1EJdNS_26HivCoarseAgeStratificationENS0_4PairILb1ENS0_8HaConfigIdS3_EEEENS4_ILb0ENS0_8HcConfigIdS3_EEEEEE5StateC2EOSC_"
 "_ZN8leapfrog8internal11ConfigMixerILNS_8LanguageE1EJdNS_26HivCoarseAgeStratificationENS0_4PairILb1ENS0_8HaConfigIdS3_EEEENS4_ILb0ENS0_8HcConfigIdS3_EEEEEE5StateC2ERKSC_"
 "_ZN8leapfrog8internal11ConfigMixerILNS_8LanguageE1EJdNS_26HivCoarseAgeStratificationENS0_4PairILb1ENS0_8HaConfigIdS3_EEEENS4_ILb0ENS0_8HcConfigIdS3_EEEEEE8get_parsIJRKN4Rcpp6VectorILi19ENSD_15PreserveStorageEEERKNS_7OptionsIdEEEEENSB_4ParsEDpOT_"
 "_ZN8leapfrog8internal17get_proj_end_yearERKSt6vectorIiSaIiEE"
 "_ZN8leapfrog8internal20ChildModelSimulationINS0_11ConfigMixerILNS_8LanguageE1EJdNS_10ChildModelENS0_4PairILb1ENS0_8DpConfigIdS4_EEEENS5_ILb1ENS0_8HaConfigIdS4_EEEENS5_ILb1ENS0_8HcConfigIdS4_EEEEEEEE10bf_dropoutEi"
 "_ZN8leapfrog8internal20ChildModelSimulationINS0_11ConfigMixerILNS_8LanguageE1EJdNS_10ChildModelENS0_4PairILb1ENS0_8DpConfigIdS4_EEEENS5_ILb1ENS0_8HaConfigIdS4_EEEENS5_ILb1ENS0_8HcConfigIdS4_EEEEEEEE11calc_on_artEv"
 "_ZN8leapfrog8internal20ChildModelSimulationINS0_11ConfigMixerILNS_8LanguageE1EJdNS_10ChildModelENS0_4PairILb1ENS0_8DpConfigIdS4_EEEENS5_ILb1ENS0_8HaConfigIdS4_EEEENS5_ILb1ENS0_8HcConfigIdS4_EEEEEEEE12perinatal_trEv"
 "_ZN8leapfrog8internal20ChildModelSimulationINS0_11ConfigMixerILNS_8LanguageE1EJdNS_10ChildModelENS0_4PairILb1ENS0_8DpConfigIdS4_EEEENS5_ILb1ENS0_8HaConfigIdS4_EEEENS5_ILb1ENS0_8HcConfigIdS4_EEEEEEEE13art_last_yearEv"
 "_ZN8leapfrog8internal20ChildModelSimulationINS0_11ConfigMixerILNS_8LanguageE1EJdNS_10ChildModelENS0_4PairILb1ENS0_8DpConfigIdS4_EEEENS5_ILb1ENS0_8HaConfigIdS4_EEEENS5_ILb1ENS0_8HcConfigIdS4_EEEEEEEE13art_this_yearEv"
 "_ZN8leapfrog8internal20ChildModelSimulationINS0_11ConfigMixerILNS_8LanguageE1EJdNS_10ChildModelENS0_4PairILb1ENS0_8DpConfigIdS4_EEEENS5_ILb1ENS0_8HaConfigIdS4_EEEENS5_ILb1ENS0_8HcConfigIdS4_EEEEEEEE13bf_inf_coarseEiii"
 "_ZN8leapfrog8internal20ChildModelSimulationINS0_11ConfigMixerILNS_8LanguageE1EJdNS_10ChildModelENS0_4PairILb1ENS0_8DpConfigIdS4_EEEENS5_ILb1ENS0_8HaConfigIdS4_EEEENS5_ILb1ENS0_8HcConfigIdS4_EEEEEEEE13cd4_mortalityEv"
 "_ZN8leapfrog8internal20ChildModelSimulationINS0_11ConfigMixerILNS_8LanguageE1EJdNS_10ChildModelENS0_4PairILb1ENS0_8DpConfigIdS4_EEEENS5_ILb1ENS0_8HaConfigIdS4_EEEENS5_ILb1ENS0_8HcConfigIdS4_EEEEEEEE14add_child_gradEv"
 "_ZN8leapfrog8internal20ChildModelSimulationINS0_11ConfigMixerILNS_8LanguageE1EJdNS_10ChildModelENS0_4PairILb1ENS0_8DpConfigIdS4_EEEENS5_ILb1ENS0_8HaConfigIdS4_EEEENS5_ILb1ENS0_8HcConfigIdS4_EEEEEEEE14add_infectionsEv"
 "_ZN8leapfrog8internal20ChildModelSimulationINS0_11ConfigMixerILNS_8LanguageE1EJdNS_10ChildModelENS0_4PairILb1ENS0_8DpConfigIdS4_EEEENS5_ILb1ENS0_8HaConfigIdS4_EEEENS5_ILb1ENS0_8HcConfigIdS4_EEEEEEEE15need_for_cotrimEv"
 "_ZN8leapfrog8internal20ChildModelSimulationINS0_11ConfigMixerILNS_8LanguageE1EJdNS_10ChildModelENS0_4PairILb1ENS0_8DpConfigIdS4_EEEENS5_ILb1ENS0_8HaConfigIdS4_EEEENS5_ILb1ENS0_8HcConfigIdS4_EEEEEEEE16deaths_this_yearEv"
 "_ZN8leapfrog8internal20ChildModelSimulationINS0_11ConfigMixerILNS_8LanguageE1EJdNS_10ChildModelENS0_4PairILb1ENS0_8DpConfigIdS4_EEEENS5_ILb1ENS0_8HaConfigIdS4_EEEENS5_ILb1ENS0_8HcConfigIdS4_EEEEEEEE16on_art_mortalityEii"
 "_ZN8leapfrog8internal20ChildModelSimulationINS0_11ConfigMixerILNS_8LanguageE1EJdNS_10ChildModelENS0_4PairILb1ENS0_8DpConfigIdS4_EEEENS5_ILb1ENS0_8HaConfigIdS4_EEEENS5_ILb1ENS0_8HcConfigIdS4_EEEEEEEE16run_child_ageingEv"
 "_ZN8leapfrog8internal20ChildModelSimulationINS0_11ConfigMixerILNS_8LanguageE1EJdNS_10ChildModelENS0_4PairILb1ENS0_8DpConfigIdS4_EEEENS5_ILb1ENS0_8HaConfigIdS4_EEEENS5_ILb1ENS0_8HcConfigIdS4_EEEEEEEE16run_wlhiv_birthsEv"
 "_ZN8leapfrog8internal20ChildModelSimulationINS0_11ConfigMixerILNS_8LanguageE1EJdNS_10ChildModelENS0_4PairILb1ENS0_8DpConfigIdS4_EEEENS5_ILb1ENS0_8HaConfigIdS4_EEEENS5_ILb1ENS0_8HcConfigIdS4_EEEEEEEE17adjust_hiv_birthsEv"
 "_ZN8leapfrog8internal20ChildModelSimulationINS0_11ConfigMixerILNS_8LanguageE1EJdNS_10ChildModelENS0_4PairILb1ENS0_8DpConfigIdS4_EEEENS5_ILb1ENS0_8HaConfigIdS4_EEEENS5_ILb1ENS0_8HcConfigIdS4_EEEEEEEE17bf_dropout_coarseEi"
 "_ZN8leapfrog8internal20ChildModelSimulationINS0_11ConfigMixerILNS_8LanguageE1EJdNS_10ChildModelENS0_4PairILb1ENS0_8DpConfigIdS4_EEEENS5_ILb1ENS0_8HaConfigIdS4_EEEENS5_ILb1ENS0_8HcConfigIdS4_EEEEEEEE17coarse_infectionsEv"
 "_ZN8leapfrog8internal20ChildModelSimulationINS0_11ConfigMixerILNS_8LanguageE1EJdNS_10ChildModelENS0_4PairILb1ENS0_8DpConfigIdS4_EEEENS5_ILb1ENS0_8HaConfigIdS4_EEEENS5_ILb1ENS0_8HcConfigIdS4_EEEEEEEE17get_cotrim_effectEi"
 "_ZN8leapfrog8internal20ChildModelSimulationINS0_11ConfigMixerILNS_8LanguageE1EJdNS_10ChildModelENS0_4PairILb1ENS0_8DpConfigIdS4_EEEENS5_ILb1ENS0_8HaConfigIdS4_EEEENS5_ILb1ENS0_8HcConfigIdS4_EEEEEEEE18calc_art_initiatesEv"
 "_ZN8leapfrog8internal20ChildModelSimulationINS0_11ConfigMixerILNS_8LanguageE1EJdNS_10ChildModelENS0_4PairILb1ENS0_8DpConfigIdS4_EEEENS5_ILb1ENS0_8HaConfigIdS4_EEEENS5_ILb1ENS0_8HcConfigIdS4_EEEEEEEE18run_child_hiv_mortEv"
 "_ZN8leapfrog8internal20ChildModelSimulationINS0_11ConfigMixerILNS_8LanguageE1EJdNS_10ChildModelENS0_4PairILb1ENS0_8DpConfigIdS4_EEEENS5_ILb1ENS0_8HaConfigIdS4_EEEENS5_ILb1ENS0_8HcConfigIdS4_EEEEEEEE20adjust_option_A_B_trEv"
 "_ZN8leapfrog8internal20ChildModelSimulationINS0_11ConfigMixerILNS_8LanguageE1EJdNS_10ChildModelENS0_4PairILb1ENS0_8DpConfigIdS4_EEEENS5_ILb1ENS0_8HaConfigIdS4_EEEENS5_ILb1ENS0_8HcConfigIdS4_EEEEEEEE20apply_ltfu_to_artpopEv"
 "_ZN8leapfrog8internal20ChildModelSimulationINS0_11ConfigMixerILNS_8LanguageE1EJdNS_10ChildModelENS0_4PairILb1ENS0_8DpConfigIdS4_EEEENS5_ILb1ENS0_8HaConfigIdS4_EEEENS5_ILb1ENS0_8HcConfigIdS4_EEEEEEEE20apply_ltfu_to_hivpopEv"
 "_ZN8leapfrog8internal20ChildModelSimulationINS0_11ConfigMixerILNS_8LanguageE1EJdNS_10ChildModelENS0_4PairILb1ENS0_8DpConfigIdS4_EEEENS5_ILb1ENS0_8HaConfigIdS4_EEEENS5_ILb1ENS0_8HcConfigIdS4_EEEEEEEE20convert_PMTCT_pre_bfEv"
 "_ZN8leapfrog8internal20ChildModelSimulationINS0_11ConfigMixerILNS_8LanguageE1EJdNS_10ChildModelENS0_4PairILb1ENS0_8DpConfigIdS4_EEEENS5_ILb1ENS0_8HaConfigIdS4_EEEENS5_ILb1ENS0_8HcConfigIdS4_EEEEEEEE20perinatal_inf_coarseEv"
 "_ZN8leapfrog8internal20ChildModelSimulationINS0_11ConfigMixerILNS_8LanguageE1EJdNS_10ChildModelENS0_4PairILb1ENS0_8DpConfigIdS4_EEEENS5_ILb1ENS0_8HaConfigIdS4_EEEENS5_ILb1ENS0_8HcConfigIdS4_EEEEEEEE20progress_time_on_artEii"
 "_ZN8leapfrog8internal20ChildModelSimulationINS0_11ConfigMixerILNS_8LanguageE1EJdNS_10ChildModelENS0_4PairILb1ENS0_8DpConfigIdS4_EEEENS5_ILb1ENS0_8HaConfigIdS4_EEEENS5_ILb1ENS0_8HcConfigIdS4_EEEEEEEE21art_initiation_by_ageEv"
 "_ZN8leapfrog8internal20ChildModelSimulationINS0_11ConfigMixerILNS_8LanguageE1EJdNS_10ChildModelENS0_4PairILb1ENS0_8DpConfigIdS4_EEEENS5_ILb1ENS0_8HaConfigIdS4_EEEENS5_ILb1ENS0_8HcConfigIdS4_EEEEEEEE21calc_hiv_negative_popEv"
 "_ZN8leapfrog8internal20ChildModelSimulationINS0_11ConfigMixerILNS_8LanguageE1EJdNS_10ChildModelENS0_4PairILb1ENS0_8DpConfigIdS4_EEEENS5_ILb1ENS0_8HaConfigIdS4_EEEENS5_ILb1ENS0_8HcConfigIdS4_EEEEEEEE21nosocomial_infectionsEv"
 "_ZN8leapfrog8internal20ChildModelSimulationINS0_11ConfigMixerILNS_8LanguageE1EJdNS_10ChildModelENS0_4PairILb1ENS0_8DpConfigIdS4_EEEENS5_ILb1ENS0_8HaConfigIdS4_EEEENS5_ILb1ENS0_8HcConfigIdS4_EEEEEEEE22art_eligibility_by_ageEv"
 "_ZN8leapfrog8internal20ChildModelSimulationINS0_11ConfigMixerILNS_8LanguageE1EJdNS_10ChildModelENS0_4PairILb1ENS0_8DpConfigIdS4_EEEENS5_ILb1ENS0_8HaConfigIdS4_EEEENS5_ILb1ENS0_8HcConfigIdS4_EEEEEEEE22art_eligibility_by_cd4Ev"
 "_ZN8leapfrog8internal20ChildModelSimulationINS0_11ConfigMixerILNS_8LanguageE1EJdNS_10ChildModelENS0_4PairILb1ENS0_8DpConfigIdS4_EEEENS5_ILb1ENS0_8HaConfigIdS4_EEEENS5_ILb1ENS0_8HcConfigIdS4_EEEEEEEE22eligible_for_treatmentEv"
 "_ZN8leapfrog8internal20ChildModelSimulationINS0_11ConfigMixerILNS_8LanguageE1EJdNS_10ChildModelENS0_4PairILb1ENS0_8DpConfigIdS4_EEEENS5_ILb1ENS0_8HaConfigIdS4_EEEENS5_ILb1ENS0_8HcConfigIdS4_EEEEEEEE22fill_total_pop_outputsEv"
 "_ZN8leapfrog8internal20ChildModelSimulationINS0_11ConfigMixerILNS_8LanguageE1EJdNS_10ChildModelENS0_4PairILb1ENS0_8DpConfigIdS4_EEEENS5_ILb1ENS0_8HaConfigIdS4_EEEENS5_ILb1ENS0_8HcConfigIdS4_EEEEEEEE23adjust_option_A_B_bf_trEv"
 "_ZN8leapfrog8internal20ChildModelSimulationINS0_11ConfigMixerILNS_8LanguageE1EJdNS_10ChildModelENS0_4PairILb1ENS0_8DpConfigIdS4_EEEENS5_ILb1ENS0_8HaConfigIdS4_EEEENS5_ILb1ENS0_8HcConfigIdS4_EEEEEEEE24run_bf_transmission_rateEiii"
 "_ZN8leapfrog8internal20ChildModelSimulationINS0_11ConfigMixerILNS_8LanguageE1EJdNS_10ChildModelENS0_4PairILb1ENS0_8DpConfigIdS4_EEEENS5_ILb1ENS0_8HaConfigIdS4_EEEENS5_ILb1ENS0_8HcConfigIdS4_EEEEEEEE25calc_wlhiv_cd4_proportionEv"
 "_ZN8leapfrog8internal20ChildModelSimulationINS0_11ConfigMixerILNS_8LanguageE1EJdNS_10ChildModelENS0_4PairILb1ENS0_8DpConfigIdS4_EEEENS5_ILb1ENS0_8HaConfigIdS4_EEEENS5_ILb1ENS0_8HcConfigIdS4_EEEEEEEE25convert_PMTCT_num_to_percEv"
 "_ZN8leapfrog8internal20ChildModelSimulationINS0_11ConfigMixerILNS_8LanguageE1EJdNS_10ChildModelENS0_4PairILb1ENS0_8DpConfigIdS4_EEEENS5_ILb1ENS0_8HaConfigIdS4_EEEENS5_ILb1ENS0_8HcConfigIdS4_EEEEEEEE26age_specific_art_last_yearEv"
 "_ZN8leapfrog8internal20ChildModelSimulationINS0_11ConfigMixerILNS_8LanguageE1EJdNS_10ChildModelENS0_4PairILb1ENS0_8DpConfigIdS4_EEEENS5_ILb1ENS0_8HaConfigIdS4_EEEENS5_ILb1ENS0_8HcConfigIdS4_EEEEEEEE26run_child_model_simulationEv"
 "_ZN8leapfrog8internal20ChildModelSimulationINS0_11ConfigMixerILNS_8LanguageE1EJdNS_10ChildModelENS0_4PairILb1ENS0_8DpConfigIdS4_EEEENS5_ILb1ENS0_8HaConfigIdS4_EEEENS5_ILb1ENS0_8HcConfigIdS4_EEEEEEEE27maternal_incidence_in_bf_trEv"
 "_ZN8leapfrog8internal20ChildModelSimulationINS0_11ConfigMixerILNS_8LanguageE1EJdNS_10ChildModelENS0_4PairILb1ENS0_8DpConfigIdS4_EEEENS5_ILb1ENS0_8HaConfigIdS4_EEEENS5_ILb1ENS0_8HcConfigIdS4_EEEEEEEE29calc_total_and_unmet_art_needEv"
 "_ZN8leapfrog8internal20ChildModelSimulationINS0_11ConfigMixerILNS_8LanguageE1EJdNS_10ChildModelENS0_4PairILb1ENS0_8DpConfigIdS4_EEEENS5_ILb1ENS0_8HaConfigIdS4_EEEENS5_ILb1ENS0_8HcConfigIdS4_EEEEEEEE31run_wlhiv_births_input_mat_prevEv"
 "_ZN8leapfrog8internal20ChildModelSimulationINS0_11ConfigMixerILNS_8LanguageE1EJdNS_10ChildModelENS0_4PairILb1ENS0_8DpConfigIdS4_EEEENS5_ILb1ENS0_8HaConfigIdS4_EEEENS5_ILb1ENS0_8HcConfigIdS4_EEEEEEEE34maternal_incidence_in_pregnancy_trEv"
 "_ZN8leapfrog8internal20ChildModelSimulationINS0_11ConfigMixerILNS_8LanguageE1EJdNS_10ChildModelENS0_4PairILb1ENS0_8DpConfigIdS4_EEEENS5_ILb1ENS0_8HaConfigIdS4_EEEENS5_ILb1ENS0_8HcConfigIdS4_EEEEEEEE8art_ltfuEv"
 "_ZN8leapfrog8internal20ChildModelSimulationINS0_11ConfigMixerILNS_8LanguageE1EJdNS_10ChildModelENS0_4PairILb1ENS0_8DpConfigIdS4_EEEENS5_ILb1ENS0_8HaConfigIdS4_EEEENS5_ILb1ENS0_8HcConfigIdS4_EEEEEEEEC1ERNSF_4ArgsE"
 "_ZN8leapfrog8internal20ChildModelSimulationINS0_11ConfigMixerILNS_8LanguageE1EJdNS_21DemographicProjectionENS0_4PairILb1ENS0_8DpConfigIdS4_EEEENS5_ILb0ENS0_8HaConfigIdS4_EEEENS5_ILb0ENS0_8HcConfigIdS4_EEEEEEEEC1Ez"
 "_ZN8leapfrog8internal20ChildModelSimulationINS0_11ConfigMixerILNS_8LanguageE1EJdNS_24HivFullAgeStratificationENS0_4PairILb1ENS0_8DpConfigIdS4_EEEENS5_ILb1ENS0_8HaConfigIdS4_EEEENS5_ILb0ENS0_8HcConfigIdS4_EEEEEEEEC1Ez"
 "_ZN8leapfrog8internal20ChildModelSimulationINS0_11ConfigMixerILNS_8LanguageE1EJdNS_26HivCoarseAgeStratificationENS0_4PairILb1ENS0_8DpConfigIdS4_EEEENS5_ILb1ENS0_8HaConfigIdS4_EEEENS5_ILb0ENS0_8HcConfigIdS4_EEEEEEEEC1Ez"
 "_ZN8leapfrog8internal20get_proj_period_enumESt17basic_string_viewIcSt11char_traitsIcEE"
 "_ZN8leapfrog8internal21validate_output_yearsESt6vectorIiSaIiEEi"
 "_ZN8leapfrog8internal23AdultHivModelSimulationINS0_11ConfigMixerILNS_8LanguageE1EJdNS_10ChildModelENS0_4PairILb1ENS0_8DpConfigIdS4_EEEENS5_ILb1ENS0_8HaConfigIdS4_EEEENS5_ILb1ENS0_8HcConfigIdS4_EEEEEEEE20run_h_art_initiationEi"
 "_ZN8leapfrog8internal23AdultHivModelSimulationINS0_11ConfigMixerILNS_8LanguageE1EJdNS_10ChildModelENS0_4PairILb1ENS0_8DpConfigIdS4_EEEENS5_ILb1ENS0_8HaConfigIdS4_EEEENS5_ILb1ENS0_8HcConfigIdS4_EEEEEEEE20run_new_p_infectionsEi"
 "_ZN8leapfrog8internal23AdultHivModelSimulationINS0_11ConfigMixerILNS_8LanguageE1EJdNS_10ChildModelENS0_4PairILb1ENS0_8DpConfigIdS4_EEEENS5_ILb1ENS0_8HaConfigIdS4_EEEENS5_ILb1ENS0_8HcConfigIdS4_EEEEEEEE23run_remove_p_hiv_deathsEi"
 "_ZN8leapfrog8internal23AdultHivModelSimulationINS0_11ConfigMixerILNS_8LanguageE1EJdNS_10ChildModelENS0_4PairILb1ENS0_8DpConfigIdS4_EEEENS5_ILb1ENS0_8HaConfigIdS4_EEEENS5_ILb1ENS0_8HcConfigIdS4_EEEEEEEE24run_hiv_model_simulationEv"
 "_ZN8leapfrog8internal23AdultHivModelSimulationINS0_11ConfigMixerILNS_8LanguageE1EJdNS_10ChildModelENS0_4PairILb1ENS0_8DpConfigIdS4_EEEENS5_ILb1ENS0_8HaConfigIdS4_EEEENS5_ILb1ENS0_8HcConfigIdS4_EEEEEEEE24run_new_hiv_p_infectionsEi"
 "_ZN8leapfrog8internal23AdultHivModelSimulationINS0_11ConfigMixerILNS_8LanguageE1EJdNS_10ChildModelENS0_4PairILb1ENS0_8DpConfigIdS4_EEEENS5_ILb1ENS0_8HaConfigIdS4_EEEENS5_ILb1ENS0_8HcConfigIdS4_EEEEEEEE26distribute_rate_over_sexesEv"
 "_ZN8leapfrog8internal23AdultHivModelSimulationINS0_11ConfigMixerILNS_8LanguageE1EJdNS_10ChildModelENS0_4PairILb1ENS0_8DpConfigIdS4_EEEENS5_ILb1ENS0_8HaConfigIdS4_EEEENS5_ILb1ENS0_8HcConfigIdS4_EEEEEEEE28run_calculate_incidence_rateEv"
 "_ZN8leapfrog8internal23AdultHivModelSimulationINS0_11ConfigMixerILNS_8LanguageE1EJdNS_10ChildModelENS0_4PairILb1ENS0_8DpConfigIdS4_EEEENS5_ILb1ENS0_8HaConfigIdS4_EEEENS5_ILb1ENS0_8HcConfigIdS4_EEEEEEEE29run_update_art_stratificationEi"
 "_ZN8leapfrog8internal23AdultHivModelSimulationINS0_11ConfigMixerILNS_8LanguageE1EJdNS_10ChildModelENS0_4PairILb1ENS0_8DpConfigIdS4_EEEENS5_ILb1ENS0_8HaConfigIdS4_EEEENS5_ILb1ENS0_8HcConfigIdS4_EEEEEEEE29run_update_hiv_stratificationEi"
 "_ZN8leapfrog8internal23AdultHivModelSimulationINS0_11ConfigMixerILNS_8LanguageE1EJdNS_10ChildModelENS0_4PairILb1ENS0_8DpConfigIdS4_EEEENS5_ILb1ENS0_8HaConfigIdS4_EEEENS5_ILb1ENS0_8HcConfigIdS4_EEEEEEEE33run_art_progression_and_mortalityEi"
 "_ZN8leapfrog8internal23AdultHivModelSimulationINS0_11ConfigMixerILNS_8LanguageE1EJdNS_10ChildModelENS0_4PairILb1ENS0_8DpConfigIdS4_EEEENS5_ILb1ENS0_8HaConfigIdS4_EEEENS5_ILb1ENS0_8HcConfigIdS4_EEEEEEEE37run_disease_progression_and_mortalityEi"
 "_ZN8leapfrog8internal23AdultHivModelSimulationINS0_11ConfigMixerILNS_8LanguageE1EJdNS_10ChildModelENS0_4PairILb1ENS0_8DpConfigIdS4_EEEENS5_ILb1ENS0_8HaConfigIdS4_EEEENS5_ILb1ENS0_8HcConfigIdS4_EEEEEEEE8hAG_spanE"
 "_ZN8leapfrog8internal23AdultHivModelSimulationINS0_11ConfigMixerILNS_8LanguageE1EJdNS_10ChildModelENS0_4PairILb1ENS0_8DpConfigIdS4_EEEENS5_ILb1ENS0_8HaConfigIdS4_EEEENS5_ILb1ENS0_8HcConfigIdS4_EEEEEEEEC1ERNSF_4ArgsE"
 "_ZN8leapfrog8internal23AdultHivModelSimulationINS0_11ConfigMixerILNS_8LanguageE1EJdNS_21DemographicProjectionENS0_4PairILb1ENS0_8DpConfigIdS4_EEEENS5_ILb0ENS0_8HaConfigIdS4_EEEENS5_ILb0ENS0_8HcConfigIdS4_EEEEEEEEC1Ez"
 "_ZN8leapfrog8internal23AdultHivModelSimulationINS0_11ConfigMixerILNS_8LanguageE1EJdNS_24HivFullAgeStratificationENS0_4PairILb1ENS0_8DpConfigIdS4_EEEENS5_ILb1ENS0_8HaConfigIdS4_EEEENS5_ILb0ENS0_8HcConfigIdS4_EEEEEEEE20run_h_art_initiationEi"
 "_ZN8leapfrog8internal23AdultHivModelSimulationINS0_11ConfigMixerILNS_8LanguageE1EJdNS_24HivFullAgeStratificationENS0_4PairILb1ENS0_8DpConfigIdS4_EEEENS5_ILb1ENS0_8HaConfigIdS4_EEEENS5_ILb0ENS0_8HcConfigIdS4_EEEEEEEE20run_new_p_infectionsEi"
 "_ZN8leapfrog8internal23AdultHivModelSimulationINS0_11ConfigMixerILNS_8LanguageE1EJdNS_24HivFullAgeStratificationENS0_4PairILb1ENS0_8DpConfigIdS4_EEEENS5_ILb1ENS0_8HaConfigIdS4_EEEENS5_ILb0ENS0_8HcConfigIdS4_EEEEEEEE23run_remove_p_hiv_deathsEi"
 "_ZN8leapfrog8internal23AdultHivModelSimulationINS0_11ConfigMixerILNS_8LanguageE1EJdNS_24HivFullAgeStratificationENS0_4PairILb1ENS0_8DpConfigIdS4_EEEENS5_ILb1ENS0_8HaConfigIdS4_EEEENS5_ILb0ENS0_8HcConfigIdS4_EEEEEEEE24run_hiv_model_simulationEv"
 "_ZN8leapfrog8internal23AdultHivModelSimulationINS0_11ConfigMixerILNS_8LanguageE1EJdNS_24HivFullAgeStratificationENS0_4PairILb1ENS0_8DpConfigIdS4_EEEENS5_ILb1ENS0_8HaConfigIdS4_EEEENS5_ILb0ENS0_8HcConfigIdS4_EEEEEEEE24run_new_hiv_p_infectionsEi"
 "_ZN8leapfrog8internal23AdultHivModelSimulationINS0_11ConfigMixerILNS_8LanguageE1EJdNS_24HivFullAgeStratificationENS0_4PairILb1ENS0_8DpConfigIdS4_EEEENS5_ILb1ENS0_8HaConfigIdS4_EEEENS5_ILb0ENS0_8HcConfigIdS4_EEEEEEEE26distribute_rate_over_sexesEv"
 "_ZN8leapfrog8internal23AdultHivModelSimulationINS0_11ConfigMixerILNS_8LanguageE1EJdNS_24HivFullAgeStratificationENS0_4PairILb1ENS0_8DpConfigIdS4_EEEENS5_ILb1ENS0_8HaConfigIdS4_EEEENS5_ILb0ENS0_8HcConfigIdS4_EEEEEEEE28run_calculate_incidence_rateEv"
 "_ZN8leapfrog8internal23AdultHivModelSimulationINS0_11ConfigMixerILNS_8LanguageE1EJdNS_24HivFullAgeStratificationENS0_4PairILb1ENS0_8DpConfigIdS4_EEEENS5_ILb1ENS0_8HaConfigIdS4_EEEENS5_ILb0ENS0_8HcConfigIdS4_EEEEEEEE29run_update_art_stratificationEi"
 "_ZN8leapfrog8internal23AdultHivModelSimulationINS0_11ConfigMixerILNS_8LanguageE1EJdNS_24HivFullAgeStratificationENS0_4PairILb1ENS0_8DpConfigIdS4_EEEENS5_ILb1ENS0_8HaConfigIdS4_EEEENS5_ILb0ENS0_8HcConfigIdS4_EEEEEEEE29run_update_hiv_stratificationEi"
 "_ZN8leapfrog8internal23AdultHivModelSimulationINS0_11ConfigMixerILNS_8LanguageE1EJdNS_24HivFullAgeStratificationENS0_4PairILb1ENS0_8DpConfigIdS4_EEEENS5_ILb1ENS0_8HaConfigIdS4_EEEENS5_ILb0ENS0_8HcConfigIdS4_EEEEEEEE33run_art_progression_and_mortalityEi"
 "_ZN8leapfrog8internal23AdultHivModelSimulationINS0_11ConfigMixerILNS_8LanguageE1EJdNS_24HivFullAgeStratificationENS0_4PairILb1ENS0_8DpConfigIdS4_EEEENS5_ILb1ENS0_8HaConfigIdS4_EEEENS5_ILb0ENS0_8HcConfigIdS4_EEEEEEEE37run_disease_progression_and_mortalityEi"
 "_ZN8leapfrog8internal23AdultHivModelSimulationINS0_11ConfigMixerILNS_8LanguageE1EJdNS_24HivFullAgeStratificationENS0_4PairILb1ENS0_8DpConfigIdS4_EEEENS5_ILb1ENS0_8HaConfigIdS4_EEEENS5_ILb0ENS0_8HcConfigIdS4_EEEEEEEE8hAG_spanE"
 "_ZN8leapfrog8internal23AdultHivModelSimulationINS0_11ConfigMixerILNS_8LanguageE1EJdNS_24HivFullAgeStratificationENS0_4PairILb1ENS0_8DpConfigIdS4_EEEENS5_ILb1ENS0_8HaConfigIdS4_EEEENS5_ILb0ENS0_8HcConfigIdS4_EEEEEEEEC1ERNSF_4ArgsE"
 "_ZN8leapfrog8internal23AdultHivModelSimulationINS0_11ConfigMixerILNS_8LanguageE1EJdNS_26HivCoarseAgeStratificationENS0_4PairILb1ENS0_8DpConfigIdS4_EEEENS5_ILb1ENS0_8HaConfigIdS4_EEEENS5_ILb0ENS0_8HcConfigIdS4_EEEEEEEE20run_h_art_initiationEi"
 "_ZN8leapfrog8internal23AdultHivModelSimulationINS0_11ConfigMixerILNS_8LanguageE1EJdNS_26HivCoarseAgeStratificationENS0_4PairILb1ENS0_8DpConfigIdS4_EEEENS5_ILb1ENS0_8HaConfigIdS4_EEEENS5_ILb0ENS0_8HcConfigIdS4_EEEEEEEE20run_new_p_infectionsEi"
 "_ZN8leapfrog8internal23AdultHivModelSimulationINS0_11ConfigMixerILNS_8LanguageE1EJdNS_26HivCoarseAgeStratificationENS0_4PairILb1ENS0_8DpConfigIdS4_EEEENS5_ILb1ENS0_8HaConfigIdS4_EEEENS5_ILb0ENS0_8HcConfigIdS4_EEEEEEEE23run_remove_p_hiv_deathsEi"
 "_ZN8leapfrog8internal23AdultHivModelSimulationINS0_11ConfigMixerILNS_8LanguageE1EJdNS_26HivCoarseAgeStratificationENS0_4PairILb1ENS0_8DpConfigIdS4_EEEENS5_ILb1ENS0_8HaConfigIdS4_EEEENS5_ILb0ENS0_8HcConfigIdS4_EEEEEEEE24run_hiv_model_simulationEv"
 "_ZN8leapfrog8internal23AdultHivModelSimulationINS0_11ConfigMixerILNS_8LanguageE1EJdNS_26HivCoarseAgeStratificationENS0_4PairILb1ENS0_8DpConfigIdS4_EEEENS5_ILb1ENS0_8HaConfigIdS4_EEEENS5_ILb0ENS0_8HcConfigIdS4_EEEEEEEE24run_new_hiv_p_infectionsEi"
 "_ZN8leapfrog8internal23AdultHivModelSimulationINS0_11ConfigMixerILNS_8LanguageE1EJdNS_26HivCoarseAgeStratificationENS0_4PairILb1ENS0_8DpConfigIdS4_EEEENS5_ILb1ENS0_8HaConfigIdS4_EEEENS5_ILb0ENS0_8HcConfigIdS4_EEEEEEEE26distribute_rate_over_sexesEv"
 "_ZN8leapfrog8internal23AdultHivModelSimulationINS0_11ConfigMixerILNS_8LanguageE1EJdNS_26HivCoarseAgeStratificationENS0_4PairILb1ENS0_8DpConfigIdS4_EEEENS5_ILb1ENS0_8HaConfigIdS4_EEEENS5_ILb0ENS0_8HcConfigIdS4_EEEEEEEE28run_calculate_incidence_rateEv"
 "_ZN8leapfrog8internal23AdultHivModelSimulationINS0_11ConfigMixerILNS_8LanguageE1EJdNS_26HivCoarseAgeStratificationENS0_4PairILb1ENS0_8DpConfigIdS4_EEEENS5_ILb1ENS0_8HaConfigIdS4_EEEENS5_ILb0ENS0_8HcConfigIdS4_EEEEEEEE29run_update_art_stratificationEi"
 "_ZN8leapfrog8internal23AdultHivModelSimulationINS0_11ConfigMixerILNS_8LanguageE1EJdNS_26HivCoarseAgeStratificationENS0_4PairILb1ENS0_8DpConfigIdS4_EEEENS5_ILb1ENS0_8HaConfigIdS4_EEEENS5_ILb0ENS0_8HcConfigIdS4_EEEEEEEE29run_update_hiv_stratificationEi"
 "_ZN8leapfrog8internal23AdultHivModelSimulationINS0_11ConfigMixerILNS_8LanguageE1EJdNS_26HivCoarseAgeStratificationENS0_4PairILb1ENS0_8DpConfigIdS4_EEEENS5_ILb1ENS0_8HaConfigIdS4_EEEENS5_ILb0ENS0_8HcConfigIdS4_EEEEEEEE33run_art_progression_and_mortalityEi"
 "_ZN8leapfrog8internal23AdultHivModelSimulationINS0_11ConfigMixerILNS_8LanguageE1EJdNS_26HivCoarseAgeStratificationENS0_4PairILb1ENS0_8DpConfigIdS4_EEEENS5_ILb1ENS0_8HaConfigIdS4_EEEENS5_ILb0ENS0_8HcConfigIdS4_EEEEEEEE37run_disease_progression_and_mortalityEi"
 "_ZN8leapfrog8internal23AdultHivModelSimulationINS0_11ConfigMixerILNS_8LanguageE1EJdNS_26HivCoarseAgeStratificationENS0_4PairILb1ENS0_8DpConfigIdS4_EEEENS5_ILb1ENS0_8HaConfigIdS4_EEEENS5_ILb0ENS0_8HcConfigIdS4_EEEEEEEE8hAG_spanE"
 "_ZN8leapfrog8internal23AdultHivModelSimulationINS0_11ConfigMixerILNS_8LanguageE1EJdNS_26HivCoarseAgeStratificationENS0_4PairILb1ENS0_8DpConfigIdS4_EEEENS5_ILb1ENS0_8HaConfigIdS4_EEEENS5_ILb0ENS0_8HcConfigIdS4_EEEEEEEEC1ERNSF_4ArgsE"
 "_ZN8leapfrog8internal24HivDemographicProjectionINS0_11ConfigMixerILNS_8LanguageE1EJdNS_10ChildModelENS0_4PairILb1ENS0_8DpConfigIdS4_EEEENS5_ILb1ENS0_8HaConfigIdS4_EEEENS5_ILb1ENS0_8HcConfigIdS4_EEEEEEEE19run_age_15_entrantsEv"
 "_ZN8leapfrog8internal24HivDemographicProjectionINS0_11ConfigMixerILNS_8LanguageE1EJdNS_10ChildModelENS0_4PairILb1ENS0_8DpConfigIdS4_EEEENS5_ILb1ENS0_8HaConfigIdS4_EEEENS5_ILb1ENS0_8HcConfigIdS4_EEEEEEEE28run_hiv_ageing_and_mortalityEv"
 "_ZN8leapfrog8internal24HivDemographicProjectionINS0_11ConfigMixerILNS_8LanguageE1EJdNS_10ChildModelENS0_4PairILb1ENS0_8DpConfigIdS4_EEEENS5_ILb1ENS0_8HaConfigIdS4_EEEENS5_ILb1ENS0_8HcConfigIdS4_EEEEEEEE30run_hiv_pop_end_year_migrationEv"
 "_ZN8leapfrog8internal24HivDemographicProjectionINS0_11ConfigMixerILNS_8LanguageE1EJdNS_10ChildModelENS0_4PairILb1ENS0_8DpConfigIdS4_EEEENS5_ILb1ENS0_8HaConfigIdS4_EEEENS5_ILb1ENS0_8HcConfigIdS4_EEEEEEEE33run_hiv_and_art_stratified_ageingEv"
 "_ZN8leapfrog8internal24HivDemographicProjectionINS0_11ConfigMixerILNS_8LanguageE1EJdNS_10ChildModelENS0_4PairILb1ENS0_8DpConfigIdS4_EEEENS5_ILb1ENS0_8HaConfigIdS4_EEEENS5_ILb1ENS0_8HcConfigIdS4_EEEEEEEE34run_hiv_pop_demographic_projectionEv"
 "_ZN8leapfrog8internal24HivDemographicProjectionINS0_11ConfigMixerILNS_8LanguageE1EJdNS_10ChildModelENS0_4PairILb1ENS0_8DpConfigIdS4_EEEENS5_ILb1ENS0_8HaConfigIdS4_EEEENS5_ILb1ENS0_8HcConfigIdS4_EEEEEEEE47run_hiv_and_art_stratified_deaths_and_migrationEv"
 "_ZN8leapfrog8internal24HivDemographicProjectionINS0_11ConfigMixerILNS_8LanguageE1EJdNS_10ChildModelENS0_4PairILb1ENS0_8DpConfigIdS4_EEEENS5_ILb1ENS0_8HaConfigIdS4_EEEENS5_ILb1ENS0_8HcConfigIdS4_EEEEEEEE8hAG_spanE"
 "_ZN8leapfrog8internal24HivDemographicProjectionINS0_11ConfigMixerILNS_8LanguageE1EJdNS_10ChildModelENS0_4PairILb1ENS0_8DpConfigIdS4_EEEENS5_ILb1ENS0_8HaConfigIdS4_EEEENS5_ILb1ENS0_8HcConfigIdS4_EEEEEEEEC1ERNSF_4ArgsE"
 "_ZN8leapfrog8internal24HivDemographicProjectionINS0_11ConfigMixerILNS_8LanguageE1EJdNS_21DemographicProjectionENS0_4PairILb1ENS0_8DpConfigIdS4_EEEENS5_ILb0ENS0_8HaConfigIdS4_EEEENS5_ILb0ENS0_8HcConfigIdS4_EEEEEEEEC1Ez"
 "_ZN8leapfrog8internal24HivDemographicProjectionINS0_11ConfigMixerILNS_8LanguageE1EJdNS_24HivFullAgeStratificationENS0_4PairILb1ENS0_8DpConfigIdS4_EEEENS5_ILb1ENS0_8HaConfigIdS4_EEEENS5_ILb0ENS0_8HcConfigIdS4_EEEEEEEE28run_hiv_ageing_and_mortalityEv"
 "_ZN8leapfrog8internal24HivDemographicProjectionINS0_11ConfigMixerILNS_8LanguageE1EJdNS_24HivFullAgeStratificationENS0_4PairILb1ENS0_8DpConfigIdS4_EEEENS5_ILb1ENS0_8HaConfigIdS4_EEEENS5_ILb0ENS0_8HcConfigIdS4_EEEEEEEE30run_hiv_pop_end_year_migrationEv"
 "_ZN8leapfrog8internal24HivDemographicProjectionINS0_11ConfigMixerILNS_8LanguageE1EJdNS_24HivFullAgeStratificationENS0_4PairILb1ENS0_8DpConfigIdS4_EEEENS5_ILb1ENS0_8HaConfigIdS4_EEEENS5_ILb0ENS0_8HcConfigIdS4_EEEEEEEE33run_hiv_and_art_stratified_ageingEv"
 "_ZN8leapfrog8internal24HivDemographicProjectionINS0_11ConfigMixerILNS_8LanguageE1EJdNS_24HivFullAgeStratificationENS0_4PairILb1ENS0_8DpConfigIdS4_EEEENS5_ILb1ENS0_8HaConfigIdS4_EEEENS5_ILb0ENS0_8HcConfigIdS4_EEEEEEEE34run_hiv_pop_demographic_projectionEv"
 "_ZN8leapfrog8internal24HivDemographicProjectionINS0_11ConfigMixerILNS_8LanguageE1EJdNS_24HivFullAgeStratificationENS0_4PairILb1ENS0_8DpConfigIdS4_EEEENS5_ILb1ENS0_8HaConfigIdS4_EEEENS5_ILb0ENS0_8HcConfigIdS4_EEEEEEEE47run_hiv_and_art_stratified_deaths_and_migrationEv"
 "_ZN8leapfrog8internal24HivDemographicProjectionINS0_11ConfigMixerILNS_8LanguageE1EJdNS_24HivFullAgeStratificationENS0_4PairILb1ENS0_8DpConfigIdS4_EEEENS5_ILb1ENS0_8HaConfigIdS4_EEEENS5_ILb0ENS0_8HcConfigIdS4_EEEEEEEE8hAG_spanE"
 "_ZN8leapfrog8internal24HivDemographicProjectionINS0_11ConfigMixerILNS_8LanguageE1EJdNS_24HivFullAgeStratificationENS0_4PairILb1ENS0_8DpConfigIdS4_EEEENS5_ILb1ENS0_8HaConfigIdS4_EEEENS5_ILb0ENS0_8HcConfigIdS4_EEEEEEEEC1ERNSF_4ArgsE"
 "_ZN8leapfrog8internal24HivDemographicProjectionINS0_11ConfigMixerILNS_8LanguageE1EJdNS_26HivCoarseAgeStratificationENS0_4PairILb1ENS0_8DpConfigIdS4_EEEENS5_ILb1ENS0_8HaConfigIdS4_EEEENS5_ILb0ENS0_8HcConfigIdS4_EEEEEEEE28run_hiv_ageing_and_mortalityEv"
 "_ZN8leapfrog8internal24HivDemographicProjectionINS0_11ConfigMixerILNS_8LanguageE1EJdNS_26HivCoarseAgeStratificationENS0_4PairILb1ENS0_8DpConfigIdS4_EEEENS5_ILb1ENS0_8HaConfigIdS4_EEEENS5_ILb0ENS0_8HcConfigIdS4_EEEEEEEE30run_hiv_pop_end_year_migrationEv"
 "_ZN8leapfrog8internal24HivDemographicProjectionINS0_11ConfigMixerILNS_8LanguageE1EJdNS_26HivCoarseAgeStratificationENS0_4PairILb1ENS0_8DpConfigIdS4_EEEENS5_ILb1ENS0_8HaConfigIdS4_EEEENS5_ILb0ENS0_8HcConfigIdS4_EEEEEEEE33run_hiv_and_art_stratified_ageingEv"
 "_ZN8leapfrog8internal24HivDemographicProjectionINS0_11ConfigMixerILNS_8LanguageE1EJdNS_26HivCoarseAgeStratificationENS0_4PairILb1ENS0_8DpConfigIdS4_EEEENS5_ILb1ENS0_8HaConfigIdS4_EEEENS5_ILb0ENS0_8HcConfigIdS4_EEEEEEEE34run_hiv_pop_demographic_projectionEv"
 "_ZN8leapfrog8internal24HivDemographicProjectionINS0_11ConfigMixerILNS_8LanguageE1EJdNS_26HivCoarseAgeStratificationENS0_4PairILb1ENS0_8DpConfigIdS4_EEEENS5_ILb1ENS0_8HaConfigIdS4_EEEENS5_ILb0ENS0_8HcConfigIdS4_EEEEEEEE47run_hiv_and_art_stratified_deaths_and_migrationEv"
 "_ZN8leapfrog8internal24HivDemographicProjectionINS0_11ConfigMixerILNS_8LanguageE1EJdNS_26HivCoarseAgeStratificationENS0_4PairILb1ENS0_8DpConfigIdS4_EEEENS5_ILb1ENS0_8HaConfigIdS4_EEEENS5_ILb0ENS0_8HcConfigIdS4_EEEEEEEE8hAG_spanE"
 "_ZN8leapfrog8internal24HivDemographicProjectionINS0_11ConfigMixerILNS_8LanguageE1EJdNS_26HivCoarseAgeStratificationENS0_4PairILb1ENS0_8DpConfigIdS4_EEEENS5_ILb1ENS0_8HaConfigIdS4_EEEENS5_ILb0ENS0_8HcConfigIdS4_EEEEEEEEC1ERNSF_4ArgsE"
 "_ZN8leapfrog8internal28GeneralDemographicProjectionINS0_11ConfigMixerILNS_8LanguageE1EJdNS_10ChildModelENS0_4PairILb1ENS0_8DpConfigIdS4_EEEENS5_ILb1ENS0_8HaConfigIdS4_EEEENS5_ILb1ENS0_8HcConfigIdS4_EEEEEEEE13run_migrationEv"
 "_ZN8leapfrog8internal28GeneralDemographicProjectionINS0_11ConfigMixerILNS_8LanguageE1EJdNS_10ChildModelENS0_4PairILb1ENS0_8DpConfigIdS4_EEEENS5_ILb1ENS0_8HaConfigIdS4_EEEENS5_ILb1ENS0_8HcConfigIdS4_EEEEEEEE22run_end_year_migrationEv"
 "_ZN8leapfrog8internal28GeneralDemographicProjectionINS0_11ConfigMixerILNS_8LanguageE1EJdNS_10ChildModelENS0_4PairILb1ENS0_8DpConfigIdS4_EEEENS5_ILb1ENS0_8HaConfigIdS4_EEEENS5_ILb1ENS0_8HcConfigIdS4_EEEEEEEE24run_ageing_and_mortalityEv"
 "_ZN8leapfrog8internal28GeneralDemographicProjectionINS0_11ConfigMixerILNS_8LanguageE1EJdNS_10ChildModelENS0_4PairILb1ENS0_8DpConfigIdS4_EEEENS5_ILb1ENS0_8HaConfigIdS4_EEEENS5_ILb1ENS0_8HcConfigIdS4_EEEEEEEE34run_fertility_and_infant_migrationEv"
 "_ZN8leapfrog8internal28GeneralDemographicProjectionINS0_11ConfigMixerILNS_8LanguageE1EJdNS_10ChildModelENS0_4PairILb1ENS0_8DpConfigIdS4_EEEENS5_ILb1ENS0_8HaConfigIdS4_EEEENS5_ILb1ENS0_8HcConfigIdS4_EEEEEEEE38run_general_pop_demographic_projectionEv"
 "_ZN8leapfrog8internal28GeneralDemographicProjectionINS0_11ConfigMixerILNS_8LanguageE1EJdNS_10ChildModelENS0_4PairILb1ENS0_8DpConfigIdS4_EEEENS5_ILb1ENS0_8HaConfigIdS4_EEEENS5_ILb1ENS0_8HcConfigIdS4_EEEEEEEEC1ERNSF_4ArgsE"
 "_ZN8leapfrog8internal28GeneralDemographicProjectionINS0_11ConfigMixerILNS_8LanguageE1EJdNS_21DemographicProjectionENS0_4PairILb1ENS0_8DpConfigIdS4_EEEENS5_ILb0ENS0_8HaConfigIdS4_EEEENS5_ILb0ENS0_8HcConfigIdS4_EEEEEEEE13run_migrationEv"
 "_ZN8leapfrog8internal28GeneralDemographicProjectionINS0_11ConfigMixerILNS_8LanguageE1EJdNS_21DemographicProjectionENS0_4PairILb1ENS0_8DpConfigIdS4_EEEENS5_ILb0ENS0_8HaConfigIdS4_EEEENS5_ILb0ENS0_8HcConfigIdS4_EEEEEEEE22run_end_year_migrationEv"
 "_ZN8leapfrog8internal28GeneralDemographicProjectionINS0_11ConfigMixerILNS_8LanguageE1EJdNS_21DemographicProjectionENS0_4PairILb1ENS0_8DpConfigIdS4_EEEENS5_ILb0ENS0_8HaConfigIdS4_EEEENS5_ILb0ENS0_8HcConfigIdS4_EEEEEEEE24run_ageing_and_mortalityEv"
 "_ZN8leapfrog8internal28GeneralDemographicProjectionINS0_11ConfigMixerILNS_8LanguageE1EJdNS_21DemographicProjectionENS0_4PairILb1ENS0_8DpConfigIdS4_EEEENS5_ILb0ENS0_8HaConfigIdS4_EEEENS5_ILb0ENS0_8HcConfigIdS4_EEEEEEEE34run_fertility_and_infant_migrationEv"
 "_ZN8leapfrog8internal28GeneralDemographicProjectionINS0_11ConfigMixerILNS_8LanguageE1EJdNS_21DemographicProjectionENS0_4PairILb1ENS0_8DpConfigIdS4_EEEENS5_ILb0ENS0_8HaConfigIdS4_EEEENS5_ILb0ENS0_8HcConfigIdS4_EEEEEEEE38run_general_pop_demographic_projectionEv"
 "_ZN8leapfrog8internal28GeneralDemographicProjectionINS0_11ConfigMixerILNS_8LanguageE1EJdNS_21DemographicProjectionENS0_4PairILb1ENS0_8DpConfigIdS4_EEEENS5_ILb0ENS0_8HaConfigIdS4_EEEENS5_ILb0ENS0_8HcConfigIdS4_EEEEEEEEC1ERNSF_4ArgsE"
 "_ZN8leapfrog8internal28GeneralDemographicProjectionINS0_11ConfigMixerILNS_8LanguageE1EJdNS_24HivFullAgeStratificationENS0_4PairILb1ENS0_8DpConfigIdS4_EEEENS5_ILb1ENS0_8HaConfigIdS4_EEEENS5_ILb0ENS0_8HcConfigIdS4_EEEEEEEE13run_migrationEv"
 "_ZN8leapfrog8internal28GeneralDemographicProjectionINS0_11ConfigMixerILNS_8LanguageE1EJdNS_24HivFullAgeStratificationENS0_4PairILb1ENS0_8DpConfigIdS4_EEEENS5_ILb1ENS0_8HaConfigIdS4_EEEENS5_ILb0ENS0_8HcConfigIdS4_EEEEEEEE22run_end_year_migrationEv"
 "_ZN8leapfrog8internal28GeneralDemographicProjectionINS0_11ConfigMixerILNS_8LanguageE1EJdNS_24HivFullAgeStratificationENS0_4PairILb1ENS0_8DpConfigIdS4_EEEENS5_ILb1ENS0_8HaConfigIdS4_EEEENS5_ILb0ENS0_8HcConfigIdS4_EEEEEEEE24run_ageing_and_mortalityEv"
 "_ZN8leapfrog8internal28GeneralDemographicProjectionINS0_11ConfigMixerILNS_8LanguageE1EJdNS_24HivFullAgeStratificationENS0_4PairILb1ENS0_8DpConfigIdS4_EEEENS5_ILb1ENS0_8HaConfigIdS4_EEEENS5_ILb0ENS0_8HcConfigIdS4_EEEEEEEE34run_fertility_and_infant_migrationEv"
 "_ZN8leapfrog8internal28GeneralDemographicProjectionINS0_11ConfigMixerILNS_8LanguageE1EJdNS_24HivFullAgeStratificationENS0_4PairILb1ENS0_8DpConfigIdS4_EEEENS5_ILb1ENS0_8HaConfigIdS4_EEEENS5_ILb0ENS0_8HcConfigIdS4_EEEEEEEE38run_general_pop_demographic_projectionEv"
 "_ZN8leapfrog8internal28GeneralDemographicProjectionINS0_11ConfigMixerILNS_8LanguageE1EJdNS_24HivFullAgeStratificationENS0_4PairILb1ENS0_8DpConfigIdS4_EEEENS5_ILb1ENS0_8HaConfigIdS4_EEEENS5_ILb0ENS0_8HcConfigIdS4_EEEEEEEEC1ERNSF_4ArgsE"
 "_ZN8leapfrog8internal28GeneralDemographicProjectionINS0_11ConfigMixerILNS_8LanguageE1EJdNS_26HivCoarseAgeStratificationENS0_4PairILb1ENS0_8DpConfigIdS4_EEEENS5_ILb1ENS0_8HaConfigIdS4_EEEENS5_ILb0ENS0_8HcConfigIdS4_EEEEEEEE13run_migrationEv"
 "_ZN8leapfrog8internal28GeneralDemographicProjectionINS0_11ConfigMixerILNS_8LanguageE1EJdNS_26HivCoarseAgeStratificationENS0_4PairILb1ENS0_8DpConfigIdS4_EEEENS5_ILb1ENS0_8HaConfigIdS4_EEEENS5_ILb0ENS0_8HcConfigIdS4_EEEEEEEE22run_end_year_migrationEv"
 "_ZN8leapfrog8internal28GeneralDemographicProjectionINS0_11ConfigMixerILNS_8LanguageE1EJdNS_26HivCoarseAgeStratificationENS0_4PairILb1ENS0_8DpConfigIdS4_EEEENS5_ILb1ENS0_8HaConfigIdS4_EEEENS5_ILb0ENS0_8HcConfigIdS4_EEEEEEEE24run_ageing_and_mortalityEv"
 "_ZN8leapfrog8internal28GeneralDemographicProjectionINS0_11ConfigMixerILNS_8LanguageE1EJdNS_26HivCoarseAgeStratificationENS0_4PairILb1ENS0_8DpConfigIdS4_EEEENS5_ILb1ENS0_8HaConfigIdS4_EEEENS5_ILb0ENS0_8HcConfigIdS4_EEEEEEEE34run_fertility_and_infant_migrationEv"
 "_ZN8leapfrog8internal28GeneralDemographicProjectionINS0_11ConfigMixerILNS_8LanguageE1EJdNS_26HivCoarseAgeStratificationENS0_4PairILb1ENS0_8DpConfigIdS4_EEEENS5_ILb1ENS0_8HaConfigIdS4_EEEENS5_ILb0ENS0_8HcConfigIdS4_EEEEEEEE38run_general_pop_demographic_projectionEv"
 "_ZN8leapfrog8internal28GeneralDemographicProjectionINS0_11ConfigMixerILNS_8LanguageE1EJdNS_26HivCoarseAgeStratificationENS0_4PairILb1ENS0_8DpConfigIdS4_EEEENS5_ILb1ENS0_8HaConfigIdS4_EEEENS5_ILb0ENS0_8HcConfigIdS4_EEEEEEEEC1ERNSF_4ArgsE"
 "_ZN8leapfrog8internal4DpSSINS_10ChildModelEE2NSE"
 "_ZN8leapfrog8internal4DpSSINS_10ChildModelEE3pAGE"
 "_ZN8leapfrog8internal4DpSSINS_21DemographicProjectionEE2NSE"
 "_ZN8leapfrog8internal4DpSSINS_21DemographicProjectionEE3pAGE"
 "_ZN8leapfrog8internal4DpSSINS_24HivFullAgeStratificationEE2NSE"
 "_ZN8leapfrog8internal4DpSSINS_24HivFullAgeStratificationEE3pAGE"
 "_ZN8leapfrog8internal4DpSSINS_26HivCoarseAgeStratificationEE2NSE"
 "_ZN8leapfrog8internal4DpSSINS_26HivCoarseAgeStratificationEE3pAGE"
 "_ZN8leapfrog8internal4HaSSINS_10ChildModelEE3hAGE"
 "_ZN8leapfrog8internal4HaSSINS_10ChildModelEE3hDSE"
 "_ZN8leapfrog8internal4HaSSINS_10ChildModelEE3hTSE"
 "_ZN8leapfrog8internal4HaSSINS_24HivFullAgeStratificationEE3hAGE"
 "_ZN8leapfrog8internal4HaSSINS_24HivFullAgeStratificationEE3hDSE"
 "_ZN8leapfrog8internal4HaSSINS_24HivFullAgeStratificationEE3hTSE"
 "_ZN8leapfrog8internal4HaSSINS_26HivCoarseAgeStratificationEE3hAGE"
 "_ZN8leapfrog8internal4HaSSINS_26HivCoarseAgeStratificationEE3hDSE"
 "_ZN8leapfrog8internal4HaSSINS_26HivCoarseAgeStratificationEE3hTSE"
 "_ZN8leapfrog8internal4HcSSINS_10ChildModelEE11hcAG_coarseE"
 "_ZN8leapfrog8internal4HcSSINS_10ChildModelEE4hcTTE"
 "_ZN8leapfrog8internal4HcSSINS_10ChildModelEE5hc1AGE"
 "_ZN8leapfrog8internal4HcSSINS_10ChildModelEE5hc1DSE"
 "_ZN8leapfrog8internal4HcSSINS_10ChildModelEE5hc2AGE"
 "_ZN8leapfrog8internal4HcSSINS_10ChildModelEE5hc2DSE"
 "_ZN8leapfrog8internal4HcSSINS_10ChildModelEE7hPS_aggE"
 "_ZN8leapfrog8internal4HcSSINS_10ChildModelEE8hcAG_endE"
 "_ZN8leapfrog8internal6r_dataIdEEPT_P7SEXPREC"
 "_ZN8leapfrog8internal6r_dataIiEEPT_P7SEXPREC"
 "_ZN8leapfrog8internal8DpConfigIdNS_10ChildModelEE11OutputState10save_stateEyRKNS3_5StateE"
 "_ZN8leapfrog8internal8DpConfigIdNS_10ChildModelEE11OutputStateC1Ei"
 "_ZN8leapfrog8internal8DpConfigIdNS_10ChildModelEE11OutputStateC1ERKS4_"
 "_ZN8leapfrog8internal8DpConfigIdNS_10ChildModelEE11OutputStateD1Ev"
 "_ZN8leapfrog8internal8DpConfigIdNS_10ChildModelEE12Intermediate5resetEv"
 "_ZN8leapfrog8internal8DpConfigIdNS_10ChildModelEE12IntermediateC1Ev"
 "_ZN8leapfrog8internal8DpConfigIdNS_10ChildModelEE21get_build_output_sizeEi"
 "_ZN8leapfrog8internal8DpConfigIdNS_10ChildModelEE5State5resetEv"
 "_ZN8leapfrog8internal8DpConfigIdNS_10ChildModelEE5StateaSEOS4_"
 "_ZN8leapfrog8internal8DpConfigIdNS_10ChildModelEE5StateC1EOS4_"
 "_ZN8leapfrog8internal8DpConfigIdNS_10ChildModelEE5StateC1ERKS4_"
 "_ZN8leapfrog8internal8DpConfigIdNS_21DemographicProjectionEE11OutputState10save_stateEyRKNS3_5StateE"
 "_ZN8leapfrog8internal8DpConfigIdNS_21DemographicProjectionEE11OutputStateC1Ei"
 "_ZN8leapfrog8internal8DpConfigIdNS_21DemographicProjectionEE11OutputStateC1ERKS4_"
 "_ZN8leapfrog8internal8DpConfigIdNS_21DemographicProjectionEE11OutputStateD1Ev"
 "_ZN8leapfrog8internal8DpConfigIdNS_21DemographicProjectionEE12Intermediate5resetEv"
 "_ZN8leapfrog8internal8DpConfigIdNS_21DemographicProjectionEE12IntermediateC1Ev"
 "_ZN8leapfrog8internal8DpConfigIdNS_21DemographicProjectionEE21get_build_output_sizeEi"
 "_ZN8leapfrog8internal8DpConfigIdNS_21DemographicProjectionEE5State5resetEv"
 "_ZN8leapfrog8internal8DpConfigIdNS_21DemographicProjectionEE5StateaSEOS4_"
 "_ZN8leapfrog8internal8DpConfigIdNS_21DemographicProjectionEE5StateC1EOS4_"
 "_ZN8leapfrog8internal8DpConfigIdNS_21DemographicProjectionEE5StateC1ERKS4_"
 "_ZN8leapfrog8internal8DpConfigIdNS_24HivFullAgeStratificationEE11OutputState10save_stateEyRKNS3_5StateE"
 "_ZN8leapfrog8internal8DpConfigIdNS_24HivFullAgeStratificationEE11OutputStateC1Ei"
 "_ZN8leapfrog8internal8DpConfigIdNS_24HivFullAgeStratificationEE11OutputStateC1ERKS4_"
 "_ZN8leapfrog8internal8DpConfigIdNS_24HivFullAgeStratificationEE11OutputStateD1Ev"
 "_ZN8leapfrog8internal8DpConfigIdNS_24HivFullAgeStratificationEE12Intermediate5resetEv"
 "_ZN8leapfrog8internal8DpConfigIdNS_24HivFullAgeStratificationEE12IntermediateC1Ev"
 "_ZN8leapfrog8internal8DpConfigIdNS_24HivFullAgeStratificationEE21get_build_output_sizeEi"
 "_ZN8leapfrog8internal8DpConfigIdNS_24HivFullAgeStratificationEE5State5resetEv"
 "_ZN8leapfrog8internal8DpConfigIdNS_24HivFullAgeStratificationEE5StateaSEOS4_"
 "_ZN8leapfrog8internal8DpConfigIdNS_24HivFullAgeStratificationEE5StateC1EOS4_"
 "_ZN8leapfrog8internal8DpConfigIdNS_24HivFullAgeStratificationEE5StateC1ERKS4_"
 "_ZN8leapfrog8internal8DpConfigIdNS_26HivCoarseAgeStratificationEE11OutputState10save_stateEyRKNS3_5StateE"
 "_ZN8leapfrog8internal8DpConfigIdNS_26HivCoarseAgeStratificationEE11OutputStateC1Ei"
 "_ZN8leapfrog8internal8DpConfigIdNS_26HivCoarseAgeStratificationEE11OutputStateC1ERKS4_"
 "_ZN8leapfrog8internal8DpConfigIdNS_26HivCoarseAgeStratificationEE11OutputStateD1Ev"
 "_ZN8leapfrog8internal8DpConfigIdNS_26HivCoarseAgeStratificationEE12Intermediate5resetEv"
 "_ZN8leapfrog8internal8DpConfigIdNS_26HivCoarseAgeStratificationEE12IntermediateC1Ev"
 "_ZN8leapfrog8internal8DpConfigIdNS_26HivCoarseAgeStratificationEE21get_build_output_sizeEi"
 "_ZN8leapfrog8internal8DpConfigIdNS_26HivCoarseAgeStratificationEE5State5resetEv"
 "_ZN8leapfrog8internal8DpConfigIdNS_26HivCoarseAgeStratificationEE5StateaSEOS4_"
 "_ZN8leapfrog8internal8DpConfigIdNS_26HivCoarseAgeStratificationEE5StateC1EOS4_"
 "_ZN8leapfrog8internal8DpConfigIdNS_26HivCoarseAgeStratificationEE5StateC1ERKS4_"
 "_ZN8leapfrog8internal8HaConfigIdNS_10ChildModelEE11OutputState10save_stateEyRKNS3_5StateE"
 "_ZN8leapfrog8internal8HaConfigIdNS_10ChildModelEE11OutputStateC1Ei"
 "_ZN8leapfrog8internal8HaConfigIdNS_10ChildModelEE11OutputStateC1ERKS4_"
 "_ZN8leapfrog8internal8HaConfigIdNS_10ChildModelEE11OutputStateD1Ev"
 "_ZN8leapfrog8internal8HaConfigIdNS_10ChildModelEE12Intermediate5resetEv"
 "_ZN8leapfrog8internal8HaConfigIdNS_10ChildModelEE12IntermediateC1Ev"
 "_ZN8leapfrog8internal8HaConfigIdNS_10ChildModelEE21get_build_output_sizeEi"
 "_ZN8leapfrog8internal8HaConfigIdNS_10ChildModelEE5State5resetEv"
 "_ZN8leapfrog8internal8HaConfigIdNS_10ChildModelEE5StateaSEOS4_"
 "_ZN8leapfrog8internal8HaConfigIdNS_10ChildModelEE5StateC1EOS4_"
 "_ZN8leapfrog8internal8HaConfigIdNS_10ChildModelEE5StateC1ERKS4_"
 "_ZN8leapfrog8internal8HaConfigIdNS_24HivFullAgeStratificationEE11OutputState10save_stateEyRKNS3_5StateE"
 "_ZN8leapfrog8internal8HaConfigIdNS_24HivFullAgeStratificationEE11OutputStateC1Ei"
 "_ZN8leapfrog8internal8HaConfigIdNS_24HivFullAgeStratificationEE11OutputStateC1ERKS4_"
 "_ZN8leapfrog8internal8HaConfigIdNS_24HivFullAgeStratificationEE11OutputStateD1Ev"
 "_ZN8leapfrog8internal8HaConfigIdNS_24HivFullAgeStratificationEE12Intermediate5resetEv"
 "_ZN8leapfrog8internal8HaConfigIdNS_24HivFullAgeStratificationEE12IntermediateC1Ev"
 "_ZN8leapfrog8internal8HaConfigIdNS_24HivFullAgeStratificationEE21get_build_output_sizeEi"
 "_ZN8leapfrog8internal8HaConfigIdNS_24HivFullAgeStratificationEE5State5resetEv"
 "_ZN8leapfrog8internal8HaConfigIdNS_24HivFullAgeStratificationEE5StateaSEOS4_"
 "_ZN8leapfrog8internal8HaConfigIdNS_24HivFullAgeStratificationEE5StateC1EOS4_"
 "_ZN8leapfrog8internal8HaConfigIdNS_24HivFullAgeStratificationEE5StateC1ERKS4_"
 "_ZN8leapfrog8internal8HaConfigIdNS_26HivCoarseAgeStratificationEE11OutputState10save_stateEyRKNS3_5StateE"
 "_ZN8leapfrog8internal8HaConfigIdNS_26HivCoarseAgeStratificationEE11OutputStateC1Ei"
 "_ZN8leapfrog8internal8HaConfigIdNS_26HivCoarseAgeStratificationEE11OutputStateC1ERKS4_"
 "_ZN8leapfrog8internal8HaConfigIdNS_26HivCoarseAgeStratificationEE11OutputStateD1Ev"
 "_ZN8leapfrog8internal8HaConfigIdNS_26HivCoarseAgeStratificationEE12Intermediate5resetEv"
 "_ZN8leapfrog8internal8HaConfigIdNS_26HivCoarseAgeStratificationEE12IntermediateC1Ev"
 "_ZN8leapfrog8internal8HaConfigIdNS_26HivCoarseAgeStratificationEE21get_build_output_sizeEi"
 "_ZN8leapfrog8internal8HaConfigIdNS_26HivCoarseAgeStratificationEE5State5resetEv"
 "_ZN8leapfrog8internal8HaConfigIdNS_26HivCoarseAgeStratificationEE5StateaSEOS4_"
 "_ZN8leapfrog8internal8HaConfigIdNS_26HivCoarseAgeStratificationEE5StateC1EOS4_"
 "_ZN8leapfrog8internal8HaConfigIdNS_26HivCoarseAgeStratificationEE5StateC1ERKS4_"
 "_ZN8leapfrog8internal8HcConfigIdNS_10ChildModelEE11OutputState10save_stateEyRKNS3_5StateE"
 "_ZN8leapfrog8internal8HcConfigIdNS_10ChildModelEE11OutputStateC1Ei"
 "_ZN8leapfrog8internal8HcConfigIdNS_10ChildModelEE11OutputStateC1ERKS4_"
 "_ZN8leapfrog8internal8HcConfigIdNS_10ChildModelEE11OutputStateD1Ev"
 "_ZN8leapfrog8internal8HcConfigIdNS_10ChildModelEE12Intermediate5resetEv"
 "_ZN8leapfrog8internal8HcConfigIdNS_10ChildModelEE12IntermediateC1Ev"
 "_ZN8leapfrog8internal8HcConfigIdNS_10ChildModelEE21get_build_output_sizeEi"
 "_ZN8leapfrog8internal8HcConfigIdNS_10ChildModelEE5State5resetEv"
 "_ZN8leapfrog8internal8HcConfigIdNS_10ChildModelEE5StateaSEOS4_"
 "_ZN8leapfrog8internal8HcConfigIdNS_10ChildModelEE5StateC1EOS4_"
 "_ZN8leapfrog8internal8HcConfigIdNS_10ChildModelEE5StateC1ERKS4_"
 "_ZN8leapfrog8internal9DpAdapterILNS_8LanguageE1EdNS_10ChildModelEE12build_outputEiRKNS0_8DpConfigIdS3_E11OutputStateERN4Rcpp6VectorILi19ENSA_15PreserveStorageEEERNSB_ILi16ESC_EERKy"
 "_ZN8leapfrog8internal9DpAdapterILNS_8LanguageE1EdNS_10ChildModelEE17get_initial_stateERKN4Rcpp6VectorILi19ENS5_15PreserveStorageEEE"
 "_ZN8leapfrog8internal9DpAdapterILNS_8LanguageE1EdNS_10ChildModelEE24build_output_single_yearEiRKNS0_8DpConfigIdS3_E5StateERN4Rcpp6VectorILi19ENSA_15PreserveStorageEEERNSB_ILi16ESC_EE"
 "_ZN8leapfrog8internal9DpAdapterILNS_8LanguageE1EdNS_10ChildModelEE8get_parsERKN4Rcpp6VectorILi19ENS5_15PreserveStorageEEERKNS_7OptionsIdEE"
 "_ZN8leapfrog8internal9DpAdapterILNS_8LanguageE1EdNS_21DemographicProjectionEE12build_outputEiRKNS0_8DpConfigIdS3_E11OutputStateERN4Rcpp6VectorILi19ENSA_15PreserveStorageEEERNSB_ILi16ESC_EERKy"
 "_ZN8leapfrog8internal9DpAdapterILNS_8LanguageE1EdNS_21DemographicProjectionEE17get_initial_stateERKN4Rcpp6VectorILi19ENS5_15PreserveStorageEEE"
 "_ZN8leapfrog8internal9DpAdapterILNS_8LanguageE1EdNS_21DemographicProjectionEE24build_output_single_yearEiRKNS0_8DpConfigIdS3_E5StateERN4Rcpp6VectorILi19ENSA_15PreserveStorageEEERNSB_ILi16ESC_EE"
 "_ZN8leapfrog8internal9DpAdapterILNS_8LanguageE1EdNS_21DemographicProjectionEE8get_parsERKN4Rcpp6VectorILi19ENS5_15PreserveStorageEEERKNS_7OptionsIdEE"
 "_ZN8leapfrog8internal9DpAdapterILNS_8LanguageE1EdNS_24HivFullAgeStratificationEE12build_outputEiRKNS0_8DpConfigIdS3_E11OutputStateERN4Rcpp6VectorILi19ENSA_15PreserveStorageEEERNSB_ILi16ESC_EERKy"
 "_ZN8leapfrog8internal9DpAdapterILNS_8LanguageE1EdNS_24HivFullAgeStratificationEE17get_initial_stateERKN4Rcpp6VectorILi19ENS5_15PreserveStorageEEE"
 "_ZN8leapfrog8internal9DpAdapterILNS_8LanguageE1EdNS_24HivFullAgeStratificationEE24build_output_single_yearEiRKNS0_8DpConfigIdS3_E5StateERN4Rcpp6VectorILi19ENSA_15PreserveStorageEEERNSB_ILi16ESC_EE"
 "_ZN8leapfrog8internal9DpAdapterILNS_8LanguageE1EdNS_24HivFullAgeStratificationEE8get_parsERKN4Rcpp6VectorILi19ENS5_15PreserveStorageEEERKNS_7OptionsIdEE"
 "_ZN8leapfrog8internal9DpAdapterILNS_8LanguageE1EdNS_26HivCoarseAgeStratificationEE12build_outputEiRKNS0_8DpConfigIdS3_E11OutputStateERN4Rcpp6VectorILi19ENSA_15PreserveStorageEEERNSB_ILi16ESC_EERKy"
 "_ZN8leapfrog8internal9DpAdapterILNS_8LanguageE1EdNS_26HivCoarseAgeStratificationEE17get_initial_stateERKN4Rcpp6VectorILi19ENS5_15PreserveStorageEEE"
 "_ZN8leapfrog8internal9DpAdapterILNS_8LanguageE1EdNS_26HivCoarseAgeStratificationEE24build_output_single_yearEiRKNS0_8DpConfigIdS3_E5StateERN4Rcpp6VectorILi19ENSA_15PreserveStorageEEERNSB_ILi16ESC_EE"
 "_ZN8leapfrog8internal9DpAdapterILNS_8LanguageE1EdNS_26HivCoarseAgeStratificationEE8get_parsERKN4Rcpp6VectorILi19ENS5_15PreserveStorageEEERKNS_7OptionsIdEE"
 "_ZN8leapfrog8internal9HaAdapterILNS_8LanguageE1EdNS_10ChildModelEE12build_outputEiRKNS0_8HaConfigIdS3_E11OutputStateERN4Rcpp6VectorILi19ENSA_15PreserveStorageEEERNSB_ILi16ESC_EERKy"
 "_ZN8leapfrog8internal9HaAdapterILNS_8LanguageE1EdNS_10ChildModelEE17get_initial_stateERKN4Rcpp6VectorILi19ENS5_15PreserveStorageEEE"
 "_ZN8leapfrog8internal9HaAdapterILNS_8LanguageE1EdNS_10ChildModelEE24build_output_single_yearEiRKNS0_8HaConfigIdS3_E5StateERN4Rcpp6VectorILi19ENSA_15PreserveStorageEEERNSB_ILi16ESC_EE"
 "_ZN8leapfrog8internal9HaAdapterILNS_8LanguageE1EdNS_10ChildModelEE8get_parsERKN4Rcpp6VectorILi19ENS5_15PreserveStorageEEERKNS_7OptionsIdEE"
 "_ZN8leapfrog8internal9HaAdapterILNS_8LanguageE1EdNS_24HivFullAgeStratificationEE12build_outputEiRKNS0_8HaConfigIdS3_E11OutputStateERN4Rcpp6VectorILi19ENSA_15PreserveStorageEEERNSB_ILi16ESC_EERKy"
 "_ZN8leapfrog8internal9HaAdapterILNS_8LanguageE1EdNS_24HivFullAgeStratificationEE17get_initial_stateERKN4Rcpp6VectorILi19ENS5_15PreserveStorageEEE"
 "_ZN8leapfrog8internal9HaAdapterILNS_8LanguageE1EdNS_24HivFullAgeStratificationEE24build_output_single_yearEiRKNS0_8HaConfigIdS3_E5StateERN4Rcpp6VectorILi19ENSA_15PreserveStorageEEERNSB_ILi16ESC_EE"
 "_ZN8leapfrog8internal9HaAdapterILNS_8LanguageE1EdNS_24HivFullAgeStratificationEE8get_parsERKN4Rcpp6VectorILi19ENS5_15PreserveStorageEEERKNS_7OptionsIdEE"
 "_ZN8leapfrog8internal9HaAdapterILNS_8LanguageE1EdNS_26HivCoarseAgeStratificationEE12build_outputEiRKNS0_8HaConfigIdS3_E11OutputStateERN4Rcpp6VectorILi19ENSA_15PreserveStorageEEERNSB_ILi16ESC_EERKy"
 "_ZN8leapfrog8internal9HaAdapterILNS_8LanguageE1EdNS_26HivCoarseAgeStratificationEE17get_initial_stateERKN4Rcpp6VectorILi19ENS5_15PreserveStorageEEE"
 "_ZN8leapfrog8internal9HaAdapterILNS_8LanguageE1EdNS_26HivCoarseAgeStratificationEE24build_output_single_yearEiRKNS0_8HaConfigIdS3_E5StateERN4Rcpp6VectorILi19ENSA_15PreserveStorageEEERNSB_ILi16ESC_EE"
 "_ZN8leapfrog8internal9HaAdapterILNS_8LanguageE1EdNS_26HivCoarseAgeStratificationEE8get_parsERKN4Rcpp6VectorILi19ENS5_15PreserveStorageEEERKNS_7OptionsIdEE"
 "_ZN8leapfrog8internal9HcAdapterILNS_8LanguageE1EdNS_10ChildModelEE12build_outputEiRKNS0_8HcConfigIdS3_E11OutputStateERN4Rcpp6VectorILi19ENSA_15PreserveStorageEEERNSB_ILi16ESC_EERKy"
 "_ZN8leapfrog8internal9HcAdapterILNS_8LanguageE1EdNS_10ChildModelEE17get_initial_stateERKN4Rcpp6VectorILi19ENS5_15PreserveStorageEEE"
 "_ZN8leapfrog8internal9HcAdapterILNS_8LanguageE1EdNS_10ChildModelEE24build_output_single_yearEiRKNS0_8HcConfigIdS3_E5StateERN4Rcpp6VectorILi19ENSA_15PreserveStorageEEERNSB_ILi16ESC_EE"
 "_ZN8leapfrog8internal9HcAdapterILNS_8LanguageE1EdNS_10ChildModelEE8get_parsERKN4Rcpp6VectorILi19ENS5_15PreserveStorageEEERKNS_7OptionsIdEE"
 "_ZN8leapfrog8LeapfrogILNS_8LanguageE1EdNS_10ChildModelEE10save_stateEiRNS_8internal11ConfigMixerILS1_1EJdS2_NS4_4PairILb1ENS4_8DpConfigIdS2_EEEENS6_ILb1ENS4_8HaConfigIdS2_EEEENS6_ILb1ENS4_8HcConfigIdS2_EEEEEE5StateERNSG_11OutputStateERKSt6vectorIiSaIiEE"
 "_ZN8leapfrog8LeapfrogILNS_8LanguageE1EdNS_10ChildModelEE12project_yearERNS_8internal11ConfigMixerILS1_1EJdS2_NS4_4PairILb1ENS4_8DpConfigIdS2_EEEENS6_ILb1ENS4_8HaConfigIdS2_EEEENS6_ILb1ENS4_8HcConfigIdS2_EEEEEE4ArgsE"
 "_ZN8leapfrog8LeapfrogILNS_8LanguageE1EdNS_10ChildModelEE20run_model_from_stateERKNS_8internal11ConfigMixerILS1_1EJdS2_NS4_4PairILb1ENS4_8DpConfigIdS2_EEEENS6_ILb1ENS4_8HaConfigIdS2_EEEENS6_ILb1ENS4_8HcConfigIdS2_EEEEEE4ParsERKNS_7OptionsIdEERKNSG_5StateEiSt6vectorIiSaIiEE"
 "_ZN8leapfrog8LeapfrogILNS_8LanguageE1EdNS_10ChildModelEE21run_model_single_yearERKNS_8internal11ConfigMixerILS1_1EJdS2_NS4_4PairILb1ENS4_8DpConfigIdS2_EEEENS6_ILb1ENS4_8HaConfigIdS2_EEEENS6_ILb1ENS4_8HcConfigIdS2_EEEEEE4ParsERKNS_7OptionsIdEERKNSG_5StateEi"
 "_ZN8leapfrog8LeapfrogILNS_8LanguageE1EdNS_10ChildModelEE9run_modelERKNS_8internal11ConfigMixerILS1_1EJdS2_NS4_4PairILb1ENS4_8DpConfigIdS2_EEEENS6_ILb1ENS4_8HaConfigIdS2_EEEENS6_ILb1ENS4_8HcConfigIdS2_EEEEEE4ParsERKNS_7OptionsIdEESt6vectorIiSaIiEE"
 "_ZN8leapfrog8LeapfrogILNS_8LanguageE1EdNS_21DemographicProjectionEE10save_stateEiRNS_8internal11ConfigMixerILS1_1EJdS2_NS4_4PairILb1ENS4_8DpConfigIdS2_EEEENS6_ILb0ENS4_8HaConfigIdS2_EEEENS6_ILb0ENS4_8HcConfigIdS2_EEEEEE5StateERNSG_11OutputStateERKSt6vectorIiSaIiEE"
 "_ZN8leapfrog8LeapfrogILNS_8LanguageE1EdNS_21DemographicProjectionEE12project_yearERNS_8internal11ConfigMixerILS1_1EJdS2_NS4_4PairILb1ENS4_8DpConfigIdS2_EEEENS6_ILb0ENS4_8HaConfigIdS2_EEEENS6_ILb0ENS4_8HcConfigIdS2_EEEEEE4ArgsE"
 "_ZN8leapfrog8LeapfrogILNS_8LanguageE1EdNS_21DemographicProjectionEE20run_model_from_stateERKNS_8internal11ConfigMixerILS1_1EJdS2_NS4_4PairILb1ENS4_8DpConfigIdS2_EEEENS6_ILb0ENS4_8HaConfigIdS2_EEEENS6_ILb0ENS4_8HcConfigIdS2_EEEEEE4ParsERKNS_7OptionsIdEERKNSG_5StateEiSt6vectorIiSaIiEE"
 "_ZN8leapfrog8LeapfrogILNS_8LanguageE1EdNS_21DemographicProjectionEE21run_model_single_yearERKNS_8internal11ConfigMixerILS1_1EJdS2_NS4_4PairILb1ENS4_8DpConfigIdS2_EEEENS6_ILb0ENS4_8HaConfigIdS2_EEEENS6_ILb0ENS4_8HcConfigIdS2_EEEEEE4ParsERKNS_7OptionsIdEERKNSG_5StateEi"
 "_ZN8leapfrog8LeapfrogILNS_8LanguageE1EdNS_21DemographicProjectionEE9run_modelERKNS_8internal11ConfigMixerILS1_1EJdS2_NS4_4PairILb1ENS4_8DpConfigIdS2_EEEENS6_ILb0ENS4_8HaConfigIdS2_EEEENS6_ILb0ENS4_8HcConfigIdS2_EEEEEE4ParsERKNS_7OptionsIdEESt6vectorIiSaIiEE"
 "_ZN8leapfrog8LeapfrogILNS_8LanguageE1EdNS_24HivFullAgeStratificationEE10save_stateEiRNS_8internal11ConfigMixerILS1_1EJdS2_NS4_4PairILb1ENS4_8DpConfigIdS2_EEEENS6_ILb1ENS4_8HaConfigIdS2_EEEENS6_ILb0ENS4_8HcConfigIdS2_EEEEEE5StateERNSG_11OutputStateERKSt6vectorIiSaIiEE"
 "_ZN8leapfrog8LeapfrogILNS_8LanguageE1EdNS_24HivFullAgeStratificationEE12project_yearERNS_8internal11ConfigMixerILS1_1EJdS2_NS4_4PairILb1ENS4_8DpConfigIdS2_EEEENS6_ILb1ENS4_8HaConfigIdS2_EEEENS6_ILb0ENS4_8HcConfigIdS2_EEEEEE4ArgsE"
 "_ZN8leapfrog8LeapfrogILNS_8LanguageE1EdNS_24HivFullAgeStratificationEE20run_model_from_stateERKNS_8internal11ConfigMixerILS1_1EJdS2_NS4_4PairILb1ENS4_8DpConfigIdS2_EEEENS6_ILb1ENS4_8HaConfigIdS2_EEEENS6_ILb0ENS4_8HcConfigIdS2_EEEEEE4ParsERKNS_7OptionsIdEERKNSG_5StateEiSt6vectorIiSaIiEE"
 "_ZN8leapfrog8LeapfrogILNS_8LanguageE1EdNS_24HivFullAgeStratificationEE21run_model_single_yearERKNS_8internal11ConfigMixerILS1_1EJdS2_NS4_4PairILb1ENS4_8DpConfigIdS2_EEEENS6_ILb1ENS4_8HaConfigIdS2_EEEENS6_ILb0ENS4_8HcConfigIdS2_EEEEEE4ParsERKNS_7OptionsIdEERKNSG_5StateEi"
 "_ZN8leapfrog8LeapfrogILNS_8LanguageE1EdNS_24HivFullAgeStratificationEE9run_modelERKNS_8internal11ConfigMixerILS1_1EJdS2_NS4_4PairILb1ENS4_8DpConfigIdS2_EEEENS6_ILb1ENS4_8HaConfigIdS2_EEEENS6_ILb0ENS4_8HcConfigIdS2_EEEEEE4ParsERKNS_7OptionsIdEESt6vectorIiSaIiEE"
 "_ZN8leapfrog8LeapfrogILNS_8LanguageE1EdNS_26HivCoarseAgeStratificationEE10save_stateEiRNS_8internal11ConfigMixerILS1_1EJdS2_NS4_4PairILb1ENS4_8DpConfigIdS2_EEEENS6_ILb1ENS4_8HaConfigIdS2_EEEENS6_ILb0ENS4_8HcConfigIdS2_EEEEEE5StateERNSG_11OutputStateERKSt6vectorIiSaIiEE"
 "_ZN8leapfrog8LeapfrogILNS_8LanguageE1EdNS_26HivCoarseAgeStratificationEE12project_yearERNS_8internal11ConfigMixerILS1_1EJdS2_NS4_4PairILb1ENS4_8DpConfigIdS2_EEEENS6_ILb1ENS4_8HaConfigIdS2_EEEENS6_ILb0ENS4_8HcConfigIdS2_EEEEEE4ArgsE"
 "_ZN8leapfrog8LeapfrogILNS_8LanguageE1EdNS_26HivCoarseAgeStratificationEE20run_model_from_stateERKNS_8internal11ConfigMixerILS1_1EJdS2_NS4_4PairILb1ENS4_8DpConfigIdS2_EEEENS6_ILb1ENS4_8HaConfigIdS2_EEEENS6_ILb0ENS4_8HcConfigIdS2_EEEEEE4ParsERKNS_7OptionsIdEERKNSG_5StateEiSt6vectorIiSaIiEE"
 "_ZN8leapfrog8LeapfrogILNS_8LanguageE1EdNS_26HivCoarseAgeStratificationEE21run_model_single_yearERKNS_8internal11ConfigMixerILS1_1EJdS2_NS4_4PairILb1ENS4_8DpConfigIdS2_EEEENS6_ILb1ENS4_8HaConfigIdS2_EEEENS6_ILb0ENS4_8HcConfigIdS2_EEEEEE4ParsERKNS_7OptionsIdEERKNSG_5StateEi"
 "_ZN8leapfrog8LeapfrogILNS_8LanguageE1EdNS_26HivCoarseAgeStratificationEE9run_modelERKNS_8internal11ConfigMixerILS1_1EJdS2_NS4_4PairILb1ENS4_8DpConfigIdS2_EEEENS6_ILb1ENS4_8HaConfigIdS2_EEEENS6_ILb0ENS4_8HcConfigIdS2_EEEEEE4ParsERKNS_7OptionsIdEESt6vectorIiSaIiEE"
 "_ZN9__gnu_cxx11char_traitsIcE2eqERKcS3_"
 "_ZN9__gnu_cxx11char_traitsIcE4copyEPcPKcy"
 "_ZN9__gnu_cxx11char_traitsIcE4moveEPcPKcy"
 "_ZN9__gnu_cxx11char_traitsIcE6assignEPcyc"
 "_ZN9__gnu_cxx11char_traitsIcE6lengthEPKc"
 "_ZN9__gnu_cxx14__alloc_traitsISaIcEcE17_S_select_on_copyERKS1_"
 "_ZN9__gnu_cxx14__alloc_traitsISaIiEiE17_S_select_on_copyERKS1_"
 "_ZN9__gnu_cxx17__normal_iteratorIPKiSt6vectorIiSaIiEEEC1ERKS2_"
 "_ZN9__gnu_cxx17__normal_iteratorIPKiSt6vectorIiSaIiEEEppEv"
 "_ZN9__gnu_cxx5__ops16__iter_less_iterEv"
 "_ZN9__gnu_cxxeqIPKiSt6vectorIiSaIiEEEEbRKNS_17__normal_iteratorIT_T0_EESB_"
 "_ZNK10tinyformat6detail9FormatArg5toIntEv"
 "_ZNK10tinyformat6detail9FormatArg6formatERSoPKcS4_i"
 "_ZNK4Rcpp14not_compatible4whatEv"
 "_ZNK4Rcpp15PreserveStorageINS_6VectorILi13ES0_EEE5get__Ev"
 "_ZNK4Rcpp15PreserveStorageINS_6VectorILi13ES0_EEEcvP7SEXPRECEv"
 "_ZNK4Rcpp15PreserveStorageINS_6VectorILi14ES0_EEE5get__Ev"
 "_ZNK4Rcpp15PreserveStorageINS_6VectorILi14ES0_EEEcvP7SEXPRECEv"
 "_ZNK4Rcpp15PreserveStorageINS_6VectorILi16ES0_EEE5get__Ev"
 "_ZNK4Rcpp15PreserveStorageINS_6VectorILi16ES0_EEEcvP7SEXPRECEv"
 "_ZNK4Rcpp15PreserveStorageINS_6VectorILi19ES0_EEE5get__Ev"
 "_ZNK4Rcpp15PreserveStorageINS_6VectorILi19ES0_EEEcvP7SEXPRECEv"
 "_ZNK4Rcpp19index_out_of_bounds4whatEv"
 "_ZNK4Rcpp6ShieldIP7SEXPRECEcvS2_Ev"
 "_ZNK4Rcpp6traits14r_vector_cacheILi13ENS_15PreserveStorageEE3getEv"
 "_ZNK4Rcpp6VectorILi19ENS_15PreserveStorageEE4sizeEv"
 "_ZNK4Rcpp6VectorILi19ENS_15PreserveStorageEE6offsetERKNSt7__cxx1112basic_stringIcSt11char_traitsIcESaIcEEE"
 "_ZNK4Rcpp6VectorILi19ENS_15PreserveStorageEEixERKNSt7__cxx1112basic_stringIcSt11char_traitsIcESaIcEEE"
 "_ZNK4Rcpp8internal13generic_proxyILi19ENS_15PreserveStorageEE3getEv"
 "_ZNK4Rcpp8internal13generic_proxyILi19ENS_15PreserveStorageEEcvP7SEXPRECEv"
 "_ZNK4Rcpp8internal18generic_name_proxyILi19ENS_15PreserveStorageEE3getEv"
 "_ZNK4Rcpp8internal18generic_name_proxyILi19ENS_15PreserveStorageEEcvP7SEXPRECEv"
 "_ZNK4Rcpp9exception4whatEv"
 "_ZNK5Eigen10TensorBaseINS_15TensorFixedSizeIdNS_5SizesIJLx2EEEELi0ExEELi0EE11nullaryExprINS_8internal18scalar_constant_opIdEEEEKNS_20TensorCwiseNullaryOpIT_KS4_EERKSB_"
 "_ZNK5Eigen10TensorBaseINS_15TensorFixedSizeIdNS_5SizesIJLx2EEEELi0ExEELi0EE7derivedEv"
 "_ZNK5Eigen10TensorBaseINS_15TensorFixedSizeIdNS_5SizesIJLx2EEEELi0ExEELi0EE8constantERKd"
 "_ZNK5Eigen10TensorBaseINS_15TensorFixedSizeIdNS_5SizesIJLx3EEEELi0ExEELi0EE11nullaryExprINS_8internal18scalar_constant_opIdEEEEKNS_20TensorCwiseNullaryOpIT_KS4_EERKSB_"
 "_ZNK5Eigen10TensorBaseINS_15TensorFixedSizeIdNS_5SizesIJLx3EEEELi0ExEELi0EE7derivedEv"
 "_ZNK5Eigen10TensorBaseINS_15TensorFixedSizeIdNS_5SizesIJLx3EEEELi0ExEELi0EE8constantERKd"
 "_ZNK5Eigen10TensorBaseINS_15TensorFixedSizeIdNS_5SizesIJLx3ELx6ELx10ELx2EEEELi0ExEELi0EE11nullaryExprINS_8internal18scalar_constant_opIdEEEEKNS_20TensorCwiseNullaryOpIT_KS4_EERKSB_"
 "_ZNK5Eigen10TensorBaseINS_15TensorFixedSizeIdNS_5SizesIJLx3ELx6ELx10ELx2EEEELi0ExEELi0EE7derivedEv"
 "_ZNK5Eigen10TensorBaseINS_15TensorFixedSizeIdNS_5SizesIJLx3ELx6ELx10ELx2EEEELi0ExEELi0EE8constantERKd"
 "_ZNK5Eigen10TensorBaseINS_15TensorFixedSizeIdNS_5SizesIJLx3ELx7ELx2EEEELi0ExEELi0EE11nullaryExprINS_8internal18scalar_constant_opIdEEEEKNS_20TensorCwiseNullaryOpIT_KS4_EERKSB_"
 "_ZNK5Eigen10TensorBaseINS_15TensorFixedSizeIdNS_5SizesIJLx3ELx7ELx2EEEELi0ExEELi0EE7derivedEv"
 "_ZNK5Eigen10TensorBaseINS_15TensorFixedSizeIdNS_5SizesIJLx3ELx7ELx2EEEELi0ExEELi0EE8constantERKd"
 "_ZNK5Eigen10TensorBaseINS_15TensorFixedSizeIdNS_5SizesIJLx3ELx7ELx5ELx2EEEELi0ExEELi0EE11nullaryExprINS_8internal18scalar_constant_opIdEEEEKNS_20TensorCwiseNullaryOpIT_KS4_EERKSB_"
 "_ZNK5Eigen10TensorBaseINS_15TensorFixedSizeIdNS_5SizesIJLx3ELx7ELx5ELx2EEEELi0ExEELi0EE7derivedEv"
 "_ZNK5Eigen10TensorBaseINS_15TensorFixedSizeIdNS_5SizesIJLx3ELx7ELx5ELx2EEEELi0ExEELi0EE8constantERKd"
 "_ZNK5Eigen10TensorBaseINS_15TensorFixedSizeIdNS_5SizesIJLx3ELx7ELx66ELx2EEEELi0ExEELi0EE11nullaryExprINS_8internal18scalar_constant_opIdEEEEKNS_20TensorCwiseNullaryOpIT_KS4_EERKSB_"
 "_ZNK5Eigen10TensorBaseINS_15TensorFixedSizeIdNS_5SizesIJLx3ELx7ELx66ELx2EEEELi0ExEELi0EE7derivedEv"
 "_ZNK5Eigen10TensorBaseINS_15TensorFixedSizeIdNS_5SizesIJLx3ELx7ELx66ELx2EEEELi0ExEELi0EE8constantERKd"
 "_ZNK5Eigen10TensorBaseINS_15TensorFixedSizeIdNS_5SizesIJLx3ELx7ELx9ELx2EEEELi0ExEELi0EE11nullaryExprINS_8internal18scalar_constant_opIdEEEEKNS_20TensorCwiseNullaryOpIT_KS4_EERKSB_"
 "_ZNK5Eigen10TensorBaseINS_15TensorFixedSizeIdNS_5SizesIJLx3ELx7ELx9ELx2EEEELi0ExEELi0EE7derivedEv"
 "_ZNK5Eigen10TensorBaseINS_15TensorFixedSizeIdNS_5SizesIJLx3ELx7ELx9ELx2EEEELi0ExEELi0EE8constantERKd"
 "_ZNK5Eigen10TensorBaseINS_15TensorFixedSizeIdNS_5SizesIJLx4EEEELi0ExEELi0EE11nullaryExprINS_8internal18scalar_constant_opIdEEEEKNS_20TensorCwiseNullaryOpIT_KS4_EERKSB_"
 "_ZNK5Eigen10TensorBaseINS_15TensorFixedSizeIdNS_5SizesIJLx4EEEELi0ExEELi0EE7derivedEv"
 "_ZNK5Eigen10TensorBaseINS_15TensorFixedSizeIdNS_5SizesIJLx4EEEELi0ExEELi0EE8constantERKd"
 "_ZNK5Eigen10TensorBaseINS_15TensorFixedSizeIdNS_5SizesIJLx4ELx5ELx2EEEELi0ExEELi0EE11nullaryExprINS_8internal18scalar_constant_opIdEEEEKNS_20TensorCwiseNullaryOpIT_KS4_EERKSB_"
 "_ZNK5Eigen10TensorBaseINS_15TensorFixedSizeIdNS_5SizesIJLx4ELx5ELx2EEEELi0ExEELi0EE7derivedEv"
 "_ZNK5Eigen10TensorBaseINS_15TensorFixedSizeIdNS_5SizesIJLx4ELx5ELx2EEEELi0ExEELi0EE8constantERKd"
 "_ZNK5Eigen10TensorBaseINS_15TensorFixedSizeIdNS_5SizesIJLx66EEEELi0ExEELi0EE11nullaryExprINS_8internal18scalar_constant_opIdEEEEKNS_20TensorCwiseNullaryOpIT_KS4_EERKSB_"
 "_ZNK5Eigen10TensorBaseINS_15TensorFixedSizeIdNS_5SizesIJLx66EEEELi0ExEELi0EE7derivedEv"
 "_ZNK5Eigen10TensorBaseINS_15TensorFixedSizeIdNS_5SizesIJLx66EEEELi0ExEELi0EE8constantERKd"
 "_ZNK5Eigen10TensorBaseINS_15TensorFixedSizeIdNS_5SizesIJLx66ELx2EEEELi0ExEELi0EE11nullaryExprINS_8internal18scalar_constant_opIdEEEEKNS_20TensorCwiseNullaryOpIT_KS4_EERKSB_"
 "_ZNK5Eigen10TensorBaseINS_15TensorFixedSizeIdNS_5SizesIJLx66ELx2EEEELi0ExEELi0EE7derivedEv"
 "_ZNK5Eigen10TensorBaseINS_15TensorFixedSizeIdNS_5SizesIJLx66ELx2EEEELi0ExEELi0EE8constantERKd"
 "_ZNK5Eigen10TensorBaseINS_15TensorFixedSizeIdNS_5SizesIJLx6ELx4ELx10ELx2EEEELi0ExEELi0EE11nullaryExprINS_8internal18scalar_constant_opIdEEEEKNS_20TensorCwiseNullaryOpIT_KS4_EERKSB_"
 "_ZNK5Eigen10TensorBaseINS_15TensorFixedSizeIdNS_5SizesIJLx6ELx4ELx10ELx2EEEELi0ExEELi0EE7derivedEv"
 "_ZNK5Eigen10TensorBaseINS_15TensorFixedSizeIdNS_5SizesIJLx6ELx4ELx10ELx2EEEELi0ExEELi0EE8constantERKd"
 "_ZNK5Eigen10TensorBaseINS_15TensorFixedSizeIdNS_5SizesIJLx6ELx4ELx5ELx2EEEELi0ExEELi0EE11nullaryExprINS_8internal18scalar_constant_opIdEEEEKNS_20TensorCwiseNullaryOpIT_KS4_EERKSB_"
 "_ZNK5Eigen10TensorBaseINS_15TensorFixedSizeIdNS_5SizesIJLx6ELx4ELx5ELx2EEEELi0ExEELi0EE7derivedEv"
 "_ZNK5Eigen10TensorBaseINS_15TensorFixedSizeIdNS_5SizesIJLx6ELx4ELx5ELx2EEEELi0ExEELi0EE8constantERKd"
 "_ZNK5Eigen10TensorBaseINS_15TensorFixedSizeIdNS_5SizesIJLx7EEEELi0ExEELi0EE11nullaryExprINS_8internal18scalar_constant_opIdEEEEKNS_20TensorCwiseNullaryOpIT_KS4_EERKSB_"
 "_ZNK5Eigen10TensorBaseINS_15TensorFixedSizeIdNS_5SizesIJLx7EEEELi0ExEELi0EE7derivedEv"
 "_ZNK5Eigen10TensorBaseINS_15TensorFixedSizeIdNS_5SizesIJLx7EEEELi0ExEELi0EE8constantERKd"
 "_ZNK5Eigen10TensorBaseINS_15TensorFixedSizeIdNS_5SizesIJLx7ELx15ELx2EEEELi0ExEELi0EE11nullaryExprINS_8internal18scalar_constant_opIdEEEEKNS_20TensorCwiseNullaryOpIT_KS4_EERKSB_"
 "_ZNK5Eigen10TensorBaseINS_15TensorFixedSizeIdNS_5SizesIJLx7ELx15ELx2EEEELi0ExEELi0EE7derivedEv"
 "_ZNK5Eigen10TensorBaseINS_15TensorFixedSizeIdNS_5SizesIJLx7ELx15ELx2EEEELi0ExEELi0EE8constantERKd"
 "_ZNK5Eigen10TensorBaseINS_15TensorFixedSizeIdNS_5SizesIJLx7ELx2EEEELi0ExEELi0EE11nullaryExprINS_8internal18scalar_constant_opIdEEEEKNS_20TensorCwiseNullaryOpIT_KS4_EERKSB_"
 "_ZNK5Eigen10TensorBaseINS_15TensorFixedSizeIdNS_5SizesIJLx7ELx2EEEELi0ExEELi0EE7derivedEv"
 "_ZNK5Eigen10TensorBaseINS_15TensorFixedSizeIdNS_5SizesIJLx7ELx2EEEELi0ExEELi0EE8constantERKd"
 "_ZNK5Eigen10TensorBaseINS_15TensorFixedSizeIdNS_5SizesIJLx7ELx4ELx15ELx2EEEELi0ExEELi0EE11nullaryExprINS_8internal18scalar_constant_opIdEEEEKNS_20TensorCwiseNullaryOpIT_KS4_EERKSB_"
 "_ZNK5Eigen10TensorBaseINS_15TensorFixedSizeIdNS_5SizesIJLx7ELx4ELx15ELx2EEEELi0ExEELi0EE7derivedEv"
 "_ZNK5Eigen10TensorBaseINS_15TensorFixedSizeIdNS_5SizesIJLx7ELx4ELx15ELx2EEEELi0ExEELi0EE8constantERKd"
 "_ZNK5Eigen10TensorBaseINS_15TensorFixedSizeIdNS_5SizesIJLx7ELx4ELx5ELx2EEEELi0ExEELi0EE11nullaryExprINS_8internal18scalar_constant_opIdEEEEKNS_20TensorCwiseNullaryOpIT_KS4_EERKSB_"
 "_ZNK5Eigen10TensorBaseINS_15TensorFixedSizeIdNS_5SizesIJLx7ELx4ELx5ELx2EEEELi0ExEELi0EE7derivedEv"
 "_ZNK5Eigen10TensorBaseINS_15TensorFixedSizeIdNS_5SizesIJLx7ELx4ELx5ELx2EEEELi0ExEELi0EE8constantERKd"
 "_ZNK5Eigen10TensorBaseINS_15TensorFixedSizeIdNS_5SizesIJLx7ELx4ELx66ELx2EEEELi0ExEELi0EE11nullaryExprINS_8internal18scalar_constant_opIdEEEEKNS_20TensorCwiseNullaryOpIT_KS4_EERKSB_"
 "_ZNK5Eigen10TensorBaseINS_15TensorFixedSizeIdNS_5SizesIJLx7ELx4ELx66ELx2EEEELi0ExEELi0EE7derivedEv"
 "_ZNK5Eigen10TensorBaseINS_15TensorFixedSizeIdNS_5SizesIJLx7ELx4ELx66ELx2EEEELi0ExEELi0EE8constantERKd"
 "_ZNK5Eigen10TensorBaseINS_15TensorFixedSizeIdNS_5SizesIJLx7ELx66EEEELi0ExEELi0EE11nullaryExprINS_8internal18scalar_constant_opIdEEEEKNS_20TensorCwiseNullaryOpIT_KS4_EERKSB_"
 "_ZNK5Eigen10TensorBaseINS_15TensorFixedSizeIdNS_5SizesIJLx7ELx66EEEELi0ExEELi0EE7derivedEv"
 "_ZNK5Eigen10TensorBaseINS_15TensorFixedSizeIdNS_5SizesIJLx7ELx66EEEELi0ExEELi0EE8constantERKd"
 "_ZNK5Eigen10TensorBaseINS_15TensorFixedSizeIdNS_5SizesIJLx7ELx66ELx2EEEELi0ExEELi0EE11nullaryExprINS_8internal18scalar_constant_opIdEEEEKNS_20TensorCwiseNullaryOpIT_KS4_EERKSB_"
 "_ZNK5Eigen10TensorBaseINS_15TensorFixedSizeIdNS_5SizesIJLx7ELx66ELx2EEEELi0ExEELi0EE7derivedEv"
 "_ZNK5Eigen10TensorBaseINS_15TensorFixedSizeIdNS_5SizesIJLx7ELx66ELx2EEEELi0ExEELi0EE8constantERKd"
 "_ZNK5Eigen10TensorBaseINS_15TensorFixedSizeIdNS_5SizesIJLx7ELx9EEEELi0ExEELi0EE11nullaryExprINS_8internal18scalar_constant_opIdEEEEKNS_20TensorCwiseNullaryOpIT_KS4_EERKSB_"
 "_ZNK5Eigen10TensorBaseINS_15TensorFixedSizeIdNS_5SizesIJLx7ELx9EEEELi0ExEELi0EE7derivedEv"
 "_ZNK5Eigen10TensorBaseINS_15TensorFixedSizeIdNS_5SizesIJLx7ELx9EEEELi0ExEELi0EE8constantERKd"
 "_ZNK5Eigen10TensorBaseINS_15TensorFixedSizeIdNS_5SizesIJLx7ELx9ELx2EEEELi0ExEELi0EE11nullaryExprINS_8internal18scalar_constant_opIdEEEEKNS_20TensorCwiseNullaryOpIT_KS4_EERKSB_"
 "_ZNK5Eigen10TensorBaseINS_15TensorFixedSizeIdNS_5SizesIJLx7ELx9ELx2EEEELi0ExEELi0EE7derivedEv"
 "_ZNK5Eigen10TensorBaseINS_15TensorFixedSizeIdNS_5SizesIJLx7ELx9ELx2EEEELi0ExEELi0EE8constantERKd"
 "_ZNK5Eigen10TensorBaseINS_15TensorFixedSizeIdNS_5SizesIJLx81EEEELi0ExEELi0EE11nullaryExprINS_8internal18scalar_constant_opIdEEEEKNS_20TensorCwiseNullaryOpIT_KS4_EERKSB_"
 "_ZNK5Eigen10TensorBaseINS_15TensorFixedSizeIdNS_5SizesIJLx81EEEELi0ExEELi0EE7derivedEv"
 "_ZNK5Eigen10TensorBaseINS_15TensorFixedSizeIdNS_5SizesIJLx81EEEELi0ExEELi0EE8constantERKd"
 "_ZNK5Eigen10TensorBaseINS_15TensorFixedSizeIdNS_5SizesIJLx81ELx2EEEELi0ExEELi0EE11nullaryExprINS_8internal18scalar_constant_opIdEEEEKNS_20TensorCwiseNullaryOpIT_KS4_EERKSB_"
 "_ZNK5Eigen10TensorBaseINS_15TensorFixedSizeIdNS_5SizesIJLx81ELx2EEEELi0ExEELi0EE7derivedEv"
 "_ZNK5Eigen10TensorBaseINS_15TensorFixedSizeIdNS_5SizesIJLx81ELx2EEEELi0ExEELi0EE8constantERKd"
 "_ZNK5Eigen10TensorBaseINS_15TensorFixedSizeIdNS_5SizesIJLx9EEEELi0ExEELi0EE11nullaryExprINS_8internal18scalar_constant_opIdEEEEKNS_20TensorCwiseNullaryOpIT_KS4_EERKSB_"
 "_ZNK5Eigen10TensorBaseINS_15TensorFixedSizeIdNS_5SizesIJLx9EEEELi0ExEELi0EE7derivedEv"
 "_ZNK5Eigen10TensorBaseINS_15TensorFixedSizeIdNS_5SizesIJLx9EEEELi0ExEELi0EE8constantERKd"
 "_ZNK5Eigen10TensorBaseINS_15TensorFixedSizeIdNS_5SizesIJLx9ELx2EEEELi0ExEELi0EE11nullaryExprINS_8internal18scalar_constant_opIdEEEEKNS_20TensorCwiseNullaryOpIT_KS4_EERKSB_"
 "_ZNK5Eigen10TensorBaseINS_15TensorFixedSizeIdNS_5SizesIJLx9ELx2EEEELi0ExEELi0EE7derivedEv"
 "_ZNK5Eigen10TensorBaseINS_15TensorFixedSizeIdNS_5SizesIJLx9ELx2EEEELi0ExEELi0EE8constantERKd"
 "_ZNK5Eigen10TensorBaseINS_6TensorIdLi1ELi0ExEELi0EE11nullaryExprINS_8internal18scalar_constant_opIdEEEEKNS_20TensorCwiseNullaryOpIT_KS2_EERKS9_"
 "_ZNK5Eigen10TensorBaseINS_6TensorIdLi1ELi0ExEELi0EE7derivedEv"
 "_ZNK5Eigen10TensorBaseINS_6TensorIdLi1ELi0ExEELi0EE8constantERKd"
 "_ZNK5Eigen10TensorBaseINS_6TensorIdLi2ELi0ExEELi0EE11nullaryExprINS_8internal18scalar_constant_opIdEEEEKNS_20TensorCwiseNullaryOpIT_KS2_EERKS9_"
 "_ZNK5Eigen10TensorBaseINS_6TensorIdLi2ELi0ExEELi0EE7derivedEv"
 "_ZNK5Eigen10TensorBaseINS_6TensorIdLi2ELi0ExEELi0EE8constantERKd"
 "_ZNK5Eigen10TensorBaseINS_6TensorIdLi3ELi0ExEELi0EE11nullaryExprINS_8internal18scalar_constant_opIdEEEEKNS_20TensorCwiseNullaryOpIT_KS2_EERKS9_"
 "_ZNK5Eigen10TensorBaseINS_6TensorIdLi3ELi0ExEELi0EE7derivedEv"
 "_ZNK5Eigen10TensorBaseINS_6TensorIdLi3ELi0ExEELi0EE8constantERKd"
 "_ZNK5Eigen10TensorBaseINS_6TensorIdLi4ELi0ExEELi0EE11nullaryExprINS_8internal18scalar_constant_opIdEEEEKNS_20TensorCwiseNullaryOpIT_KS2_EERKS9_"
 "_ZNK5Eigen10TensorBaseINS_6TensorIdLi4ELi0ExEELi0EE7derivedEv"
 "_ZNK5Eigen10TensorBaseINS_6TensorIdLi4ELi0ExEELi0EE8constantERKd"
 "_ZNK5Eigen10TensorBaseINS_6TensorIdLi5ELi0ExEELi0EE11nullaryExprINS_8internal18scalar_constant_opIdEEEEKNS_20TensorCwiseNullaryOpIT_KS2_EERKS9_"
 "_ZNK5Eigen10TensorBaseINS_6TensorIdLi5ELi0ExEELi0EE7derivedEv"
 "_ZNK5Eigen10TensorBaseINS_6TensorIdLi5ELi0ExEELi0EE8constantERKd"
 "_ZNK5Eigen10TensorBaseINS_9TensorMapINS_6TensorIdLi1ELi0ExEELi0ENS_11MakePointerEEELi1EE7derivedEv"
 "_ZNK5Eigen10TensorBaseINS_9TensorMapINS_6TensorIdLi2ELi0ExEELi0ENS_11MakePointerEEELi1EE7derivedEv"
 "_ZNK5Eigen10TensorBaseINS_9TensorMapINS_6TensorIdLi3ELi0ExEELi0ENS_11MakePointerEEELi1EE7derivedEv"
 "_ZNK5Eigen10TensorBaseINS_9TensorMapINS_6TensorIdLi4ELi0ExEELi0ENS_11MakePointerEEELi1EE7derivedEv"
 "_ZNK5Eigen13DefaultDevice6memcpyEPvPKvy"
 "_ZNK5Eigen13TensorStorageIdNS_5SizesIJLx2EEEELi0EE10dimensionsEv"
 "_ZNK5Eigen13TensorStorageIdNS_5SizesIJLx2EEEELi0EE4dataEv"
 "_ZNK5Eigen13TensorStorageIdNS_5SizesIJLx2EEEELi0EE4sizeEv"
 "_ZNK5Eigen13TensorStorageIdNS_5SizesIJLx3EEEELi0EE10dimensionsEv"
 "_ZNK5Eigen13TensorStorageIdNS_5SizesIJLx3EEEELi0EE4dataEv"
 "_ZNK5Eigen13TensorStorageIdNS_5SizesIJLx3EEEELi0EE4sizeEv"
 "_ZNK5Eigen13TensorStorageIdNS_5SizesIJLx3ELx6ELx10ELx2EEEELi0EE10dimensionsEv"
 "_ZNK5Eigen13TensorStorageIdNS_5SizesIJLx3ELx6ELx10ELx2EEEELi0EE4dataEv"
 "_ZNK5Eigen13TensorStorageIdNS_5SizesIJLx3ELx6ELx10ELx2EEEELi0EE4sizeEv"
 "_ZNK5Eigen13TensorStorageIdNS_5SizesIJLx3ELx7ELx2EEEELi0EE10dimensionsEv"
 "_ZNK5Eigen13TensorStorageIdNS_5SizesIJLx3ELx7ELx2EEEELi0EE4dataEv"
 "_ZNK5Eigen13TensorStorageIdNS_5SizesIJLx3ELx7ELx5ELx2EEEELi0EE10dimensionsEv"
 "_ZNK5Eigen13TensorStorageIdNS_5SizesIJLx3ELx7ELx5ELx2EEEELi0EE4dataEv"
 "_ZNK5Eigen13TensorStorageIdNS_5SizesIJLx3ELx7ELx5ELx2EEEELi0EE4sizeEv"
 "_ZNK5Eigen13TensorStorageIdNS_5SizesIJLx3ELx7ELx66ELx2EEEELi0EE10dimensionsEv"
 "_ZNK5Eigen13TensorStorageIdNS_5SizesIJLx3ELx7ELx66ELx2EEEELi0EE4dataEv"
 "_ZNK5Eigen13TensorStorageIdNS_5SizesIJLx3ELx7ELx66ELx2EEEELi0EE4sizeEv"
 "_ZNK5Eigen13TensorStorageIdNS_5SizesIJLx3ELx7ELx9ELx2EEEELi0EE10dimensionsEv"
 "_ZNK5Eigen13TensorStorageIdNS_5SizesIJLx3ELx7ELx9ELx2EEEELi0EE4dataEv"
 "_ZNK5Eigen13TensorStorageIdNS_5SizesIJLx3ELx7ELx9ELx2EEEELi0EE4sizeEv"
 "_ZNK5Eigen13TensorStorageIdNS_5SizesIJLx4EEEELi0EE10dimensionsEv"
 "_ZNK5Eigen13TensorStorageIdNS_5SizesIJLx4EEEELi0EE4dataEv"
 "_ZNK5Eigen13TensorStorageIdNS_5SizesIJLx4EEEELi0EE4sizeEv"
 "_ZNK5Eigen13TensorStorageIdNS_5SizesIJLx4ELx5ELx2EEEELi0EE10dimensionsEv"
 "_ZNK5Eigen13TensorStorageIdNS_5SizesIJLx4ELx5ELx2EEEELi0EE4dataEv"
 "_ZNK5Eigen13TensorStorageIdNS_5SizesIJLx4ELx5ELx2EEEELi0EE4sizeEv"
 "_ZNK5Eigen13TensorStorageIdNS_5SizesIJLx66EEEELi0EE10dimensionsEv"
 "_ZNK5Eigen13TensorStorageIdNS_5SizesIJLx66EEEELi0EE4dataEv"
 "_ZNK5Eigen13TensorStorageIdNS_5SizesIJLx66EEEELi0EE4sizeEv"
 "_ZNK5Eigen13TensorStorageIdNS_5SizesIJLx66ELx2EEEELi0EE10dimensionsEv"
 "_ZNK5Eigen13TensorStorageIdNS_5SizesIJLx66ELx2EEEELi0EE4dataEv"
 "_ZNK5Eigen13TensorStorageIdNS_5SizesIJLx6ELx4ELx10ELx2EEEELi0EE10dimensionsEv"
 "_ZNK5Eigen13TensorStorageIdNS_5SizesIJLx6ELx4ELx10ELx2EEEELi0EE4dataEv"
 "_ZNK5Eigen13TensorStorageIdNS_5SizesIJLx6ELx4ELx10ELx2EEEELi0EE4sizeEv"
 "_ZNK5Eigen13TensorStorageIdNS_5SizesIJLx6ELx4ELx5ELx2EEEELi0EE10dimensionsEv"
 "_ZNK5Eigen13TensorStorageIdNS_5SizesIJLx6ELx4ELx5ELx2EEEELi0EE4dataEv"
 "_ZNK5Eigen13TensorStorageIdNS_5SizesIJLx6ELx4ELx5ELx2EEEELi0EE4sizeEv"
 "_ZNK5Eigen13TensorStorageIdNS_5SizesIJLx7EEEELi0EE10dimensionsEv"
 "_ZNK5Eigen13TensorStorageIdNS_5SizesIJLx7EEEELi0EE4dataEv"
 "_ZNK5Eigen13TensorStorageIdNS_5SizesIJLx7EEEELi0EE4sizeEv"
 "_ZNK5Eigen13TensorStorageIdNS_5SizesIJLx7ELx15ELx2EEEELi0EE10dimensionsEv"
 "_ZNK5Eigen13TensorStorageIdNS_5SizesIJLx7ELx15ELx2EEEELi0EE4dataEv"
 "_ZNK5Eigen13TensorStorageIdNS_5SizesIJLx7ELx2EEEELi0EE10dimensionsEv"
 "_ZNK5Eigen13TensorStorageIdNS_5SizesIJLx7ELx2EEEELi0EE4dataEv"
 "_ZNK5Eigen13TensorStorageIdNS_5SizesIJLx7ELx4ELx15ELx2EEEELi0EE10dimensionsEv"
 "_ZNK5Eigen13TensorStorageIdNS_5SizesIJLx7ELx4ELx15ELx2EEEELi0EE4dataEv"
 "_ZNK5Eigen13TensorStorageIdNS_5SizesIJLx7ELx4ELx15ELx2EEEELi0EE4sizeEv"
 "_ZNK5Eigen13TensorStorageIdNS_5SizesIJLx7ELx4ELx5ELx2EEEELi0EE10dimensionsEv"
 "_ZNK5Eigen13TensorStorageIdNS_5SizesIJLx7ELx4ELx5ELx2EEEELi0EE4dataEv"
 "_ZNK5Eigen13TensorStorageIdNS_5SizesIJLx7ELx4ELx5ELx2EEEELi0EE4sizeEv"
 "_ZNK5Eigen13TensorStorageIdNS_5SizesIJLx7ELx4ELx66ELx2EEEELi0EE10dimensionsEv"
 "_ZNK5Eigen13TensorStorageIdNS_5SizesIJLx7ELx4ELx66ELx2EEEELi0EE4dataEv"
 "_ZNK5Eigen13TensorStorageIdNS_5SizesIJLx7ELx66EEEELi0EE10dimensionsEv"
 "_ZNK5Eigen13TensorStorageIdNS_5SizesIJLx7ELx66EEEELi0EE4dataEv"
 "_ZNK5Eigen13TensorStorageIdNS_5SizesIJLx7ELx66ELx2EEEELi0EE10dimensionsEv"
 "_ZNK5Eigen13TensorStorageIdNS_5SizesIJLx7ELx66ELx2EEEELi0EE4dataEv"
 "_ZNK5Eigen13TensorStorageIdNS_5SizesIJLx7ELx66ELx2EEEELi0EE4sizeEv"
 "_ZNK5Eigen13TensorStorageIdNS_5SizesIJLx7ELx9EEEELi0EE10dimensionsEv"
 "_ZNK5Eigen13TensorStorageIdNS_5SizesIJLx7ELx9EEEELi0EE4dataEv"
 "_ZNK5Eigen13TensorStorageIdNS_5SizesIJLx7ELx9ELx2EEEELi0EE10dimensionsEv"
 "_ZNK5Eigen13TensorStorageIdNS_5SizesIJLx7ELx9ELx2EEEELi0EE4dataEv"
 "_ZNK5Eigen13TensorStorageIdNS_5SizesIJLx7ELx9ELx2EEEELi0EE4sizeEv"
 "_ZNK5Eigen13TensorStorageIdNS_5SizesIJLx81EEEELi0EE10dimensionsEv"
 "_ZNK5Eigen13TensorStorageIdNS_5SizesIJLx81EEEELi0EE4dataEv"
 "_ZNK5Eigen13TensorStorageIdNS_5SizesIJLx81EEEELi0EE4sizeEv"
 "_ZNK5Eigen13TensorStorageIdNS_5SizesIJLx81ELx2EEEELi0EE10dimensionsEv"
 "_ZNK5Eigen13TensorStorageIdNS_5SizesIJLx81ELx2EEEELi0EE4dataEv"
 "_ZNK5Eigen13TensorStorageIdNS_5SizesIJLx81ELx2EEEELi0EE4sizeEv"
 "_ZNK5Eigen13TensorStorageIdNS_5SizesIJLx9EEEELi0EE10dimensionsEv"
 "_ZNK5Eigen13TensorStorageIdNS_5SizesIJLx9EEEELi0EE4dataEv"
 "_ZNK5Eigen13TensorStorageIdNS_5SizesIJLx9EEEELi0EE4sizeEv"
 "_ZNK5Eigen13TensorStorageIdNS_5SizesIJLx9ELx2EEEELi0EE10dimensionsEv"
 "_ZNK5Eigen13TensorStorageIdNS_5SizesIJLx9ELx2EEEELi0EE4dataEv"
 "_ZNK5Eigen13TensorStorageIdNS_6DSizesIxLi1EEELi0EE10dimensionsEv"
 "_ZNK5Eigen13TensorStorageIdNS_6DSizesIxLi1EEELi0EE4dataEv"
 "_ZNK5Eigen13TensorStorageIdNS_6DSizesIxLi1EEELi0EE4sizeEv"
 "_ZNK5Eigen13TensorStorageIdNS_6DSizesIxLi2EEELi0EE10dimensionsEv"
 "_ZNK5Eigen13TensorStorageIdNS_6DSizesIxLi2EEELi0EE4dataEv"
 "_ZNK5Eigen13TensorStorageIdNS_6DSizesIxLi2EEELi0EE4sizeEv"
 "_ZNK5Eigen13TensorStorageIdNS_6DSizesIxLi3EEELi0EE10dimensionsEv"
 "_ZNK5Eigen13TensorStorageIdNS_6DSizesIxLi3EEELi0EE4dataEv"
 "_ZNK5Eigen13TensorStorageIdNS_6DSizesIxLi3EEELi0EE4sizeEv"
 "_ZNK5Eigen13TensorStorageIdNS_6DSizesIxLi4EEELi0EE10dimensionsEv"
 "_ZNK5Eigen13TensorStorageIdNS_6DSizesIxLi4EEELi0EE4dataEv"
 "_ZNK5Eigen13TensorStorageIdNS_6DSizesIxLi4EEELi0EE4sizeEv"
 "_ZNK5Eigen13TensorStorageIdNS_6DSizesIxLi5EEELi0EE10dimensionsEv"
 "_ZNK5Eigen13TensorStorageIdNS_6DSizesIxLi5EEELi0EE4dataEv"
 "_ZNK5Eigen13TensorStorageIdNS_6DSizesIxLi5EEELi0EE4sizeEv"
 "_ZNK5Eigen14TensorAssignOpINS_15TensorFixedSizeIdNS_5SizesIJLx2EEEELi0ExEEKNS_20TensorCwiseNullaryOpINS_8internal18scalar_constant_opIdEEKS4_EEE13lhsExpressionEv"
 "_ZNK5Eigen14TensorAssignOpINS_15TensorFixedSizeIdNS_5SizesIJLx2EEEELi0ExEEKNS_20TensorCwiseNullaryOpINS_8internal18scalar_constant_opIdEEKS4_EEE13rhsExpressionEv"
 "_ZNK5Eigen14TensorAssignOpINS_15TensorFixedSizeIdNS_5SizesIJLx3EEEELi0ExEEKNS_20TensorCwiseNullaryOpINS_8internal18scalar_constant_opIdEEKS4_EEE13lhsExpressionEv"
 "_ZNK5Eigen14TensorAssignOpINS_15TensorFixedSizeIdNS_5SizesIJLx3EEEELi0ExEEKNS_20TensorCwiseNullaryOpINS_8internal18scalar_constant_opIdEEKS4_EEE13rhsExpressionEv"
 "_ZNK5Eigen14TensorAssignOpINS_15TensorFixedSizeIdNS_5SizesIJLx3ELx6ELx10ELx2EEEELi0ExEEKNS_20TensorCwiseNullaryOpINS_8internal18scalar_constant_opIdEEKS4_EEE13lhsExpressionEv"
 "_ZNK5Eigen14TensorAssignOpINS_15TensorFixedSizeIdNS_5SizesIJLx3ELx6ELx10ELx2EEEELi0ExEEKNS_20TensorCwiseNullaryOpINS_8internal18scalar_constant_opIdEEKS4_EEE13rhsExpressionEv"
 "_ZNK5Eigen14TensorAssignOpINS_15TensorFixedSizeIdNS_5SizesIJLx3ELx6ELx10ELx2EEEELi0ExEEKNS_9TensorMapINS_6TensorIdLi4ELi0ExEELi0ENS_11MakePointerEEEE13lhsExpressionEv"
 "_ZNK5Eigen14TensorAssignOpINS_15TensorFixedSizeIdNS_5SizesIJLx3ELx6ELx10ELx2EEEELi0ExEEKNS_9TensorMapINS_6TensorIdLi4ELi0ExEELi0ENS_11MakePointerEEEE13rhsExpressionEv"
 "_ZNK5Eigen14TensorAssignOpINS_15TensorFixedSizeIdNS_5SizesIJLx3ELx6ELx10ELx2EEEELi0ExEEKS4_E13lhsExpressionEv"
 "_ZNK5Eigen14TensorAssignOpINS_15TensorFixedSizeIdNS_5SizesIJLx3ELx6ELx10ELx2EEEELi0ExEEKS4_E13rhsExpressionEv"
 "_ZNK5Eigen14TensorAssignOpINS_15TensorFixedSizeIdNS_5SizesIJLx3ELx7ELx2EEEELi0ExEEKNS_20TensorCwiseNullaryOpINS_8internal18scalar_constant_opIdEEKS4_EEE13lhsExpressionEv"
 "_ZNK5Eigen14TensorAssignOpINS_15TensorFixedSizeIdNS_5SizesIJLx3ELx7ELx2EEEELi0ExEEKNS_20TensorCwiseNullaryOpINS_8internal18scalar_constant_opIdEEKS4_EEE13rhsExpressionEv"
 "_ZNK5Eigen14TensorAssignOpINS_15TensorFixedSizeIdNS_5SizesIJLx3ELx7ELx5ELx2EEEELi0ExEEKNS_20TensorCwiseNullaryOpINS_8internal18scalar_constant_opIdEEKS4_EEE13lhsExpressionEv"
 "_ZNK5Eigen14TensorAssignOpINS_15TensorFixedSizeIdNS_5SizesIJLx3ELx7ELx5ELx2EEEELi0ExEEKNS_20TensorCwiseNullaryOpINS_8internal18scalar_constant_opIdEEKS4_EEE13rhsExpressionEv"
 "_ZNK5Eigen14TensorAssignOpINS_15TensorFixedSizeIdNS_5SizesIJLx3ELx7ELx5ELx2EEEELi0ExEEKNS_9TensorMapINS_6TensorIdLi4ELi0ExEELi0ENS_11MakePointerEEEE13lhsExpressionEv"
 "_ZNK5Eigen14TensorAssignOpINS_15TensorFixedSizeIdNS_5SizesIJLx3ELx7ELx5ELx2EEEELi0ExEEKNS_9TensorMapINS_6TensorIdLi4ELi0ExEELi0ENS_11MakePointerEEEE13rhsExpressionEv"
 "_ZNK5Eigen14TensorAssignOpINS_15TensorFixedSizeIdNS_5SizesIJLx3ELx7ELx5ELx2EEEELi0ExEEKS4_E13lhsExpressionEv"
 "_ZNK5Eigen14TensorAssignOpINS_15TensorFixedSizeIdNS_5SizesIJLx3ELx7ELx5ELx2EEEELi0ExEEKS4_E13rhsExpressionEv"
 "_ZNK5Eigen14TensorAssignOpINS_15TensorFixedSizeIdNS_5SizesIJLx3ELx7ELx66ELx2EEEELi0ExEEKNS_20TensorCwiseNullaryOpINS_8internal18scalar_constant_opIdEEKS4_EEE13lhsExpressionEv"
 "_ZNK5Eigen14TensorAssignOpINS_15TensorFixedSizeIdNS_5SizesIJLx3ELx7ELx66ELx2EEEELi0ExEEKNS_20TensorCwiseNullaryOpINS_8internal18scalar_constant_opIdEEKS4_EEE13rhsExpressionEv"
 "_ZNK5Eigen14TensorAssignOpINS_15TensorFixedSizeIdNS_5SizesIJLx3ELx7ELx66ELx2EEEELi0ExEEKNS_9TensorMapINS_6TensorIdLi4ELi0ExEELi0ENS_11MakePointerEEEE13lhsExpressionEv"
 "_ZNK5Eigen14TensorAssignOpINS_15TensorFixedSizeIdNS_5SizesIJLx3ELx7ELx66ELx2EEEELi0ExEEKNS_9TensorMapINS_6TensorIdLi4ELi0ExEELi0ENS_11MakePointerEEEE13rhsExpressionEv"
 "_ZNK5Eigen14TensorAssignOpINS_15TensorFixedSizeIdNS_5SizesIJLx3ELx7ELx66ELx2EEEELi0ExEEKS4_E13lhsExpressionEv"
 "_ZNK5Eigen14TensorAssignOpINS_15TensorFixedSizeIdNS_5SizesIJLx3ELx7ELx66ELx2EEEELi0ExEEKS4_E13rhsExpressionEv"
 "_ZNK5Eigen14TensorAssignOpINS_15TensorFixedSizeIdNS_5SizesIJLx3ELx7ELx9ELx2EEEELi0ExEEKNS_20TensorCwiseNullaryOpINS_8internal18scalar_constant_opIdEEKS4_EEE13lhsExpressionEv"
 "_ZNK5Eigen14TensorAssignOpINS_15TensorFixedSizeIdNS_5SizesIJLx3ELx7ELx9ELx2EEEELi0ExEEKNS_20TensorCwiseNullaryOpINS_8internal18scalar_constant_opIdEEKS4_EEE13rhsExpressionEv"
 "_ZNK5Eigen14TensorAssignOpINS_15TensorFixedSizeIdNS_5SizesIJLx3ELx7ELx9ELx2EEEELi0ExEEKNS_9TensorMapINS_6TensorIdLi4ELi0ExEELi0ENS_11MakePointerEEEE13lhsExpressionEv"
 "_ZNK5Eigen14TensorAssignOpINS_15TensorFixedSizeIdNS_5SizesIJLx3ELx7ELx9ELx2EEEELi0ExEEKNS_9TensorMapINS_6TensorIdLi4ELi0ExEELi0ENS_11MakePointerEEEE13rhsExpressionEv"
 "_ZNK5Eigen14TensorAssignOpINS_15TensorFixedSizeIdNS_5SizesIJLx3ELx7ELx9ELx2EEEELi0ExEEKS4_E13lhsExpressionEv"
 "_ZNK5Eigen14TensorAssignOpINS_15TensorFixedSizeIdNS_5SizesIJLx3ELx7ELx9ELx2EEEELi0ExEEKS4_E13rhsExpressionEv"
 "_ZNK5Eigen14TensorAssignOpINS_15TensorFixedSizeIdNS_5SizesIJLx4EEEELi0ExEEKNS_20TensorCwiseNullaryOpINS_8internal18scalar_constant_opIdEEKS4_EEE13lhsExpressionEv"
 "_ZNK5Eigen14TensorAssignOpINS_15TensorFixedSizeIdNS_5SizesIJLx4EEEELi0ExEEKNS_20TensorCwiseNullaryOpINS_8internal18scalar_constant_opIdEEKS4_EEE13rhsExpressionEv"
 "_ZNK5Eigen14TensorAssignOpINS_15TensorFixedSizeIdNS_5SizesIJLx4EEEELi0ExEEKNS_9TensorMapINS_6TensorIdLi1ELi0ExEELi0ENS_11MakePointerEEEE13lhsExpressionEv"
 "_ZNK5Eigen14TensorAssignOpINS_15TensorFixedSizeIdNS_5SizesIJLx4EEEELi0ExEEKNS_9TensorMapINS_6TensorIdLi1ELi0ExEELi0ENS_11MakePointerEEEE13rhsExpressionEv"
 "_ZNK5Eigen14TensorAssignOpINS_15TensorFixedSizeIdNS_5SizesIJLx4EEEELi0ExEEKS4_E13lhsExpressionEv"
 "_ZNK5Eigen14TensorAssignOpINS_15TensorFixedSizeIdNS_5SizesIJLx4EEEELi0ExEEKS4_E13rhsExpressionEv"
 "_ZNK5Eigen14TensorAssignOpINS_15TensorFixedSizeIdNS_5SizesIJLx4ELx5ELx2EEEELi0ExEEKNS_20TensorCwiseNullaryOpINS_8internal18scalar_constant_opIdEEKS4_EEE13lhsExpressionEv"
 "_ZNK5Eigen14TensorAssignOpINS_15TensorFixedSizeIdNS_5SizesIJLx4ELx5ELx2EEEELi0ExEEKNS_20TensorCwiseNullaryOpINS_8internal18scalar_constant_opIdEEKS4_EEE13rhsExpressionEv"
 "_ZNK5Eigen14TensorAssignOpINS_15TensorFixedSizeIdNS_5SizesIJLx4ELx5ELx2EEEELi0ExEEKNS_9TensorMapINS_6TensorIdLi3ELi0ExEELi0ENS_11MakePointerEEEE13lhsExpressionEv"
 "_ZNK5Eigen14TensorAssignOpINS_15TensorFixedSizeIdNS_5SizesIJLx4ELx5ELx2EEEELi0ExEEKNS_9TensorMapINS_6TensorIdLi3ELi0ExEELi0ENS_11MakePointerEEEE13rhsExpressionEv"
 "_ZNK5Eigen14TensorAssignOpINS_15TensorFixedSizeIdNS_5SizesIJLx4ELx5ELx2EEEELi0ExEEKS4_E13lhsExpressionEv"
 "_ZNK5Eigen14TensorAssignOpINS_15TensorFixedSizeIdNS_5SizesIJLx4ELx5ELx2EEEELi0ExEEKS4_E13rhsExpressionEv"
 "_ZNK5Eigen14TensorAssignOpINS_15TensorFixedSizeIdNS_5SizesIJLx66EEEELi0ExEEKNS_20TensorCwiseNullaryOpINS_8internal18scalar_constant_opIdEEKS4_EEE13lhsExpressionEv"
 "_ZNK5Eigen14TensorAssignOpINS_15TensorFixedSizeIdNS_5SizesIJLx66EEEELi0ExEEKNS_20TensorCwiseNullaryOpINS_8internal18scalar_constant_opIdEEKS4_EEE13rhsExpressionEv"
 "_ZNK5Eigen14TensorAssignOpINS_15TensorFixedSizeIdNS_5SizesIJLx66ELx2EEEELi0ExEEKNS_20TensorCwiseNullaryOpINS_8internal18scalar_constant_opIdEEKS4_EEE13lhsExpressionEv"
 "_ZNK5Eigen14TensorAssignOpINS_15TensorFixedSizeIdNS_5SizesIJLx66ELx2EEEELi0ExEEKNS_20TensorCwiseNullaryOpINS_8internal18scalar_constant_opIdEEKS4_EEE13rhsExpressionEv"
 "_ZNK5Eigen14TensorAssignOpINS_15TensorFixedSizeIdNS_5SizesIJLx6ELx4ELx10ELx2EEEELi0ExEEKNS_20TensorCwiseNullaryOpINS_8internal18scalar_constant_opIdEEKS4_EEE13lhsExpressionEv"
 "_ZNK5Eigen14TensorAssignOpINS_15TensorFixedSizeIdNS_5SizesIJLx6ELx4ELx10ELx2EEEELi0ExEEKNS_20TensorCwiseNullaryOpINS_8internal18scalar_constant_opIdEEKS4_EEE13rhsExpressionEv"
 "_ZNK5Eigen14TensorAssignOpINS_15TensorFixedSizeIdNS_5SizesIJLx6ELx4ELx10ELx2EEEELi0ExEEKNS_9TensorMapINS_6TensorIdLi4ELi0ExEELi0ENS_11MakePointerEEEE13lhsExpressionEv"
 "_ZNK5Eigen14TensorAssignOpINS_15TensorFixedSizeIdNS_5SizesIJLx6ELx4ELx10ELx2EEEELi0ExEEKNS_9TensorMapINS_6TensorIdLi4ELi0ExEELi0ENS_11MakePointerEEEE13rhsExpressionEv"
 "_ZNK5Eigen14TensorAssignOpINS_15TensorFixedSizeIdNS_5SizesIJLx6ELx4ELx10ELx2EEEELi0ExEEKS4_E13lhsExpressionEv"
 "_ZNK5Eigen14TensorAssignOpINS_15TensorFixedSizeIdNS_5SizesIJLx6ELx4ELx10ELx2EEEELi0ExEEKS4_E13rhsExpressionEv"
 "_ZNK5Eigen14TensorAssignOpINS_15TensorFixedSizeIdNS_5SizesIJLx6ELx4ELx5ELx2EEEELi0ExEEKNS_20TensorCwiseNullaryOpINS_8internal18scalar_constant_opIdEEKS4_EEE13lhsExpressionEv"
 "_ZNK5Eigen14TensorAssignOpINS_15TensorFixedSizeIdNS_5SizesIJLx6ELx4ELx5ELx2EEEELi0ExEEKNS_20TensorCwiseNullaryOpINS_8internal18scalar_constant_opIdEEKS4_EEE13rhsExpressionEv"
 "_ZNK5Eigen14TensorAssignOpINS_15TensorFixedSizeIdNS_5SizesIJLx6ELx4ELx5ELx2EEEELi0ExEEKNS_9TensorMapINS_6TensorIdLi4ELi0ExEELi0ENS_11MakePointerEEEE13lhsExpressionEv"
 "_ZNK5Eigen14TensorAssignOpINS_15TensorFixedSizeIdNS_5SizesIJLx6ELx4ELx5ELx2EEEELi0ExEEKNS_9TensorMapINS_6TensorIdLi4ELi0ExEELi0ENS_11MakePointerEEEE13rhsExpressionEv"
 "_ZNK5Eigen14TensorAssignOpINS_15TensorFixedSizeIdNS_5SizesIJLx6ELx4ELx5ELx2EEEELi0ExEEKS4_E13lhsExpressionEv"
 "_ZNK5Eigen14TensorAssignOpINS_15TensorFixedSizeIdNS_5SizesIJLx6ELx4ELx5ELx2EEEELi0ExEEKS4_E13rhsExpressionEv"
 "_ZNK5Eigen14TensorAssignOpINS_15TensorFixedSizeIdNS_5SizesIJLx7EEEELi0ExEEKNS_20TensorCwiseNullaryOpINS_8internal18scalar_constant_opIdEEKS4_EEE13lhsExpressionEv"
 "_ZNK5Eigen14TensorAssignOpINS_15TensorFixedSizeIdNS_5SizesIJLx7EEEELi0ExEEKNS_20TensorCwiseNullaryOpINS_8internal18scalar_constant_opIdEEKS4_EEE13rhsExpressionEv"
 "_ZNK5Eigen14TensorAssignOpINS_15TensorFixedSizeIdNS_5SizesIJLx7ELx15ELx2EEEELi0ExEEKNS_20TensorCwiseNullaryOpINS_8internal18scalar_constant_opIdEEKS4_EEE13lhsExpressionEv"
 "_ZNK5Eigen14TensorAssignOpINS_15TensorFixedSizeIdNS_5SizesIJLx7ELx15ELx2EEEELi0ExEEKNS_20TensorCwiseNullaryOpINS_8internal18scalar_constant_opIdEEKS4_EEE13rhsExpressionEv"
 "_ZNK5Eigen14TensorAssignOpINS_15TensorFixedSizeIdNS_5SizesIJLx7ELx2EEEELi0ExEEKNS_20TensorCwiseNullaryOpINS_8internal18scalar_constant_opIdEEKS4_EEE13lhsExpressionEv"
 "_ZNK5Eigen14TensorAssignOpINS_15TensorFixedSizeIdNS_5SizesIJLx7ELx2EEEELi0ExEEKNS_20TensorCwiseNullaryOpINS_8internal18scalar_constant_opIdEEKS4_EEE13rhsExpressionEv"
 "_ZNK5Eigen14TensorAssignOpINS_15TensorFixedSizeIdNS_5SizesIJLx7ELx4ELx15ELx2EEEELi0ExEEKNS_20TensorCwiseNullaryOpINS_8internal18scalar_constant_opIdEEKS4_EEE13lhsExpressionEv"
 "_ZNK5Eigen14TensorAssignOpINS_15TensorFixedSizeIdNS_5SizesIJLx7ELx4ELx15ELx2EEEELi0ExEEKNS_20TensorCwiseNullaryOpINS_8internal18scalar_constant_opIdEEKS4_EEE13rhsExpressionEv"
 "_ZNK5Eigen14TensorAssignOpINS_15TensorFixedSizeIdNS_5SizesIJLx7ELx4ELx15ELx2EEEELi0ExEEKNS_9TensorMapINS_6TensorIdLi4ELi0ExEELi0ENS_11MakePointerEEEE13lhsExpressionEv"
 "_ZNK5Eigen14TensorAssignOpINS_15TensorFixedSizeIdNS_5SizesIJLx7ELx4ELx15ELx2EEEELi0ExEEKNS_9TensorMapINS_6TensorIdLi4ELi0ExEELi0ENS_11MakePointerEEEE13rhsExpressionEv"
 "_ZNK5Eigen14TensorAssignOpINS_15TensorFixedSizeIdNS_5SizesIJLx7ELx4ELx15ELx2EEEELi0ExEEKS4_E13lhsExpressionEv"
 "_ZNK5Eigen14TensorAssignOpINS_15TensorFixedSizeIdNS_5SizesIJLx7ELx4ELx15ELx2EEEELi0ExEEKS4_E13rhsExpressionEv"
 "_ZNK5Eigen14TensorAssignOpINS_15TensorFixedSizeIdNS_5SizesIJLx7ELx4ELx5ELx2EEEELi0ExEEKNS_20TensorCwiseNullaryOpINS_8internal18scalar_constant_opIdEEKS4_EEE13lhsExpressionEv"
 "_ZNK5Eigen14TensorAssignOpINS_15TensorFixedSizeIdNS_5SizesIJLx7ELx4ELx5ELx2EEEELi0ExEEKNS_20TensorCwiseNullaryOpINS_8internal18scalar_constant_opIdEEKS4_EEE13rhsExpressionEv"
 "_ZNK5Eigen14TensorAssignOpINS_15TensorFixedSizeIdNS_5SizesIJLx7ELx4ELx5ELx2EEEELi0ExEEKNS_9TensorMapINS_6TensorIdLi4ELi0ExEELi0ENS_11MakePointerEEEE13lhsExpressionEv"
 "_ZNK5Eigen14TensorAssignOpINS_15TensorFixedSizeIdNS_5SizesIJLx7ELx4ELx5ELx2EEEELi0ExEEKNS_9TensorMapINS_6TensorIdLi4ELi0ExEELi0ENS_11MakePointerEEEE13rhsExpressionEv"
 "_ZNK5Eigen14TensorAssignOpINS_15TensorFixedSizeIdNS_5SizesIJLx7ELx4ELx5ELx2EEEELi0ExEEKS4_E13lhsExpressionEv"
 "_ZNK5Eigen14TensorAssignOpINS_15TensorFixedSizeIdNS_5SizesIJLx7ELx4ELx5ELx2EEEELi0ExEEKS4_E13rhsExpressionEv"
 "_ZNK5Eigen14TensorAssignOpINS_15TensorFixedSizeIdNS_5SizesIJLx7ELx4ELx66ELx2EEEELi0ExEEKNS_20TensorCwiseNullaryOpINS_8internal18scalar_constant_opIdEEKS4_EEE13lhsExpressionEv"
 "_ZNK5Eigen14TensorAssignOpINS_15TensorFixedSizeIdNS_5SizesIJLx7ELx4ELx66ELx2EEEELi0ExEEKNS_20TensorCwiseNullaryOpINS_8internal18scalar_constant_opIdEEKS4_EEE13rhsExpressionEv"
 "_ZNK5Eigen14TensorAssignOpINS_15TensorFixedSizeIdNS_5SizesIJLx7ELx66EEEELi0ExEEKNS_20TensorCwiseNullaryOpINS_8internal18scalar_constant_opIdEEKS4_EEE13lhsExpressionEv"
 "_ZNK5Eigen14TensorAssignOpINS_15TensorFixedSizeIdNS_5SizesIJLx7ELx66EEEELi0ExEEKNS_20TensorCwiseNullaryOpINS_8internal18scalar_constant_opIdEEKS4_EEE13rhsExpressionEv"
 "_ZNK5Eigen14TensorAssignOpINS_15TensorFixedSizeIdNS_5SizesIJLx7ELx66ELx2EEEELi0ExEEKNS_20TensorCwiseNullaryOpINS_8internal18scalar_constant_opIdEEKS4_EEE13lhsExpressionEv"
 "_ZNK5Eigen14TensorAssignOpINS_15TensorFixedSizeIdNS_5SizesIJLx7ELx66ELx2EEEELi0ExEEKNS_20TensorCwiseNullaryOpINS_8internal18scalar_constant_opIdEEKS4_EEE13rhsExpressionEv"
 "_ZNK5Eigen14TensorAssignOpINS_15TensorFixedSizeIdNS_5SizesIJLx7ELx66ELx2EEEELi0ExEEKNS_9TensorMapINS_6TensorIdLi3ELi0ExEELi0ENS_11MakePointerEEEE13lhsExpressionEv"
 "_ZNK5Eigen14TensorAssignOpINS_15TensorFixedSizeIdNS_5SizesIJLx7ELx66ELx2EEEELi0ExEEKNS_9TensorMapINS_6TensorIdLi3ELi0ExEELi0ENS_11MakePointerEEEE13rhsExpressionEv"
 "_ZNK5Eigen14TensorAssignOpINS_15TensorFixedSizeIdNS_5SizesIJLx7ELx66ELx2EEEELi0ExEEKS4_E13lhsExpressionEv"
 "_ZNK5Eigen14TensorAssignOpINS_15TensorFixedSizeIdNS_5SizesIJLx7ELx66ELx2EEEELi0ExEEKS4_E13rhsExpressionEv"
 "_ZNK5Eigen14TensorAssignOpINS_15TensorFixedSizeIdNS_5SizesIJLx7ELx9EEEELi0ExEEKNS_20TensorCwiseNullaryOpINS_8internal18scalar_constant_opIdEEKS4_EEE13lhsExpressionEv"
 "_ZNK5Eigen14TensorAssignOpINS_15TensorFixedSizeIdNS_5SizesIJLx7ELx9EEEELi0ExEEKNS_20TensorCwiseNullaryOpINS_8internal18scalar_constant_opIdEEKS4_EEE13rhsExpressionEv"
 "_ZNK5Eigen14TensorAssignOpINS_15TensorFixedSizeIdNS_5SizesIJLx7ELx9ELx2EEEELi0ExEEKNS_20TensorCwiseNullaryOpINS_8internal18scalar_constant_opIdEEKS4_EEE13lhsExpressionEv"
 "_ZNK5Eigen14TensorAssignOpINS_15TensorFixedSizeIdNS_5SizesIJLx7ELx9ELx2EEEELi0ExEEKNS_20TensorCwiseNullaryOpINS_8internal18scalar_constant_opIdEEKS4_EEE13rhsExpressionEv"
 "_ZNK5Eigen14TensorAssignOpINS_15TensorFixedSizeIdNS_5SizesIJLx7ELx9ELx2EEEELi0ExEEKNS_9TensorMapINS_6TensorIdLi3ELi0ExEELi0ENS_11MakePointerEEEE13lhsExpressionEv"
 "_ZNK5Eigen14TensorAssignOpINS_15TensorFixedSizeIdNS_5SizesIJLx7ELx9ELx2EEEELi0ExEEKNS_9TensorMapINS_6TensorIdLi3ELi0ExEELi0ENS_11MakePointerEEEE13rhsExpressionEv"
 "_ZNK5Eigen14TensorAssignOpINS_15TensorFixedSizeIdNS_5SizesIJLx7ELx9ELx2EEEELi0ExEEKS4_E13lhsExpressionEv"
 "_ZNK5Eigen14TensorAssignOpINS_15TensorFixedSizeIdNS_5SizesIJLx7ELx9ELx2EEEELi0ExEEKS4_E13rhsExpressionEv"
 "_ZNK5Eigen14TensorAssignOpINS_15TensorFixedSizeIdNS_5SizesIJLx81EEEELi0ExEEKNS_20TensorCwiseNullaryOpINS_8internal18scalar_constant_opIdEEKS4_EEE13lhsExpressionEv"
 "_ZNK5Eigen14TensorAssignOpINS_15TensorFixedSizeIdNS_5SizesIJLx81EEEELi0ExEEKNS_20TensorCwiseNullaryOpINS_8internal18scalar_constant_opIdEEKS4_EEE13rhsExpressionEv"
 "_ZNK5Eigen14TensorAssignOpINS_15TensorFixedSizeIdNS_5SizesIJLx81ELx2EEEELi0ExEEKNS_20TensorCwiseNullaryOpINS_8internal18scalar_constant_opIdEEKS4_EEE13lhsExpressionEv"
 "_ZNK5Eigen14TensorAssignOpINS_15TensorFixedSizeIdNS_5SizesIJLx81ELx2EEEELi0ExEEKNS_20TensorCwiseNullaryOpINS_8internal18scalar_constant_opIdEEKS4_EEE13rhsExpressionEv"
 "_ZNK5Eigen14TensorAssignOpINS_15TensorFixedSizeIdNS_5SizesIJLx81ELx2EEEELi0ExEEKNS_9TensorMapINS_6TensorIdLi2ELi0ExEELi0ENS_11MakePointerEEEE13lhsExpressionEv"
 "_ZNK5Eigen14TensorAssignOpINS_15TensorFixedSizeIdNS_5SizesIJLx81ELx2EEEELi0ExEEKNS_9TensorMapINS_6TensorIdLi2ELi0ExEELi0ENS_11MakePointerEEEE13rhsExpressionEv"
 "_ZNK5Eigen14TensorAssignOpINS_15TensorFixedSizeIdNS_5SizesIJLx81ELx2EEEELi0ExEEKS4_E13lhsExpressionEv"
 "_ZNK5Eigen14TensorAssignOpINS_15TensorFixedSizeIdNS_5SizesIJLx81ELx2EEEELi0ExEEKS4_E13rhsExpressionEv"
 "_ZNK5Eigen14TensorAssignOpINS_15TensorFixedSizeIdNS_5SizesIJLx9EEEELi0ExEEKNS_20TensorCwiseNullaryOpINS_8internal18scalar_constant_opIdEEKS4_EEE13lhsExpressionEv"
 "_ZNK5Eigen14TensorAssignOpINS_15TensorFixedSizeIdNS_5SizesIJLx9EEEELi0ExEEKNS_20TensorCwiseNullaryOpINS_8internal18scalar_constant_opIdEEKS4_EEE13rhsExpressionEv"
 "_ZNK5Eigen14TensorAssignOpINS_15TensorFixedSizeIdNS_5SizesIJLx9ELx2EEEELi0ExEEKNS_20TensorCwiseNullaryOpINS_8internal18scalar_constant_opIdEEKS4_EEE13lhsExpressionEv"
 "_ZNK5Eigen14TensorAssignOpINS_15TensorFixedSizeIdNS_5SizesIJLx9ELx2EEEELi0ExEEKNS_20TensorCwiseNullaryOpINS_8internal18scalar_constant_opIdEEKS4_EEE13rhsExpressionEv"
 "_ZNK5Eigen14TensorAssignOpINS_16TensorChippingOpILxn1ENS_6TensorIdLi2ELi0ExEEEEKNS_15TensorFixedSizeIdNS_5SizesIJLx4EEEELi0ExEEE13lhsExpressionEv"
 "_ZNK5Eigen14TensorAssignOpINS_16TensorChippingOpILxn1ENS_6TensorIdLi2ELi0ExEEEEKNS_15TensorFixedSizeIdNS_5SizesIJLx4EEEELi0ExEEE13rhsExpressionEv"
 "_ZNK5Eigen14TensorAssignOpINS_16TensorChippingOpILxn1ENS_6TensorIdLi3ELi0ExEEEEKNS_15TensorFixedSizeIdNS_5SizesIJLx81ELx2EEEELi0ExEEE13lhsExpressionEv"
 "_ZNK5Eigen14TensorAssignOpINS_16TensorChippingOpILxn1ENS_6TensorIdLi3ELi0ExEEEEKNS_15TensorFixedSizeIdNS_5SizesIJLx81ELx2EEEELi0ExEEE13rhsExpressionEv"
 "_ZNK5Eigen14TensorAssignOpINS_16TensorChippingOpILxn1ENS_6TensorIdLi4ELi0ExEEEEKNS_15TensorFixedSizeIdNS_5SizesIJLx4ELx5ELx2EEEELi0ExEEE13lhsExpressionEv"
 "_ZNK5Eigen14TensorAssignOpINS_16TensorChippingOpILxn1ENS_6TensorIdLi4ELi0ExEEEEKNS_15TensorFixedSizeIdNS_5SizesIJLx4ELx5ELx2EEEELi0ExEEE13rhsExpressionEv"
 "_ZNK5Eigen14TensorAssignOpINS_16TensorChippingOpILxn1ENS_6TensorIdLi4ELi0ExEEEEKNS_15TensorFixedSizeIdNS_5SizesIJLx7ELx66ELx2EEEELi0ExEEE13lhsExpressionEv"
 "_ZNK5Eigen14TensorAssignOpINS_16TensorChippingOpILxn1ENS_6TensorIdLi4ELi0ExEEEEKNS_15TensorFixedSizeIdNS_5SizesIJLx7ELx66ELx2EEEELi0ExEEE13rhsExpressionEv"
 "_ZNK5Eigen14TensorAssignOpINS_16TensorChippingOpILxn1ENS_6TensorIdLi4ELi0ExEEEEKNS_15TensorFixedSizeIdNS_5SizesIJLx7ELx9ELx2EEEELi0ExEEE13lhsExpressionEv"
 "_ZNK5Eigen14TensorAssignOpINS_16TensorChippingOpILxn1ENS_6TensorIdLi4ELi0ExEEEEKNS_15TensorFixedSizeIdNS_5SizesIJLx7ELx9ELx2EEEELi0ExEEE13rhsExpressionEv"
 "_ZNK5Eigen14TensorAssignOpINS_16TensorChippingOpILxn1ENS_6TensorIdLi5ELi0ExEEEEKNS_15TensorFixedSizeIdNS_5SizesIJLx3ELx6ELx10ELx2EEEELi0ExEEE13lhsExpressionEv"
 "_ZNK5Eigen14TensorAssignOpINS_16TensorChippingOpILxn1ENS_6TensorIdLi5ELi0ExEEEEKNS_15TensorFixedSizeIdNS_5SizesIJLx3ELx6ELx10ELx2EEEELi0ExEEE13rhsExpressionEv"
 "_ZNK5Eigen14TensorAssignOpINS_16TensorChippingOpILxn1ENS_6TensorIdLi5ELi0ExEEEEKNS_15TensorFixedSizeIdNS_5SizesIJLx3ELx7ELx5ELx2EEEELi0ExEEE13lhsExpressionEv"
 "_ZNK5Eigen14TensorAssignOpINS_16TensorChippingOpILxn1ENS_6TensorIdLi5ELi0ExEEEEKNS_15TensorFixedSizeIdNS_5SizesIJLx3ELx7ELx5ELx2EEEELi0ExEEE13rhsExpressionEv"
 "_ZNK5Eigen14TensorAssignOpINS_16TensorChippingOpILxn1ENS_6TensorIdLi5ELi0ExEEEEKNS_15TensorFixedSizeIdNS_5SizesIJLx3ELx7ELx66ELx2EEEELi0ExEEE13lhsExpressionEv"
 "_ZNK5Eigen14TensorAssignOpINS_16TensorChippingOpILxn1ENS_6TensorIdLi5ELi0ExEEEEKNS_15TensorFixedSizeIdNS_5SizesIJLx3ELx7ELx66ELx2EEEELi0ExEEE13rhsExpressionEv"
 "_ZNK5Eigen14TensorAssignOpINS_16TensorChippingOpILxn1ENS_6TensorIdLi5ELi0ExEEEEKNS_15TensorFixedSizeIdNS_5SizesIJLx3ELx7ELx9ELx2EEEELi0ExEEE13lhsExpressionEv"
 "_ZNK5Eigen14TensorAssignOpINS_16TensorChippingOpILxn1ENS_6TensorIdLi5ELi0ExEEEEKNS_15TensorFixedSizeIdNS_5SizesIJLx3ELx7ELx9ELx2EEEELi0ExEEE13rhsExpressionEv"
 "_ZNK5Eigen14TensorAssignOpINS_16TensorChippingOpILxn1ENS_6TensorIdLi5ELi0ExEEEEKNS_15TensorFixedSizeIdNS_5SizesIJLx6ELx4ELx10ELx2EEEELi0ExEEE13lhsExpressionEv"
 "_ZNK5Eigen14TensorAssignOpINS_16TensorChippingOpILxn1ENS_6TensorIdLi5ELi0ExEEEEKNS_15TensorFixedSizeIdNS_5SizesIJLx6ELx4ELx10ELx2EEEELi0ExEEE13rhsExpressionEv"
 "_ZNK5Eigen14TensorAssignOpINS_16TensorChippingOpILxn1ENS_6TensorIdLi5ELi0ExEEEEKNS_15TensorFixedSizeIdNS_5SizesIJLx6ELx4ELx5ELx2EEEELi0ExEEE13lhsExpressionEv"
 "_ZNK5Eigen14TensorAssignOpINS_16TensorChippingOpILxn1ENS_6TensorIdLi5ELi0ExEEEEKNS_15TensorFixedSizeIdNS_5SizesIJLx6ELx4ELx5ELx2EEEELi0ExEEE13rhsExpressionEv"
 "_ZNK5Eigen14TensorAssignOpINS_16TensorChippingOpILxn1ENS_6TensorIdLi5ELi0ExEEEEKNS_15TensorFixedSizeIdNS_5SizesIJLx7ELx4ELx15ELx2EEEELi0ExEEE13lhsExpressionEv"
 "_ZNK5Eigen14TensorAssignOpINS_16TensorChippingOpILxn1ENS_6TensorIdLi5ELi0ExEEEEKNS_15TensorFixedSizeIdNS_5SizesIJLx7ELx4ELx15ELx2EEEELi0ExEEE13rhsExpressionEv"
 "_ZNK5Eigen14TensorAssignOpINS_16TensorChippingOpILxn1ENS_6TensorIdLi5ELi0ExEEEEKNS_15TensorFixedSizeIdNS_5SizesIJLx7ELx4ELx5ELx2EEEELi0ExEEE13lhsExpressionEv"
 "_ZNK5Eigen14TensorAssignOpINS_16TensorChippingOpILxn1ENS_6TensorIdLi5ELi0ExEEEEKNS_15TensorFixedSizeIdNS_5SizesIJLx7ELx4ELx5ELx2EEEELi0ExEEE13rhsExpressionEv"
 "_ZNK5Eigen14TensorAssignOpINS_6TensorIdLi1ELi0ExEEKNS_20TensorCwiseNullaryOpINS_8internal18scalar_constant_opIdEEKS2_EEE13lhsExpressionEv"
 "_ZNK5Eigen14TensorAssignOpINS_6TensorIdLi1ELi0ExEEKNS_20TensorCwiseNullaryOpINS_8internal18scalar_constant_opIdEEKS2_EEE13rhsExpressionEv"
 "_ZNK5Eigen14TensorAssignOpINS_6TensorIdLi2ELi0ExEEKNS_20TensorCwiseNullaryOpINS_8internal18scalar_constant_opIdEEKS2_EEE13lhsExpressionEv"
 "_ZNK5Eigen14TensorAssignOpINS_6TensorIdLi2ELi0ExEEKNS_20TensorCwiseNullaryOpINS_8internal18scalar_constant_opIdEEKS2_EEE13rhsExpressionEv"
 "_ZNK5Eigen14TensorAssignOpINS_6TensorIdLi3ELi0ExEEKNS_20TensorCwiseNullaryOpINS_8internal18scalar_constant_opIdEEKS2_EEE13lhsExpressionEv"
 "_ZNK5Eigen14TensorAssignOpINS_6TensorIdLi3ELi0ExEEKNS_20TensorCwiseNullaryOpINS_8internal18scalar_constant_opIdEEKS2_EEE13rhsExpressionEv"
 "_ZNK5Eigen14TensorAssignOpINS_6TensorIdLi4ELi0ExEEKNS_20TensorCwiseNullaryOpINS_8internal18scalar_constant_opIdEEKS2_EEE13lhsExpressionEv"
 "_ZNK5Eigen14TensorAssignOpINS_6TensorIdLi4ELi0ExEEKNS_20TensorCwiseNullaryOpINS_8internal18scalar_constant_opIdEEKS2_EEE13rhsExpressionEv"
 "_ZNK5Eigen14TensorAssignOpINS_6TensorIdLi5ELi0ExEEKNS_20TensorCwiseNullaryOpINS_8internal18scalar_constant_opIdEEKS2_EEE13lhsExpressionEv"
 "_ZNK5Eigen14TensorAssignOpINS_6TensorIdLi5ELi0ExEEKNS_20TensorCwiseNullaryOpINS_8internal18scalar_constant_opIdEEKS2_EEE13rhsExpressionEv"
 "_ZNK5Eigen15TensorEvaluatorIKNS_14TensorAssignOpINS_15TensorFixedSizeIdNS_5SizesIJLx2EEEELi0ExEEKNS_20TensorCwiseNullaryOpINS_8internal18scalar_constant_opIdEEKS5_EEEENS_13DefaultDeviceEE10dimensionsEv"
 "_ZNK5Eigen15TensorEvaluatorIKNS_14TensorAssignOpINS_15TensorFixedSizeIdNS_5SizesIJLx3EEEELi0ExEEKNS_20TensorCwiseNullaryOpINS_8internal18scalar_constant_opIdEEKS5_EEEENS_13DefaultDeviceEE10dimensionsEv"
 "_ZNK5Eigen15TensorEvaluatorIKNS_14TensorAssignOpINS_15TensorFixedSizeIdNS_5SizesIJLx3ELx6ELx10ELx2EEEELi0ExEEKNS_20TensorCwiseNullaryOpINS_8internal18scalar_constant_opIdEEKS5_EEEENS_13DefaultDeviceEE10dimensionsEv"
 "_ZNK5Eigen15TensorEvaluatorIKNS_14TensorAssignOpINS_15TensorFixedSizeIdNS_5SizesIJLx3ELx6ELx10ELx2EEEELi0ExEEKNS_9TensorMapINS_6TensorIdLi4ELi0ExEELi0ENS_11MakePointerEEEEENS_13DefaultDeviceEE10dimensionsEv"
 "_ZNK5Eigen15TensorEvaluatorIKNS_14TensorAssignOpINS_15TensorFixedSizeIdNS_5SizesIJLx3ELx6ELx10ELx2EEEELi0ExEEKS5_EENS_13DefaultDeviceEE10dimensionsEv"
 "_ZNK5Eigen15TensorEvaluatorIKNS_14TensorAssignOpINS_15TensorFixedSizeIdNS_5SizesIJLx3ELx7ELx2EEEELi0ExEEKNS_20TensorCwiseNullaryOpINS_8internal18scalar_constant_opIdEEKS5_EEEENS_13DefaultDeviceEE10dimensionsEv"
 "_ZNK5Eigen15TensorEvaluatorIKNS_14TensorAssignOpINS_15TensorFixedSizeIdNS_5SizesIJLx3ELx7ELx5ELx2EEEELi0ExEEKNS_20TensorCwiseNullaryOpINS_8internal18scalar_constant_opIdEEKS5_EEEENS_13DefaultDeviceEE10dimensionsEv"
 "_ZNK5Eigen15TensorEvaluatorIKNS_14TensorAssignOpINS_15TensorFixedSizeIdNS_5SizesIJLx3ELx7ELx5ELx2EEEELi0ExEEKNS_9TensorMapINS_6TensorIdLi4ELi0ExEELi0ENS_11MakePointerEEEEENS_13DefaultDeviceEE10dimensionsEv"
 "_ZNK5Eigen15TensorEvaluatorIKNS_14TensorAssignOpINS_15TensorFixedSizeIdNS_5SizesIJLx3ELx7ELx5ELx2EEEELi0ExEEKS5_EENS_13DefaultDeviceEE10dimensionsEv"
 "_ZNK5Eigen15TensorEvaluatorIKNS_14TensorAssignOpINS_15TensorFixedSizeIdNS_5SizesIJLx3ELx7ELx66ELx2EEEELi0ExEEKNS_20TensorCwiseNullaryOpINS_8internal18scalar_constant_opIdEEKS5_EEEENS_13DefaultDeviceEE10dimensionsEv"
 "_ZNK5Eigen15TensorEvaluatorIKNS_14TensorAssignOpINS_15TensorFixedSizeIdNS_5SizesIJLx3ELx7ELx66ELx2EEEELi0ExEEKNS_9TensorMapINS_6TensorIdLi4ELi0ExEELi0ENS_11MakePointerEEEEENS_13DefaultDeviceEE10dimensionsEv"
 "_ZNK5Eigen15TensorEvaluatorIKNS_14TensorAssignOpINS_15TensorFixedSizeIdNS_5SizesIJLx3ELx7ELx66ELx2EEEELi0ExEEKS5_EENS_13DefaultDeviceEE10dimensionsEv"
 "_ZNK5Eigen15TensorEvaluatorIKNS_14TensorAssignOpINS_15TensorFixedSizeIdNS_5SizesIJLx3ELx7ELx9ELx2EEEELi0ExEEKNS_20TensorCwiseNullaryOpINS_8internal18scalar_constant_opIdEEKS5_EEEENS_13DefaultDeviceEE10dimensionsEv"
 "_ZNK5Eigen15TensorEvaluatorIKNS_14TensorAssignOpINS_15TensorFixedSizeIdNS_5SizesIJLx3ELx7ELx9ELx2EEEELi0ExEEKNS_9TensorMapINS_6TensorIdLi4ELi0ExEELi0ENS_11MakePointerEEEEENS_13DefaultDeviceEE10dimensionsEv"
 "_ZNK5Eigen15TensorEvaluatorIKNS_14TensorAssignOpINS_15TensorFixedSizeIdNS_5SizesIJLx3ELx7ELx9ELx2EEEELi0ExEEKS5_EENS_13DefaultDeviceEE10dimensionsEv"
 "_ZNK5Eigen15TensorEvaluatorIKNS_14TensorAssignOpINS_15TensorFixedSizeIdNS_5SizesIJLx4EEEELi0ExEEKNS_20TensorCwiseNullaryOpINS_8internal18scalar_constant_opIdEEKS5_EEEENS_13DefaultDeviceEE10dimensionsEv"
 "_ZNK5Eigen15TensorEvaluatorIKNS_14TensorAssignOpINS_15TensorFixedSizeIdNS_5SizesIJLx4EEEELi0ExEEKNS_9TensorMapINS_6TensorIdLi1ELi0ExEELi0ENS_11MakePointerEEEEENS_13DefaultDeviceEE10dimensionsEv"
 "_ZNK5Eigen15TensorEvaluatorIKNS_14TensorAssignOpINS_15TensorFixedSizeIdNS_5SizesIJLx4EEEELi0ExEEKS5_EENS_13DefaultDeviceEE10dimensionsEv"
 "_ZNK5Eigen15TensorEvaluatorIKNS_14TensorAssignOpINS_15TensorFixedSizeIdNS_5SizesIJLx4ELx5ELx2EEEELi0ExEEKNS_20TensorCwiseNullaryOpINS_8internal18scalar_constant_opIdEEKS5_EEEENS_13DefaultDeviceEE10dimensionsEv"
 "_ZNK5Eigen15TensorEvaluatorIKNS_14TensorAssignOpINS_15TensorFixedSizeIdNS_5SizesIJLx4ELx5ELx2EEEELi0ExEEKNS_9TensorMapINS_6TensorIdLi3ELi0ExEELi0ENS_11MakePointerEEEEENS_13DefaultDeviceEE10dimensionsEv"
 "_ZNK5Eigen15TensorEvaluatorIKNS_14TensorAssignOpINS_15TensorFixedSizeIdNS_5SizesIJLx4ELx5ELx2EEEELi0ExEEKS5_EENS_13DefaultDeviceEE10dimensionsEv"
 "_ZNK5Eigen15TensorEvaluatorIKNS_14TensorAssignOpINS_15TensorFixedSizeIdNS_5SizesIJLx66EEEELi0ExEEKNS_20TensorCwiseNullaryOpINS_8internal18scalar_constant_opIdEEKS5_EEEENS_13DefaultDeviceEE10dimensionsEv"
 "_ZNK5Eigen15TensorEvaluatorIKNS_14TensorAssignOpINS_15TensorFixedSizeIdNS_5SizesIJLx66ELx2EEEELi0ExEEKNS_20TensorCwiseNullaryOpINS_8internal18scalar_constant_opIdEEKS5_EEEENS_13DefaultDeviceEE10dimensionsEv"
 "_ZNK5Eigen15TensorEvaluatorIKNS_14TensorAssignOpINS_15TensorFixedSizeIdNS_5SizesIJLx6ELx4ELx10ELx2EEEELi0ExEEKNS_20TensorCwiseNullaryOpINS_8internal18scalar_constant_opIdEEKS5_EEEENS_13DefaultDeviceEE10dimensionsEv"
 "_ZNK5Eigen15TensorEvaluatorIKNS_14TensorAssignOpINS_15TensorFixedSizeIdNS_5SizesIJLx6ELx4ELx10ELx2EEEELi0ExEEKNS_9TensorMapINS_6TensorIdLi4ELi0ExEELi0ENS_11MakePointerEEEEENS_13DefaultDeviceEE10dimensionsEv"
 "_ZNK5Eigen15TensorEvaluatorIKNS_14TensorAssignOpINS_15TensorFixedSizeIdNS_5SizesIJLx6ELx4ELx10ELx2EEEELi0ExEEKS5_EENS_13DefaultDeviceEE10dimensionsEv"
 "_ZNK5Eigen15TensorEvaluatorIKNS_14TensorAssignOpINS_15TensorFixedSizeIdNS_5SizesIJLx6ELx4ELx5ELx2EEEELi0ExEEKNS_20TensorCwiseNullaryOpINS_8internal18scalar_constant_opIdEEKS5_EEEENS_13DefaultDeviceEE10dimensionsEv"
 "_ZNK5Eigen15TensorEvaluatorIKNS_14TensorAssignOpINS_15TensorFixedSizeIdNS_5SizesIJLx6ELx4ELx5ELx2EEEELi0ExEEKNS_9TensorMapINS_6TensorIdLi4ELi0ExEELi0ENS_11MakePointerEEEEENS_13DefaultDeviceEE10dimensionsEv"
 "_ZNK5Eigen15TensorEvaluatorIKNS_14TensorAssignOpINS_15TensorFixedSizeIdNS_5SizesIJLx6ELx4ELx5ELx2EEEELi0ExEEKS5_EENS_13DefaultDeviceEE10dimensionsEv"
 "_ZNK5Eigen15TensorEvaluatorIKNS_14TensorAssignOpINS_15TensorFixedSizeIdNS_5SizesIJLx7EEEELi0ExEEKNS_20TensorCwiseNullaryOpINS_8internal18scalar_constant_opIdEEKS5_EEEENS_13DefaultDeviceEE10dimensionsEv"
 "_ZNK5Eigen15TensorEvaluatorIKNS_14TensorAssignOpINS_15TensorFixedSizeIdNS_5SizesIJLx7ELx15ELx2EEEELi0ExEEKNS_20TensorCwiseNullaryOpINS_8internal18scalar_constant_opIdEEKS5_EEEENS_13DefaultDeviceEE10dimensionsEv"
 "_ZNK5Eigen15TensorEvaluatorIKNS_14TensorAssignOpINS_15TensorFixedSizeIdNS_5SizesIJLx7ELx2EEEELi0ExEEKNS_20TensorCwiseNullaryOpINS_8internal18scalar_constant_opIdEEKS5_EEEENS_13DefaultDeviceEE10dimensionsEv"
 "_ZNK5Eigen15TensorEvaluatorIKNS_14TensorAssignOpINS_15TensorFixedSizeIdNS_5SizesIJLx7ELx4ELx15ELx2EEEELi0ExEEKNS_20TensorCwiseNullaryOpINS_8internal18scalar_constant_opIdEEKS5_EEEENS_13DefaultDeviceEE10dimensionsEv"
 "_ZNK5Eigen15TensorEvaluatorIKNS_14TensorAssignOpINS_15TensorFixedSizeIdNS_5SizesIJLx7ELx4ELx15ELx2EEEELi0ExEEKNS_9TensorMapINS_6TensorIdLi4ELi0ExEELi0ENS_11MakePointerEEEEENS_13DefaultDeviceEE10dimensionsEv"
 "_ZNK5Eigen15TensorEvaluatorIKNS_14TensorAssignOpINS_15TensorFixedSizeIdNS_5SizesIJLx7ELx4ELx15ELx2EEEELi0ExEEKS5_EENS_13DefaultDeviceEE10dimensionsEv"
 "_ZNK5Eigen15TensorEvaluatorIKNS_14TensorAssignOpINS_15TensorFixedSizeIdNS_5SizesIJLx7ELx4ELx5ELx2EEEELi0ExEEKNS_20TensorCwiseNullaryOpINS_8internal18scalar_constant_opIdEEKS5_EEEENS_13DefaultDeviceEE10dimensionsEv"
 "_ZNK5Eigen15TensorEvaluatorIKNS_14TensorAssignOpINS_15TensorFixedSizeIdNS_5SizesIJLx7ELx4ELx5ELx2EEEELi0ExEEKNS_9TensorMapINS_6TensorIdLi4ELi0ExEELi0ENS_11MakePointerEEEEENS_13DefaultDeviceEE10dimensionsEv"
 "_ZNK5Eigen15TensorEvaluatorIKNS_14TensorAssignOpINS_15TensorFixedSizeIdNS_5SizesIJLx7ELx4ELx5ELx2EEEELi0ExEEKS5_EENS_13DefaultDeviceEE10dimensionsEv"
 "_ZNK5Eigen15TensorEvaluatorIKNS_14TensorAssignOpINS_15TensorFixedSizeIdNS_5SizesIJLx7ELx4ELx66ELx2EEEELi0ExEEKNS_20TensorCwiseNullaryOpINS_8internal18scalar_constant_opIdEEKS5_EEEENS_13DefaultDeviceEE10dimensionsEv"
 "_ZNK5Eigen15TensorEvaluatorIKNS_14TensorAssignOpINS_15TensorFixedSizeIdNS_5SizesIJLx7ELx66EEEELi0ExEEKNS_20TensorCwiseNullaryOpINS_8internal18scalar_constant_opIdEEKS5_EEEENS_13DefaultDeviceEE10dimensionsEv"
 "_ZNK5Eigen15TensorEvaluatorIKNS_14TensorAssignOpINS_15TensorFixedSizeIdNS_5SizesIJLx7ELx66ELx2EEEELi0ExEEKNS_20TensorCwiseNullaryOpINS_8internal18scalar_constant_opIdEEKS5_EEEENS_13DefaultDeviceEE10dimensionsEv"
 "_ZNK5Eigen15TensorEvaluatorIKNS_14TensorAssignOpINS_15TensorFixedSizeIdNS_5SizesIJLx7ELx66ELx2EEEELi0ExEEKNS_9TensorMapINS_6TensorIdLi3ELi0ExEELi0ENS_11MakePointerEEEEENS_13DefaultDeviceEE10dimensionsEv"
 "_ZNK5Eigen15TensorEvaluatorIKNS_14TensorAssignOpINS_15TensorFixedSizeIdNS_5SizesIJLx7ELx66ELx2EEEELi0ExEEKS5_EENS_13DefaultDeviceEE10dimensionsEv"
 "_ZNK5Eigen15TensorEvaluatorIKNS_14TensorAssignOpINS_15TensorFixedSizeIdNS_5SizesIJLx7ELx9EEEELi0ExEEKNS_20TensorCwiseNullaryOpINS_8internal18scalar_constant_opIdEEKS5_EEEENS_13DefaultDeviceEE10dimensionsEv"
 "_ZNK5Eigen15TensorEvaluatorIKNS_14TensorAssignOpINS_15TensorFixedSizeIdNS_5SizesIJLx7ELx9ELx2EEEELi0ExEEKNS_20TensorCwiseNullaryOpINS_8internal18scalar_constant_opIdEEKS5_EEEENS_13DefaultDeviceEE10dimensionsEv"
 "_ZNK5Eigen15TensorEvaluatorIKNS_14TensorAssignOpINS_15TensorFixedSizeIdNS_5SizesIJLx7ELx9ELx2EEEELi0ExEEKNS_9TensorMapINS_6TensorIdLi3ELi0ExEELi0ENS_11MakePointerEEEEENS_13DefaultDeviceEE10dimensionsEv"
 "_ZNK5Eigen15TensorEvaluatorIKNS_14TensorAssignOpINS_15TensorFixedSizeIdNS_5SizesIJLx7ELx9ELx2EEEELi0ExEEKS5_EENS_13DefaultDeviceEE10dimensionsEv"
 "_ZNK5Eigen15TensorEvaluatorIKNS_14TensorAssignOpINS_15TensorFixedSizeIdNS_5SizesIJLx81EEEELi0ExEEKNS_20TensorCwiseNullaryOpINS_8internal18scalar_constant_opIdEEKS5_EEEENS_13DefaultDeviceEE10dimensionsEv"
 "_ZNK5Eigen15TensorEvaluatorIKNS_14TensorAssignOpINS_15TensorFixedSizeIdNS_5SizesIJLx81ELx2EEEELi0ExEEKNS_20TensorCwiseNullaryOpINS_8internal18scalar_constant_opIdEEKS5_EEEENS_13DefaultDeviceEE10dimensionsEv"
 "_ZNK5Eigen15TensorEvaluatorIKNS_14TensorAssignOpINS_15TensorFixedSizeIdNS_5SizesIJLx81ELx2EEEELi0ExEEKNS_9TensorMapINS_6TensorIdLi2ELi0ExEELi0ENS_11MakePointerEEEEENS_13DefaultDeviceEE10dimensionsEv"
 "_ZNK5Eigen15TensorEvaluatorIKNS_14TensorAssignOpINS_15TensorFixedSizeIdNS_5SizesIJLx81ELx2EEEELi0ExEEKS5_EENS_13DefaultDeviceEE10dimensionsEv"
 "_ZNK5Eigen15TensorEvaluatorIKNS_14TensorAssignOpINS_15TensorFixedSizeIdNS_5SizesIJLx9EEEELi0ExEEKNS_20TensorCwiseNullaryOpINS_8internal18scalar_constant_opIdEEKS5_EEEENS_13DefaultDeviceEE10dimensionsEv"
 "_ZNK5Eigen15TensorEvaluatorIKNS_14TensorAssignOpINS_15TensorFixedSizeIdNS_5SizesIJLx9ELx2EEEELi0ExEEKNS_20TensorCwiseNullaryOpINS_8internal18scalar_constant_opIdEEKS5_EEEENS_13DefaultDeviceEE10dimensionsEv"
 "_ZNK5Eigen15TensorEvaluatorIKNS_14TensorAssignOpINS_16TensorChippingOpILxn1ENS_6TensorIdLi2ELi0ExEEEEKNS_15TensorFixedSizeIdNS_5SizesIJLx4EEEELi0ExEEEENS_13DefaultDeviceEE10dimensionsEv"
 "_ZNK5Eigen15TensorEvaluatorIKNS_14TensorAssignOpINS_16TensorChippingOpILxn1ENS_6TensorIdLi3ELi0ExEEEEKNS_15TensorFixedSizeIdNS_5SizesIJLx81ELx2EEEELi0ExEEEENS_13DefaultDeviceEE10dimensionsEv"
 "_ZNK5Eigen15TensorEvaluatorIKNS_14TensorAssignOpINS_16TensorChippingOpILxn1ENS_6TensorIdLi4ELi0ExEEEEKNS_15TensorFixedSizeIdNS_5SizesIJLx4ELx5ELx2EEEELi0ExEEEENS_13DefaultDeviceEE10dimensionsEv"
 "_ZNK5Eigen15TensorEvaluatorIKNS_14TensorAssignOpINS_16TensorChippingOpILxn1ENS_6TensorIdLi4ELi0ExEEEEKNS_15TensorFixedSizeIdNS_5SizesIJLx7ELx66ELx2EEEELi0ExEEEENS_13DefaultDeviceEE10dimensionsEv"
 "_ZNK5Eigen15TensorEvaluatorIKNS_14TensorAssignOpINS_16TensorChippingOpILxn1ENS_6TensorIdLi4ELi0ExEEEEKNS_15TensorFixedSizeIdNS_5SizesIJLx7ELx9ELx2EEEELi0ExEEEENS_13DefaultDeviceEE10dimensionsEv"
 "_ZNK5Eigen15TensorEvaluatorIKNS_14TensorAssignOpINS_16TensorChippingOpILxn1ENS_6TensorIdLi5ELi0ExEEEEKNS_15TensorFixedSizeIdNS_5SizesIJLx3ELx6ELx10ELx2EEEELi0ExEEEENS_13DefaultDeviceEE10dimensionsEv"
 "_ZNK5Eigen15TensorEvaluatorIKNS_14TensorAssignOpINS_16TensorChippingOpILxn1ENS_6TensorIdLi5ELi0ExEEEEKNS_15TensorFixedSizeIdNS_5SizesIJLx3ELx7ELx5ELx2EEEELi0ExEEEENS_13DefaultDeviceEE10dimensionsEv"
 "_ZNK5Eigen15TensorEvaluatorIKNS_14TensorAssignOpINS_16TensorChippingOpILxn1ENS_6TensorIdLi5ELi0ExEEEEKNS_15TensorFixedSizeIdNS_5SizesIJLx3ELx7ELx66ELx2EEEELi0ExEEEENS_13DefaultDeviceEE10dimensionsEv"
 "_ZNK5Eigen15TensorEvaluatorIKNS_14TensorAssignOpINS_16TensorChippingOpILxn1ENS_6TensorIdLi5ELi0ExEEEEKNS_15TensorFixedSizeIdNS_5SizesIJLx3ELx7ELx9ELx2EEEELi0ExEEEENS_13DefaultDeviceEE10dimensionsEv"
 "_ZNK5Eigen15TensorEvaluatorIKNS_14TensorAssignOpINS_16TensorChippingOpILxn1ENS_6TensorIdLi5ELi0ExEEEEKNS_15TensorFixedSizeIdNS_5SizesIJLx6ELx4ELx10ELx2EEEELi0ExEEEENS_13DefaultDeviceEE10dimensionsEv"
 "_ZNK5Eigen15TensorEvaluatorIKNS_14TensorAssignOpINS_16TensorChippingOpILxn1ENS_6TensorIdLi5ELi0ExEEEEKNS_15TensorFixedSizeIdNS_5SizesIJLx6ELx4ELx5ELx2EEEELi0ExEEEENS_13DefaultDeviceEE10dimensionsEv"
 "_ZNK5Eigen15TensorEvaluatorIKNS_14TensorAssignOpINS_16TensorChippingOpILxn1ENS_6TensorIdLi5ELi0ExEEEEKNS_15TensorFixedSizeIdNS_5SizesIJLx7ELx4ELx15ELx2EEEELi0ExEEEENS_13DefaultDeviceEE10dimensionsEv"
 "_ZNK5Eigen15TensorEvaluatorIKNS_14TensorAssignOpINS_16TensorChippingOpILxn1ENS_6TensorIdLi5ELi0ExEEEEKNS_15TensorFixedSizeIdNS_5SizesIJLx7ELx4ELx5ELx2EEEELi0ExEEEENS_13DefaultDeviceEE10dimensionsEv"
 "_ZNK5Eigen15TensorEvaluatorIKNS_14TensorAssignOpINS_6TensorIdLi1ELi0ExEEKNS_20TensorCwiseNullaryOpINS_8internal18scalar_constant_opIdEEKS3_EEEENS_13DefaultDeviceEE10dimensionsEv"
 "_ZNK5Eigen15TensorEvaluatorIKNS_14TensorAssignOpINS_6TensorIdLi2ELi0ExEEKNS_20TensorCwiseNullaryOpINS_8internal18scalar_constant_opIdEEKS3_EEEENS_13DefaultDeviceEE10dimensionsEv"
 "_ZNK5Eigen15TensorEvaluatorIKNS_14TensorAssignOpINS_6TensorIdLi3ELi0ExEEKNS_20TensorCwiseNullaryOpINS_8internal18scalar_constant_opIdEEKS3_EEEENS_13DefaultDeviceEE10dimensionsEv"
 "_ZNK5Eigen15TensorEvaluatorIKNS_14TensorAssignOpINS_6TensorIdLi4ELi0ExEEKNS_20TensorCwiseNullaryOpINS_8internal18scalar_constant_opIdEEKS3_EEEENS_13DefaultDeviceEE10dimensionsEv"
 "_ZNK5Eigen15TensorEvaluatorIKNS_14TensorAssignOpINS_6TensorIdLi5ELi0ExEEKNS_20TensorCwiseNullaryOpINS_8internal18scalar_constant_opIdEEKS3_EEEENS_13DefaultDeviceEE10dimensionsEv"
 "_ZNK5Eigen15TensorEvaluatorIKNS_15TensorFixedSizeIdNS_5SizesIJLx2EEEELi0ExEENS_13DefaultDeviceEE10dimensionsEv"
 "_ZNK5Eigen15TensorEvaluatorIKNS_15TensorFixedSizeIdNS_5SizesIJLx3EEEELi0ExEENS_13DefaultDeviceEE10dimensionsEv"
 "_ZNK5Eigen15TensorEvaluatorIKNS_15TensorFixedSizeIdNS_5SizesIJLx3ELx6ELx10ELx2EEEELi0ExEENS_13DefaultDeviceEE10dimensionsEv"
 "_ZNK5Eigen15TensorEvaluatorIKNS_15TensorFixedSizeIdNS_5SizesIJLx3ELx6ELx10ELx2EEEELi0ExEENS_13DefaultDeviceEE5coeffEx"
 "_ZNK5Eigen15TensorEvaluatorIKNS_15TensorFixedSizeIdNS_5SizesIJLx3ELx6ELx10ELx2EEEELi0ExEENS_13DefaultDeviceEE6packetILi16EEEDv2_dx"
 "_ZNK5Eigen15TensorEvaluatorIKNS_15TensorFixedSizeIdNS_5SizesIJLx3ELx7ELx2EEEELi0ExEENS_13DefaultDeviceEE10dimensionsEv"
 "_ZNK5Eigen15TensorEvaluatorIKNS_15TensorFixedSizeIdNS_5SizesIJLx3ELx7ELx5ELx2EEEELi0ExEENS_13DefaultDeviceEE10dimensionsEv"
 "_ZNK5Eigen15TensorEvaluatorIKNS_15TensorFixedSizeIdNS_5SizesIJLx3ELx7ELx5ELx2EEEELi0ExEENS_13DefaultDeviceEE5coeffEx"
 "_ZNK5Eigen15TensorEvaluatorIKNS_15TensorFixedSizeIdNS_5SizesIJLx3ELx7ELx5ELx2EEEELi0ExEENS_13DefaultDeviceEE6packetILi16EEEDv2_dx"
 "_ZNK5Eigen15TensorEvaluatorIKNS_15TensorFixedSizeIdNS_5SizesIJLx3ELx7ELx66ELx2EEEELi0ExEENS_13DefaultDeviceEE10dimensionsEv"
 "_ZNK5Eigen15TensorEvaluatorIKNS_15TensorFixedSizeIdNS_5SizesIJLx3ELx7ELx66ELx2EEEELi0ExEENS_13DefaultDeviceEE5coeffEx"
 "_ZNK5Eigen15TensorEvaluatorIKNS_15TensorFixedSizeIdNS_5SizesIJLx3ELx7ELx66ELx2EEEELi0ExEENS_13DefaultDeviceEE6packetILi16EEEDv2_dx"
 "_ZNK5Eigen15TensorEvaluatorIKNS_15TensorFixedSizeIdNS_5SizesIJLx3ELx7ELx9ELx2EEEELi0ExEENS_13DefaultDeviceEE10dimensionsEv"
 "_ZNK5Eigen15TensorEvaluatorIKNS_15TensorFixedSizeIdNS_5SizesIJLx3ELx7ELx9ELx2EEEELi0ExEENS_13DefaultDeviceEE5coeffEx"
 "_ZNK5Eigen15TensorEvaluatorIKNS_15TensorFixedSizeIdNS_5SizesIJLx3ELx7ELx9ELx2EEEELi0ExEENS_13DefaultDeviceEE6packetILi16EEEDv2_dx"
 "_ZNK5Eigen15TensorEvaluatorIKNS_15TensorFixedSizeIdNS_5SizesIJLx4EEEELi0ExEENS_13DefaultDeviceEE10dimensionsEv"
 "_ZNK5Eigen15TensorEvaluatorIKNS_15TensorFixedSizeIdNS_5SizesIJLx4EEEELi0ExEENS_13DefaultDeviceEE5coeffEx"
 "_ZNK5Eigen15TensorEvaluatorIKNS_15TensorFixedSizeIdNS_5SizesIJLx4EEEELi0ExEENS_13DefaultDeviceEE6packetILi16EEEDv2_dx"
 "_ZNK5Eigen15TensorEvaluatorIKNS_15TensorFixedSizeIdNS_5SizesIJLx4ELx5ELx2EEEELi0ExEENS_13DefaultDeviceEE10dimensionsEv"
 "_ZNK5Eigen15TensorEvaluatorIKNS_15TensorFixedSizeIdNS_5SizesIJLx4ELx5ELx2EEEELi0ExEENS_13DefaultDeviceEE5coeffEx"
 "_ZNK5Eigen15TensorEvaluatorIKNS_15TensorFixedSizeIdNS_5SizesIJLx4ELx5ELx2EEEELi0ExEENS_13DefaultDeviceEE6packetILi16EEEDv2_dx"
 "_ZNK5Eigen15TensorEvaluatorIKNS_15TensorFixedSizeIdNS_5SizesIJLx66EEEELi0ExEENS_13DefaultDeviceEE10dimensionsEv"
 "_ZNK5Eigen15TensorEvaluatorIKNS_15TensorFixedSizeIdNS_5SizesIJLx66ELx2EEEELi0ExEENS_13DefaultDeviceEE10dimensionsEv"
 "_ZNK5Eigen15TensorEvaluatorIKNS_15TensorFixedSizeIdNS_5SizesIJLx6ELx4ELx10ELx2EEEELi0ExEENS_13DefaultDeviceEE10dimensionsEv"
 "_ZNK5Eigen15TensorEvaluatorIKNS_15TensorFixedSizeIdNS_5SizesIJLx6ELx4ELx10ELx2EEEELi0ExEENS_13DefaultDeviceEE5coeffEx"
 "_ZNK5Eigen15TensorEvaluatorIKNS_15TensorFixedSizeIdNS_5SizesIJLx6ELx4ELx10ELx2EEEELi0ExEENS_13DefaultDeviceEE6packetILi16EEEDv2_dx"
 "_ZNK5Eigen15TensorEvaluatorIKNS_15TensorFixedSizeIdNS_5SizesIJLx6ELx4ELx5ELx2EEEELi0ExEENS_13DefaultDeviceEE10dimensionsEv"
 "_ZNK5Eigen15TensorEvaluatorIKNS_15TensorFixedSizeIdNS_5SizesIJLx6ELx4ELx5ELx2EEEELi0ExEENS_13DefaultDeviceEE5coeffEx"
 "_ZNK5Eigen15TensorEvaluatorIKNS_15TensorFixedSizeIdNS_5SizesIJLx6ELx4ELx5ELx2EEEELi0ExEENS_13DefaultDeviceEE6packetILi16EEEDv2_dx"
 "_ZNK5Eigen15TensorEvaluatorIKNS_15TensorFixedSizeIdNS_5SizesIJLx7EEEELi0ExEENS_13DefaultDeviceEE10dimensionsEv"
 "_ZNK5Eigen15TensorEvaluatorIKNS_15TensorFixedSizeIdNS_5SizesIJLx7ELx15ELx2EEEELi0ExEENS_13DefaultDeviceEE10dimensionsEv"
 "_ZNK5Eigen15TensorEvaluatorIKNS_15TensorFixedSizeIdNS_5SizesIJLx7ELx2EEEELi0ExEENS_13DefaultDeviceEE10dimensionsEv"
 "_ZNK5Eigen15TensorEvaluatorIKNS_15TensorFixedSizeIdNS_5SizesIJLx7ELx4ELx15ELx2EEEELi0ExEENS_13DefaultDeviceEE10dimensionsEv"
 "_ZNK5Eigen15TensorEvaluatorIKNS_15TensorFixedSizeIdNS_5SizesIJLx7ELx4ELx15ELx2EEEELi0ExEENS_13DefaultDeviceEE5coeffEx"
 "_ZNK5Eigen15TensorEvaluatorIKNS_15TensorFixedSizeIdNS_5SizesIJLx7ELx4ELx15ELx2EEEELi0ExEENS_13DefaultDeviceEE6packetILi16EEEDv2_dx"
 "_ZNK5Eigen15TensorEvaluatorIKNS_15TensorFixedSizeIdNS_5SizesIJLx7ELx4ELx5ELx2EEEELi0ExEENS_13DefaultDeviceEE10dimensionsEv"
 "_ZNK5Eigen15TensorEvaluatorIKNS_15TensorFixedSizeIdNS_5SizesIJLx7ELx4ELx5ELx2EEEELi0ExEENS_13DefaultDeviceEE5coeffEx"
 "_ZNK5Eigen15TensorEvaluatorIKNS_15TensorFixedSizeIdNS_5SizesIJLx7ELx4ELx5ELx2EEEELi0ExEENS_13DefaultDeviceEE6packetILi16EEEDv2_dx"
 "_ZNK5Eigen15TensorEvaluatorIKNS_15TensorFixedSizeIdNS_5SizesIJLx7ELx4ELx66ELx2EEEELi0ExEENS_13DefaultDeviceEE10dimensionsEv"
 "_ZNK5Eigen15TensorEvaluatorIKNS_15TensorFixedSizeIdNS_5SizesIJLx7ELx66EEEELi0ExEENS_13DefaultDeviceEE10dimensionsEv"
 "_ZNK5Eigen15TensorEvaluatorIKNS_15TensorFixedSizeIdNS_5SizesIJLx7ELx66ELx2EEEELi0ExEENS_13DefaultDeviceEE10dimensionsEv"
 "_ZNK5Eigen15TensorEvaluatorIKNS_15TensorFixedSizeIdNS_5SizesIJLx7ELx66ELx2EEEELi0ExEENS_13DefaultDeviceEE5coeffEx"
 "_ZNK5Eigen15TensorEvaluatorIKNS_15TensorFixedSizeIdNS_5SizesIJLx7ELx66ELx2EEEELi0ExEENS_13DefaultDeviceEE6packetILi16EEEDv2_dx"
 "_ZNK5Eigen15TensorEvaluatorIKNS_15TensorFixedSizeIdNS_5SizesIJLx7ELx9EEEELi0ExEENS_13DefaultDeviceEE10dimensionsEv"
 "_ZNK5Eigen15TensorEvaluatorIKNS_15TensorFixedSizeIdNS_5SizesIJLx7ELx9ELx2EEEELi0ExEENS_13DefaultDeviceEE10dimensionsEv"
 "_ZNK5Eigen15TensorEvaluatorIKNS_15TensorFixedSizeIdNS_5SizesIJLx7ELx9ELx2EEEELi0ExEENS_13DefaultDeviceEE5coeffEx"
 "_ZNK5Eigen15TensorEvaluatorIKNS_15TensorFixedSizeIdNS_5SizesIJLx7ELx9ELx2EEEELi0ExEENS_13DefaultDeviceEE6packetILi16EEEDv2_dx"
 "_ZNK5Eigen15TensorEvaluatorIKNS_15TensorFixedSizeIdNS_5SizesIJLx81EEEELi0ExEENS_13DefaultDeviceEE10dimensionsEv"
 "_ZNK5Eigen15TensorEvaluatorIKNS_15TensorFixedSizeIdNS_5SizesIJLx81ELx2EEEELi0ExEENS_13DefaultDeviceEE10dimensionsEv"
 "_ZNK5Eigen15TensorEvaluatorIKNS_15TensorFixedSizeIdNS_5SizesIJLx81ELx2EEEELi0ExEENS_13DefaultDeviceEE5coeffEx"
 "_ZNK5Eigen15TensorEvaluatorIKNS_15TensorFixedSizeIdNS_5SizesIJLx81ELx2EEEELi0ExEENS_13DefaultDeviceEE6packetILi16EEEDv2_dx"
 "_ZNK5Eigen15TensorEvaluatorIKNS_15TensorFixedSizeIdNS_5SizesIJLx9EEEELi0ExEENS_13DefaultDeviceEE10dimensionsEv"
 "_ZNK5Eigen15TensorEvaluatorIKNS_15TensorFixedSizeIdNS_5SizesIJLx9ELx2EEEELi0ExEENS_13DefaultDeviceEE10dimensionsEv"
 "_ZNK5Eigen15TensorEvaluatorIKNS_16TensorChippingOpILxn1ENS_6TensorIdLi2ELi0ExEEEENS_13DefaultDeviceEE10dimensionsEv"
 "_ZNK5Eigen15TensorEvaluatorIKNS_16TensorChippingOpILxn1ENS_6TensorIdLi2ELi0ExEEEENS_13DefaultDeviceEE4dataEv"
 "_ZNK5Eigen15TensorEvaluatorIKNS_16TensorChippingOpILxn1ENS_6TensorIdLi2ELi0ExEEEENS_13DefaultDeviceEE8srcCoeffEx"
 "_ZNK5Eigen15TensorEvaluatorIKNS_16TensorChippingOpILxn1ENS_6TensorIdLi3ELi0ExEEEENS_13DefaultDeviceEE10dimensionsEv"
 "_ZNK5Eigen15TensorEvaluatorIKNS_16TensorChippingOpILxn1ENS_6TensorIdLi3ELi0ExEEEENS_13DefaultDeviceEE4dataEv"
 "_ZNK5Eigen15TensorEvaluatorIKNS_16TensorChippingOpILxn1ENS_6TensorIdLi3ELi0ExEEEENS_13DefaultDeviceEE8srcCoeffEx"
 "_ZNK5Eigen15TensorEvaluatorIKNS_16TensorChippingOpILxn1ENS_6TensorIdLi4ELi0ExEEEENS_13DefaultDeviceEE10dimensionsEv"
 "_ZNK5Eigen15TensorEvaluatorIKNS_16TensorChippingOpILxn1ENS_6TensorIdLi4ELi0ExEEEENS_13DefaultDeviceEE4dataEv"
 "_ZNK5Eigen15TensorEvaluatorIKNS_16TensorChippingOpILxn1ENS_6TensorIdLi4ELi0ExEEEENS_13DefaultDeviceEE8srcCoeffEx"
 "_ZNK5Eigen15TensorEvaluatorIKNS_16TensorChippingOpILxn1ENS_6TensorIdLi5ELi0ExEEEENS_13DefaultDeviceEE10dimensionsEv"
 "_ZNK5Eigen15TensorEvaluatorIKNS_16TensorChippingOpILxn1ENS_6TensorIdLi5ELi0ExEEEENS_13DefaultDeviceEE4dataEv"
 "_ZNK5Eigen15TensorEvaluatorIKNS_16TensorChippingOpILxn1ENS_6TensorIdLi5ELi0ExEEEENS_13DefaultDeviceEE8srcCoeffEx"
 "_ZNK5Eigen15TensorEvaluatorIKNS_20TensorCwiseNullaryOpINS_8internal18scalar_constant_opIdEEKNS_15TensorFixedSizeIdNS_5SizesIJLx2EEEELi0ExEEEENS_13DefaultDeviceEE10dimensionsEv"
 "_ZNK5Eigen15TensorEvaluatorIKNS_20TensorCwiseNullaryOpINS_8internal18scalar_constant_opIdEEKNS_15TensorFixedSizeIdNS_5SizesIJLx2EEEELi0ExEEEENS_13DefaultDeviceEE5coeffEx"
 "_ZNK5Eigen15TensorEvaluatorIKNS_20TensorCwiseNullaryOpINS_8internal18scalar_constant_opIdEEKNS_15TensorFixedSizeIdNS_5SizesIJLx2EEEELi0ExEEEENS_13DefaultDeviceEE6packetILi16EEEDv2_dx"
 "_ZNK5Eigen15TensorEvaluatorIKNS_20TensorCwiseNullaryOpINS_8internal18scalar_constant_opIdEEKNS_15TensorFixedSizeIdNS_5SizesIJLx3EEEELi0ExEEEENS_13DefaultDeviceEE10dimensionsEv"
 "_ZNK5Eigen15TensorEvaluatorIKNS_20TensorCwiseNullaryOpINS_8internal18scalar_constant_opIdEEKNS_15TensorFixedSizeIdNS_5SizesIJLx3EEEELi0ExEEEENS_13DefaultDeviceEE5coeffEx"
 "_ZNK5Eigen15TensorEvaluatorIKNS_20TensorCwiseNullaryOpINS_8internal18scalar_constant_opIdEEKNS_15TensorFixedSizeIdNS_5SizesIJLx3EEEELi0ExEEEENS_13DefaultDeviceEE6packetILi16EEEDv2_dx"
 "_ZNK5Eigen15TensorEvaluatorIKNS_20TensorCwiseNullaryOpINS_8internal18scalar_constant_opIdEEKNS_15TensorFixedSizeIdNS_5SizesIJLx3ELx6ELx10ELx2EEEELi0ExEEEENS_13DefaultDeviceEE10dimensionsEv"
 "_ZNK5Eigen15TensorEvaluatorIKNS_20TensorCwiseNullaryOpINS_8internal18scalar_constant_opIdEEKNS_15TensorFixedSizeIdNS_5SizesIJLx3ELx6ELx10ELx2EEEELi0ExEEEENS_13DefaultDeviceEE5coeffEx"
 "_ZNK5Eigen15TensorEvaluatorIKNS_20TensorCwiseNullaryOpINS_8internal18scalar_constant_opIdEEKNS_15TensorFixedSizeIdNS_5SizesIJLx3ELx6ELx10ELx2EEEELi0ExEEEENS_13DefaultDeviceEE6packetILi16EEEDv2_dx"
 "_ZNK5Eigen15TensorEvaluatorIKNS_20TensorCwiseNullaryOpINS_8internal18scalar_constant_opIdEEKNS_15TensorFixedSizeIdNS_5SizesIJLx3ELx7ELx2EEEELi0ExEEEENS_13DefaultDeviceEE10dimensionsEv"
 "_ZNK5Eigen15TensorEvaluatorIKNS_20TensorCwiseNullaryOpINS_8internal18scalar_constant_opIdEEKNS_15TensorFixedSizeIdNS_5SizesIJLx3ELx7ELx2EEEELi0ExEEEENS_13DefaultDeviceEE5coeffEx"
 "_ZNK5Eigen15TensorEvaluatorIKNS_20TensorCwiseNullaryOpINS_8internal18scalar_constant_opIdEEKNS_15TensorFixedSizeIdNS_5SizesIJLx3ELx7ELx2EEEELi0ExEEEENS_13DefaultDeviceEE6packetILi16EEEDv2_dx"
 "_ZNK5Eigen15TensorEvaluatorIKNS_20TensorCwiseNullaryOpINS_8internal18scalar_constant_opIdEEKNS_15TensorFixedSizeIdNS_5SizesIJLx3ELx7ELx5ELx2EEEELi0ExEEEENS_13DefaultDeviceEE10dimensionsEv"
 "_ZNK5Eigen15TensorEvaluatorIKNS_20TensorCwiseNullaryOpINS_8internal18scalar_constant_opIdEEKNS_15TensorFixedSizeIdNS_5SizesIJLx3ELx7ELx5ELx2EEEELi0ExEEEENS_13DefaultDeviceEE5coeffEx"
 "_ZNK5Eigen15TensorEvaluatorIKNS_20TensorCwiseNullaryOpINS_8internal18scalar_constant_opIdEEKNS_15TensorFixedSizeIdNS_5SizesIJLx3ELx7ELx5ELx2EEEELi0ExEEEENS_13DefaultDeviceEE6packetILi16EEEDv2_dx"
 "_ZNK5Eigen15TensorEvaluatorIKNS_20TensorCwiseNullaryOpINS_8internal18scalar_constant_opIdEEKNS_15TensorFixedSizeIdNS_5SizesIJLx3ELx7ELx66ELx2EEEELi0ExEEEENS_13DefaultDeviceEE10dimensionsEv"
 "_ZNK5Eigen15TensorEvaluatorIKNS_20TensorCwiseNullaryOpINS_8internal18scalar_constant_opIdEEKNS_15TensorFixedSizeIdNS_5SizesIJLx3ELx7ELx66ELx2EEEELi0ExEEEENS_13DefaultDeviceEE5coeffEx"
 "_ZNK5Eigen15TensorEvaluatorIKNS_20TensorCwiseNullaryOpINS_8internal18scalar_constant_opIdEEKNS_15TensorFixedSizeIdNS_5SizesIJLx3ELx7ELx66ELx2EEEELi0ExEEEENS_13DefaultDeviceEE6packetILi16EEEDv2_dx"
 "_ZNK5Eigen15TensorEvaluatorIKNS_20TensorCwiseNullaryOpINS_8internal18scalar_constant_opIdEEKNS_15TensorFixedSizeIdNS_5SizesIJLx3ELx7ELx9ELx2EEEELi0ExEEEENS_13DefaultDeviceEE10dimensionsEv"
 "_ZNK5Eigen15TensorEvaluatorIKNS_20TensorCwiseNullaryOpINS_8internal18scalar_constant_opIdEEKNS_15TensorFixedSizeIdNS_5SizesIJLx3ELx7ELx9ELx2EEEELi0ExEEEENS_13DefaultDeviceEE5coeffEx"
 "_ZNK5Eigen15TensorEvaluatorIKNS_20TensorCwiseNullaryOpINS_8internal18scalar_constant_opIdEEKNS_15TensorFixedSizeIdNS_5SizesIJLx3ELx7ELx9ELx2EEEELi0ExEEEENS_13DefaultDeviceEE6packetILi16EEEDv2_dx"
 "_ZNK5Eigen15TensorEvaluatorIKNS_20TensorCwiseNullaryOpINS_8internal18scalar_constant_opIdEEKNS_15TensorFixedSizeIdNS_5SizesIJLx4EEEELi0ExEEEENS_13DefaultDeviceEE10dimensionsEv"
 "_ZNK5Eigen15TensorEvaluatorIKNS_20TensorCwiseNullaryOpINS_8internal18scalar_constant_opIdEEKNS_15TensorFixedSizeIdNS_5SizesIJLx4EEEELi0ExEEEENS_13DefaultDeviceEE5coeffEx"
 "_ZNK5Eigen15TensorEvaluatorIKNS_20TensorCwiseNullaryOpINS_8internal18scalar_constant_opIdEEKNS_15TensorFixedSizeIdNS_5SizesIJLx4EEEELi0ExEEEENS_13DefaultDeviceEE6packetILi16EEEDv2_dx"
 "_ZNK5Eigen15TensorEvaluatorIKNS_20TensorCwiseNullaryOpINS_8internal18scalar_constant_opIdEEKNS_15TensorFixedSizeIdNS_5SizesIJLx4ELx5ELx2EEEELi0ExEEEENS_13DefaultDeviceEE10dimensionsEv"
 "_ZNK5Eigen15TensorEvaluatorIKNS_20TensorCwiseNullaryOpINS_8internal18scalar_constant_opIdEEKNS_15TensorFixedSizeIdNS_5SizesIJLx4ELx5ELx2EEEELi0ExEEEENS_13DefaultDeviceEE5coeffEx"
 "_ZNK5Eigen15TensorEvaluatorIKNS_20TensorCwiseNullaryOpINS_8internal18scalar_constant_opIdEEKNS_15TensorFixedSizeIdNS_5SizesIJLx4ELx5ELx2EEEELi0ExEEEENS_13DefaultDeviceEE6packetILi16EEEDv2_dx"
 "_ZNK5Eigen15TensorEvaluatorIKNS_20TensorCwiseNullaryOpINS_8internal18scalar_constant_opIdEEKNS_15TensorFixedSizeIdNS_5SizesIJLx66EEEELi0ExEEEENS_13DefaultDeviceEE10dimensionsEv"
 "_ZNK5Eigen15TensorEvaluatorIKNS_20TensorCwiseNullaryOpINS_8internal18scalar_constant_opIdEEKNS_15TensorFixedSizeIdNS_5SizesIJLx66EEEELi0ExEEEENS_13DefaultDeviceEE5coeffEx"
 "_ZNK5Eigen15TensorEvaluatorIKNS_20TensorCwiseNullaryOpINS_8internal18scalar_constant_opIdEEKNS_15TensorFixedSizeIdNS_5SizesIJLx66EEEELi0ExEEEENS_13DefaultDeviceEE6packetILi16EEEDv2_dx"
 "_ZNK5Eigen15TensorEvaluatorIKNS_20TensorCwiseNullaryOpINS_8internal18scalar_constant_opIdEEKNS_15TensorFixedSizeIdNS_5SizesIJLx66ELx2EEEELi0ExEEEENS_13DefaultDeviceEE10dimensionsEv"
 "_ZNK5Eigen15TensorEvaluatorIKNS_20TensorCwiseNullaryOpINS_8internal18scalar_constant_opIdEEKNS_15TensorFixedSizeIdNS_5SizesIJLx66ELx2EEEELi0ExEEEENS_13DefaultDeviceEE5coeffEx"
 "_ZNK5Eigen15TensorEvaluatorIKNS_20TensorCwiseNullaryOpINS_8internal18scalar_constant_opIdEEKNS_15TensorFixedSizeIdNS_5SizesIJLx66ELx2EEEELi0ExEEEENS_13DefaultDeviceEE6packetILi16EEEDv2_dx"
 "_ZNK5Eigen15TensorEvaluatorIKNS_20TensorCwiseNullaryOpINS_8internal18scalar_constant_opIdEEKNS_15TensorFixedSizeIdNS_5SizesIJLx6ELx4ELx10ELx2EEEELi0ExEEEENS_13DefaultDeviceEE10dimensionsEv"
 "_ZNK5Eigen15TensorEvaluatorIKNS_20TensorCwiseNullaryOpINS_8internal18scalar_constant_opIdEEKNS_15TensorFixedSizeIdNS_5SizesIJLx6ELx4ELx10ELx2EEEELi0ExEEEENS_13DefaultDeviceEE5coeffEx"
 "_ZNK5Eigen15TensorEvaluatorIKNS_20TensorCwiseNullaryOpINS_8internal18scalar_constant_opIdEEKNS_15TensorFixedSizeIdNS_5SizesIJLx6ELx4ELx10ELx2EEEELi0ExEEEENS_13DefaultDeviceEE6packetILi16EEEDv2_dx"
 "_ZNK5Eigen15TensorEvaluatorIKNS_20TensorCwiseNullaryOpINS_8internal18scalar_constant_opIdEEKNS_15TensorFixedSizeIdNS_5SizesIJLx6ELx4ELx5ELx2EEEELi0ExEEEENS_13DefaultDeviceEE10dimensionsEv"
 "_ZNK5Eigen15TensorEvaluatorIKNS_20TensorCwiseNullaryOpINS_8internal18scalar_constant_opIdEEKNS_15TensorFixedSizeIdNS_5SizesIJLx6ELx4ELx5ELx2EEEELi0ExEEEENS_13DefaultDeviceEE5coeffEx"
 "_ZNK5Eigen15TensorEvaluatorIKNS_20TensorCwiseNullaryOpINS_8internal18scalar_constant_opIdEEKNS_15TensorFixedSizeIdNS_5SizesIJLx6ELx4ELx5ELx2EEEELi0ExEEEENS_13DefaultDeviceEE6packetILi16EEEDv2_dx"
 "_ZNK5Eigen15TensorEvaluatorIKNS_20TensorCwiseNullaryOpINS_8internal18scalar_constant_opIdEEKNS_15TensorFixedSizeIdNS_5SizesIJLx7EEEELi0ExEEEENS_13DefaultDeviceEE10dimensionsEv"
 "_ZNK5Eigen15TensorEvaluatorIKNS_20TensorCwiseNullaryOpINS_8internal18scalar_constant_opIdEEKNS_15TensorFixedSizeIdNS_5SizesIJLx7EEEELi0ExEEEENS_13DefaultDeviceEE5coeffEx"
 "_ZNK5Eigen15TensorEvaluatorIKNS_20TensorCwiseNullaryOpINS_8internal18scalar_constant_opIdEEKNS_15TensorFixedSizeIdNS_5SizesIJLx7EEEELi0ExEEEENS_13DefaultDeviceEE6packetILi16EEEDv2_dx"
 "_ZNK5Eigen15TensorEvaluatorIKNS_20TensorCwiseNullaryOpINS_8internal18scalar_constant_opIdEEKNS_15TensorFixedSizeIdNS_5SizesIJLx7ELx15ELx2EEEELi0ExEEEENS_13DefaultDeviceEE10dimensionsEv"
 "_ZNK5Eigen15TensorEvaluatorIKNS_20TensorCwiseNullaryOpINS_8internal18scalar_constant_opIdEEKNS_15TensorFixedSizeIdNS_5SizesIJLx7ELx15ELx2EEEELi0ExEEEENS_13DefaultDeviceEE5coeffEx"
 "_ZNK5Eigen15TensorEvaluatorIKNS_20TensorCwiseNullaryOpINS_8internal18scalar_constant_opIdEEKNS_15TensorFixedSizeIdNS_5SizesIJLx7ELx15ELx2EEEELi0ExEEEENS_13DefaultDeviceEE6packetILi16EEEDv2_dx"
 "_ZNK5Eigen15TensorEvaluatorIKNS_20TensorCwiseNullaryOpINS_8internal18scalar_constant_opIdEEKNS_15TensorFixedSizeIdNS_5SizesIJLx7ELx2EEEELi0ExEEEENS_13DefaultDeviceEE10dimensionsEv"
 "_ZNK5Eigen15TensorEvaluatorIKNS_20TensorCwiseNullaryOpINS_8internal18scalar_constant_opIdEEKNS_15TensorFixedSizeIdNS_5SizesIJLx7ELx2EEEELi0ExEEEENS_13DefaultDeviceEE5coeffEx"
 "_ZNK5Eigen15TensorEvaluatorIKNS_20TensorCwiseNullaryOpINS_8internal18scalar_constant_opIdEEKNS_15TensorFixedSizeIdNS_5SizesIJLx7ELx2EEEELi0ExEEEENS_13DefaultDeviceEE6packetILi16EEEDv2_dx"
 "_ZNK5Eigen15TensorEvaluatorIKNS_20TensorCwiseNullaryOpINS_8internal18scalar_constant_opIdEEKNS_15TensorFixedSizeIdNS_5SizesIJLx7ELx4ELx15ELx2EEEELi0ExEEEENS_13DefaultDeviceEE10dimensionsEv"
 "_ZNK5Eigen15TensorEvaluatorIKNS_20TensorCwiseNullaryOpINS_8internal18scalar_constant_opIdEEKNS_15TensorFixedSizeIdNS_5SizesIJLx7ELx4ELx15ELx2EEEELi0ExEEEENS_13DefaultDeviceEE5coeffEx"
 "_ZNK5Eigen15TensorEvaluatorIKNS_20TensorCwiseNullaryOpINS_8internal18scalar_constant_opIdEEKNS_15TensorFixedSizeIdNS_5SizesIJLx7ELx4ELx15ELx2EEEELi0ExEEEENS_13DefaultDeviceEE6packetILi16EEEDv2_dx"
 "_ZNK5Eigen15TensorEvaluatorIKNS_20TensorCwiseNullaryOpINS_8internal18scalar_constant_opIdEEKNS_15TensorFixedSizeIdNS_5SizesIJLx7ELx4ELx5ELx2EEEELi0ExEEEENS_13DefaultDeviceEE10dimensionsEv"
 "_ZNK5Eigen15TensorEvaluatorIKNS_20TensorCwiseNullaryOpINS_8internal18scalar_constant_opIdEEKNS_15TensorFixedSizeIdNS_5SizesIJLx7ELx4ELx5ELx2EEEELi0ExEEEENS_13DefaultDeviceEE5coeffEx"
 "_ZNK5Eigen15TensorEvaluatorIKNS_20TensorCwiseNullaryOpINS_8internal18scalar_constant_opIdEEKNS_15TensorFixedSizeIdNS_5SizesIJLx7ELx4ELx5ELx2EEEELi0ExEEEENS_13DefaultDeviceEE6packetILi16EEEDv2_dx"
 "_ZNK5Eigen15TensorEvaluatorIKNS_20TensorCwiseNullaryOpINS_8internal18scalar_constant_opIdEEKNS_15TensorFixedSizeIdNS_5SizesIJLx7ELx4ELx66ELx2EEEELi0ExEEEENS_13DefaultDeviceEE10dimensionsEv"
 "_ZNK5Eigen15TensorEvaluatorIKNS_20TensorCwiseNullaryOpINS_8internal18scalar_constant_opIdEEKNS_15TensorFixedSizeIdNS_5SizesIJLx7ELx4ELx66ELx2EEEELi0ExEEEENS_13DefaultDeviceEE5coeffEx"
 "_ZNK5Eigen15TensorEvaluatorIKNS_20TensorCwiseNullaryOpINS_8internal18scalar_constant_opIdEEKNS_15TensorFixedSizeIdNS_5SizesIJLx7ELx4ELx66ELx2EEEELi0ExEEEENS_13DefaultDeviceEE6packetILi16EEEDv2_dx"
 "_ZNK5Eigen15TensorEvaluatorIKNS_20TensorCwiseNullaryOpINS_8internal18scalar_constant_opIdEEKNS_15TensorFixedSizeIdNS_5SizesIJLx7ELx66EEEELi0ExEEEENS_13DefaultDeviceEE10dimensionsEv"
 "_ZNK5Eigen15TensorEvaluatorIKNS_20TensorCwiseNullaryOpINS_8internal18scalar_constant_opIdEEKNS_15TensorFixedSizeIdNS_5SizesIJLx7ELx66EEEELi0ExEEEENS_13DefaultDeviceEE5coeffEx"
 "_ZNK5Eigen15TensorEvaluatorIKNS_20TensorCwiseNullaryOpINS_8internal18scalar_constant_opIdEEKNS_15TensorFixedSizeIdNS_5SizesIJLx7ELx66EEEELi0ExEEEENS_13DefaultDeviceEE6packetILi16EEEDv2_dx"
 "_ZNK5Eigen15TensorEvaluatorIKNS_20TensorCwiseNullaryOpINS_8internal18scalar_constant_opIdEEKNS_15TensorFixedSizeIdNS_5SizesIJLx7ELx66ELx2EEEELi0ExEEEENS_13DefaultDeviceEE10dimensionsEv"
 "_ZNK5Eigen15TensorEvaluatorIKNS_20TensorCwiseNullaryOpINS_8internal18scalar_constant_opIdEEKNS_15TensorFixedSizeIdNS_5SizesIJLx7ELx66ELx2EEEELi0ExEEEENS_13DefaultDeviceEE5coeffEx"
 "_ZNK5Eigen15TensorEvaluatorIKNS_20TensorCwiseNullaryOpINS_8internal18scalar_constant_opIdEEKNS_15TensorFixedSizeIdNS_5SizesIJLx7ELx66ELx2EEEELi0ExEEEENS_13DefaultDeviceEE6packetILi16EEEDv2_dx"
 "_ZNK5Eigen15TensorEvaluatorIKNS_20TensorCwiseNullaryOpINS_8internal18scalar_constant_opIdEEKNS_15TensorFixedSizeIdNS_5SizesIJLx7ELx9EEEELi0ExEEEENS_13DefaultDeviceEE10dimensionsEv"
 "_ZNK5Eigen15TensorEvaluatorIKNS_20TensorCwiseNullaryOpINS_8internal18scalar_constant_opIdEEKNS_15TensorFixedSizeIdNS_5SizesIJLx7ELx9EEEELi0ExEEEENS_13DefaultDeviceEE5coeffEx"
 "_ZNK5Eigen15TensorEvaluatorIKNS_20TensorCwiseNullaryOpINS_8internal18scalar_constant_opIdEEKNS_15TensorFixedSizeIdNS_5SizesIJLx7ELx9EEEELi0ExEEEENS_13DefaultDeviceEE6packetILi16EEEDv2_dx"
 "_ZNK5Eigen15TensorEvaluatorIKNS_20TensorCwiseNullaryOpINS_8internal18scalar_constant_opIdEEKNS_15TensorFixedSizeIdNS_5SizesIJLx7ELx9ELx2EEEELi0ExEEEENS_13DefaultDeviceEE10dimensionsEv"
 "_ZNK5Eigen15TensorEvaluatorIKNS_20TensorCwiseNullaryOpINS_8internal18scalar_constant_opIdEEKNS_15TensorFixedSizeIdNS_5SizesIJLx7ELx9ELx2EEEELi0ExEEEENS_13DefaultDeviceEE5coeffEx"
 "_ZNK5Eigen15TensorEvaluatorIKNS_20TensorCwiseNullaryOpINS_8internal18scalar_constant_opIdEEKNS_15TensorFixedSizeIdNS_5SizesIJLx7ELx9ELx2EEEELi0ExEEEENS_13DefaultDeviceEE6packetILi16EEEDv2_dx"
 "_ZNK5Eigen15TensorEvaluatorIKNS_20TensorCwiseNullaryOpINS_8internal18scalar_constant_opIdEEKNS_15TensorFixedSizeIdNS_5SizesIJLx81EEEELi0ExEEEENS_13DefaultDeviceEE10dimensionsEv"
 "_ZNK5Eigen15TensorEvaluatorIKNS_20TensorCwiseNullaryOpINS_8internal18scalar_constant_opIdEEKNS_15TensorFixedSizeIdNS_5SizesIJLx81EEEELi0ExEEEENS_13DefaultDeviceEE5coeffEx"
 "_ZNK5Eigen15TensorEvaluatorIKNS_20TensorCwiseNullaryOpINS_8internal18scalar_constant_opIdEEKNS_15TensorFixedSizeIdNS_5SizesIJLx81EEEELi0ExEEEENS_13DefaultDeviceEE6packetILi16EEEDv2_dx"
 "_ZNK5Eigen15TensorEvaluatorIKNS_20TensorCwiseNullaryOpINS_8internal18scalar_constant_opIdEEKNS_15TensorFixedSizeIdNS_5SizesIJLx81ELx2EEEELi0ExEEEENS_13DefaultDeviceEE10dimensionsEv"
 "_ZNK5Eigen15TensorEvaluatorIKNS_20TensorCwiseNullaryOpINS_8internal18scalar_constant_opIdEEKNS_15TensorFixedSizeIdNS_5SizesIJLx81ELx2EEEELi0ExEEEENS_13DefaultDeviceEE5coeffEx"
 "_ZNK5Eigen15TensorEvaluatorIKNS_20TensorCwiseNullaryOpINS_8internal18scalar_constant_opIdEEKNS_15TensorFixedSizeIdNS_5SizesIJLx81ELx2EEEELi0ExEEEENS_13DefaultDeviceEE6packetILi16EEEDv2_dx"
 "_ZNK5Eigen15TensorEvaluatorIKNS_20TensorCwiseNullaryOpINS_8internal18scalar_constant_opIdEEKNS_15TensorFixedSizeIdNS_5SizesIJLx9EEEELi0ExEEEENS_13DefaultDeviceEE10dimensionsEv"
 "_ZNK5Eigen15TensorEvaluatorIKNS_20TensorCwiseNullaryOpINS_8internal18scalar_constant_opIdEEKNS_15TensorFixedSizeIdNS_5SizesIJLx9EEEELi0ExEEEENS_13DefaultDeviceEE5coeffEx"
 "_ZNK5Eigen15TensorEvaluatorIKNS_20TensorCwiseNullaryOpINS_8internal18scalar_constant_opIdEEKNS_15TensorFixedSizeIdNS_5SizesIJLx9EEEELi0ExEEEENS_13DefaultDeviceEE6packetILi16EEEDv2_dx"
 "_ZNK5Eigen15TensorEvaluatorIKNS_20TensorCwiseNullaryOpINS_8internal18scalar_constant_opIdEEKNS_15TensorFixedSizeIdNS_5SizesIJLx9ELx2EEEELi0ExEEEENS_13DefaultDeviceEE10dimensionsEv"
 "_ZNK5Eigen15TensorEvaluatorIKNS_20TensorCwiseNullaryOpINS_8internal18scalar_constant_opIdEEKNS_15TensorFixedSizeIdNS_5SizesIJLx9ELx2EEEELi0ExEEEENS_13DefaultDeviceEE5coeffEx"
 "_ZNK5Eigen15TensorEvaluatorIKNS_20TensorCwiseNullaryOpINS_8internal18scalar_constant_opIdEEKNS_15TensorFixedSizeIdNS_5SizesIJLx9ELx2EEEELi0ExEEEENS_13DefaultDeviceEE6packetILi16EEEDv2_dx"
 "_ZNK5Eigen15TensorEvaluatorIKNS_20TensorCwiseNullaryOpINS_8internal18scalar_constant_opIdEEKNS_6TensorIdLi1ELi0ExEEEENS_13DefaultDeviceEE10dimensionsEv"
 "_ZNK5Eigen15TensorEvaluatorIKNS_20TensorCwiseNullaryOpINS_8internal18scalar_constant_opIdEEKNS_6TensorIdLi1ELi0ExEEEENS_13DefaultDeviceEE5coeffEx"
 "_ZNK5Eigen15TensorEvaluatorIKNS_20TensorCwiseNullaryOpINS_8internal18scalar_constant_opIdEEKNS_6TensorIdLi1ELi0ExEEEENS_13DefaultDeviceEE6packetILi16EEEDv2_dx"
 "_ZNK5Eigen15TensorEvaluatorIKNS_20TensorCwiseNullaryOpINS_8internal18scalar_constant_opIdEEKNS_6TensorIdLi2ELi0ExEEEENS_13DefaultDeviceEE10dimensionsEv"
 "_ZNK5Eigen15TensorEvaluatorIKNS_20TensorCwiseNullaryOpINS_8internal18scalar_constant_opIdEEKNS_6TensorIdLi2ELi0ExEEEENS_13DefaultDeviceEE5coeffEx"
 "_ZNK5Eigen15TensorEvaluatorIKNS_20TensorCwiseNullaryOpINS_8internal18scalar_constant_opIdEEKNS_6TensorIdLi2ELi0ExEEEENS_13DefaultDeviceEE6packetILi16EEEDv2_dx"
 "_ZNK5Eigen15TensorEvaluatorIKNS_20TensorCwiseNullaryOpINS_8internal18scalar_constant_opIdEEKNS_6TensorIdLi3ELi0ExEEEENS_13DefaultDeviceEE10dimensionsEv"
 "_ZNK5Eigen15TensorEvaluatorIKNS_20TensorCwiseNullaryOpINS_8internal18scalar_constant_opIdEEKNS_6TensorIdLi3ELi0ExEEEENS_13DefaultDeviceEE5coeffEx"
 "_ZNK5Eigen15TensorEvaluatorIKNS_20TensorCwiseNullaryOpINS_8internal18scalar_constant_opIdEEKNS_6TensorIdLi3ELi0ExEEEENS_13DefaultDeviceEE6packetILi16EEEDv2_dx"
 "_ZNK5Eigen15TensorEvaluatorIKNS_20TensorCwiseNullaryOpINS_8internal18scalar_constant_opIdEEKNS_6TensorIdLi4ELi0ExEEEENS_13DefaultDeviceEE10dimensionsEv"
 "_ZNK5Eigen15TensorEvaluatorIKNS_20TensorCwiseNullaryOpINS_8internal18scalar_constant_opIdEEKNS_6TensorIdLi4ELi0ExEEEENS_13DefaultDeviceEE5coeffEx"
 "_ZNK5Eigen15TensorEvaluatorIKNS_20TensorCwiseNullaryOpINS_8internal18scalar_constant_opIdEEKNS_6TensorIdLi4ELi0ExEEEENS_13DefaultDeviceEE6packetILi16EEEDv2_dx"
 "_ZNK5Eigen15TensorEvaluatorIKNS_20TensorCwiseNullaryOpINS_8internal18scalar_constant_opIdEEKNS_6TensorIdLi5ELi0ExEEEENS_13DefaultDeviceEE10dimensionsEv"
 "_ZNK5Eigen15TensorEvaluatorIKNS_20TensorCwiseNullaryOpINS_8internal18scalar_constant_opIdEEKNS_6TensorIdLi5ELi0ExEEEENS_13DefaultDeviceEE5coeffEx"
 "_ZNK5Eigen15TensorEvaluatorIKNS_20TensorCwiseNullaryOpINS_8internal18scalar_constant_opIdEEKNS_6TensorIdLi5ELi0ExEEEENS_13DefaultDeviceEE6packetILi16EEEDv2_dx"
 "_ZNK5Eigen15TensorEvaluatorIKNS_6TensorIdLi1ELi0ExEENS_13DefaultDeviceEE10dimensionsEv"
 "_ZNK5Eigen15TensorEvaluatorIKNS_6TensorIdLi2ELi0ExEENS_13DefaultDeviceEE10dimensionsEv"
 "_ZNK5Eigen15TensorEvaluatorIKNS_6TensorIdLi3ELi0ExEENS_13DefaultDeviceEE10dimensionsEv"
 "_ZNK5Eigen15TensorEvaluatorIKNS_6TensorIdLi4ELi0ExEENS_13DefaultDeviceEE10dimensionsEv"
 "_ZNK5Eigen15TensorEvaluatorIKNS_6TensorIdLi5ELi0ExEENS_13DefaultDeviceEE10dimensionsEv"
 "_ZNK5Eigen15TensorEvaluatorIKNS_9TensorMapINS_6TensorIdLi1ELi0ExEELi0ENS_11MakePointerEEENS_13DefaultDeviceEE10dimensionsEv"
 "_ZNK5Eigen15TensorEvaluatorIKNS_9TensorMapINS_6TensorIdLi1ELi0ExEELi0ENS_11MakePointerEEENS_13DefaultDeviceEE5coeffEx"
 "_ZNK5Eigen15TensorEvaluatorIKNS_9TensorMapINS_6TensorIdLi1ELi0ExEELi0ENS_11MakePointerEEENS_13DefaultDeviceEE6packetILi0EEEDv2_dx"
 "_ZNK5Eigen15TensorEvaluatorIKNS_9TensorMapINS_6TensorIdLi2ELi0ExEELi0ENS_11MakePointerEEENS_13DefaultDeviceEE10dimensionsEv"
 "_ZNK5Eigen15TensorEvaluatorIKNS_9TensorMapINS_6TensorIdLi2ELi0ExEELi0ENS_11MakePointerEEENS_13DefaultDeviceEE5coeffEx"
 "_ZNK5Eigen15TensorEvaluatorIKNS_9TensorMapINS_6TensorIdLi2ELi0ExEELi0ENS_11MakePointerEEENS_13DefaultDeviceEE6packetILi0EEEDv2_dx"
 "_ZNK5Eigen15TensorEvaluatorIKNS_9TensorMapINS_6TensorIdLi3ELi0ExEELi0ENS_11MakePointerEEENS_13DefaultDeviceEE10dimensionsEv"
 "_ZNK5Eigen15TensorEvaluatorIKNS_9TensorMapINS_6TensorIdLi3ELi0ExEELi0ENS_11MakePointerEEENS_13DefaultDeviceEE5coeffEx"
 "_ZNK5Eigen15TensorEvaluatorIKNS_9TensorMapINS_6TensorIdLi3ELi0ExEELi0ENS_11MakePointerEEENS_13DefaultDeviceEE6packetILi0EEEDv2_dx"
 "_ZNK5Eigen15TensorEvaluatorIKNS_9TensorMapINS_6TensorIdLi4ELi0ExEELi0ENS_11MakePointerEEENS_13DefaultDeviceEE10dimensionsEv"
 "_ZNK5Eigen15TensorEvaluatorIKNS_9TensorMapINS_6TensorIdLi4ELi0ExEELi0ENS_11MakePointerEEENS_13DefaultDeviceEE5coeffEx"
 "_ZNK5Eigen15TensorEvaluatorIKNS_9TensorMapINS_6TensorIdLi4ELi0ExEELi0ENS_11MakePointerEEENS_13DefaultDeviceEE6packetILi0EEEDv2_dx"
 "_ZNK5Eigen15TensorEvaluatorINS_15TensorFixedSizeIdNS_5SizesIJLx2EEEELi0ExEENS_13DefaultDeviceEE10dimensionsEv"
 "_ZNK5Eigen15TensorEvaluatorINS_15TensorFixedSizeIdNS_5SizesIJLx2EEEELi0ExEENS_13DefaultDeviceEE4dataEv"
 "_ZNK5Eigen15TensorEvaluatorINS_15TensorFixedSizeIdNS_5SizesIJLx3EEEELi0ExEENS_13DefaultDeviceEE10dimensionsEv"
 "_ZNK5Eigen15TensorEvaluatorINS_15TensorFixedSizeIdNS_5SizesIJLx3EEEELi0ExEENS_13DefaultDeviceEE4dataEv"
 "_ZNK5Eigen15TensorEvaluatorINS_15TensorFixedSizeIdNS_5SizesIJLx3ELx6ELx10ELx2EEEELi0ExEENS_13DefaultDeviceEE10dimensionsEv"
 "_ZNK5Eigen15TensorEvaluatorINS_15TensorFixedSizeIdNS_5SizesIJLx3ELx6ELx10ELx2EEEELi0ExEENS_13DefaultDeviceEE4dataEv"
 "_ZNK5Eigen15TensorEvaluatorINS_15TensorFixedSizeIdNS_5SizesIJLx3ELx7ELx2EEEELi0ExEENS_13DefaultDeviceEE10dimensionsEv"
 "_ZNK5Eigen15TensorEvaluatorINS_15TensorFixedSizeIdNS_5SizesIJLx3ELx7ELx2EEEELi0ExEENS_13DefaultDeviceEE4dataEv"
 "_ZNK5Eigen15TensorEvaluatorINS_15TensorFixedSizeIdNS_5SizesIJLx3ELx7ELx5ELx2EEEELi0ExEENS_13DefaultDeviceEE10dimensionsEv"
 "_ZNK5Eigen15TensorEvaluatorINS_15TensorFixedSizeIdNS_5SizesIJLx3ELx7ELx5ELx2EEEELi0ExEENS_13DefaultDeviceEE4dataEv"
 "_ZNK5Eigen15TensorEvaluatorINS_15TensorFixedSizeIdNS_5SizesIJLx3ELx7ELx66ELx2EEEELi0ExEENS_13DefaultDeviceEE10dimensionsEv"
 "_ZNK5Eigen15TensorEvaluatorINS_15TensorFixedSizeIdNS_5SizesIJLx3ELx7ELx66ELx2EEEELi0ExEENS_13DefaultDeviceEE4dataEv"
 "_ZNK5Eigen15TensorEvaluatorINS_15TensorFixedSizeIdNS_5SizesIJLx3ELx7ELx9ELx2EEEELi0ExEENS_13DefaultDeviceEE10dimensionsEv"
 "_ZNK5Eigen15TensorEvaluatorINS_15TensorFixedSizeIdNS_5SizesIJLx3ELx7ELx9ELx2EEEELi0ExEENS_13DefaultDeviceEE4dataEv"
 "_ZNK5Eigen15TensorEvaluatorINS_15TensorFixedSizeIdNS_5SizesIJLx4EEEELi0ExEENS_13DefaultDeviceEE10dimensionsEv"
 "_ZNK5Eigen15TensorEvaluatorINS_15TensorFixedSizeIdNS_5SizesIJLx4EEEELi0ExEENS_13DefaultDeviceEE4dataEv"
 "_ZNK5Eigen15TensorEvaluatorINS_15TensorFixedSizeIdNS_5SizesIJLx4ELx5ELx2EEEELi0ExEENS_13DefaultDeviceEE10dimensionsEv"
 "_ZNK5Eigen15TensorEvaluatorINS_15TensorFixedSizeIdNS_5SizesIJLx4ELx5ELx2EEEELi0ExEENS_13DefaultDeviceEE4dataEv"
 "_ZNK5Eigen15TensorEvaluatorINS_15TensorFixedSizeIdNS_5SizesIJLx66EEEELi0ExEENS_13DefaultDeviceEE10dimensionsEv"
 "_ZNK5Eigen15TensorEvaluatorINS_15TensorFixedSizeIdNS_5SizesIJLx66EEEELi0ExEENS_13DefaultDeviceEE4dataEv"
 "_ZNK5Eigen15TensorEvaluatorINS_15TensorFixedSizeIdNS_5SizesIJLx66ELx2EEEELi0ExEENS_13DefaultDeviceEE10dimensionsEv"
 "_ZNK5Eigen15TensorEvaluatorINS_15TensorFixedSizeIdNS_5SizesIJLx66ELx2EEEELi0ExEENS_13DefaultDeviceEE4dataEv"
 "_ZNK5Eigen15TensorEvaluatorINS_15TensorFixedSizeIdNS_5SizesIJLx6ELx4ELx10ELx2EEEELi0ExEENS_13DefaultDeviceEE10dimensionsEv"
 "_ZNK5Eigen15TensorEvaluatorINS_15TensorFixedSizeIdNS_5SizesIJLx6ELx4ELx10ELx2EEEELi0ExEENS_13DefaultDeviceEE4dataEv"
 "_ZNK5Eigen15TensorEvaluatorINS_15TensorFixedSizeIdNS_5SizesIJLx6ELx4ELx5ELx2EEEELi0ExEENS_13DefaultDeviceEE10dimensionsEv"
 "_ZNK5Eigen15TensorEvaluatorINS_15TensorFixedSizeIdNS_5SizesIJLx6ELx4ELx5ELx2EEEELi0ExEENS_13DefaultDeviceEE4dataEv"
 "_ZNK5Eigen15TensorEvaluatorINS_15TensorFixedSizeIdNS_5SizesIJLx7EEEELi0ExEENS_13DefaultDeviceEE10dimensionsEv"
 "_ZNK5Eigen15TensorEvaluatorINS_15TensorFixedSizeIdNS_5SizesIJLx7EEEELi0ExEENS_13DefaultDeviceEE4dataEv"
 "_ZNK5Eigen15TensorEvaluatorINS_15TensorFixedSizeIdNS_5SizesIJLx7ELx15ELx2EEEELi0ExEENS_13DefaultDeviceEE10dimensionsEv"
 "_ZNK5Eigen15TensorEvaluatorINS_15TensorFixedSizeIdNS_5SizesIJLx7ELx15ELx2EEEELi0ExEENS_13DefaultDeviceEE4dataEv"
 "_ZNK5Eigen15TensorEvaluatorINS_15TensorFixedSizeIdNS_5SizesIJLx7ELx2EEEELi0ExEENS_13DefaultDeviceEE10dimensionsEv"
 "_ZNK5Eigen15TensorEvaluatorINS_15TensorFixedSizeIdNS_5SizesIJLx7ELx2EEEELi0ExEENS_13DefaultDeviceEE4dataEv"
 "_ZNK5Eigen15TensorEvaluatorINS_15TensorFixedSizeIdNS_5SizesIJLx7ELx4ELx15ELx2EEEELi0ExEENS_13DefaultDeviceEE10dimensionsEv"
 "_ZNK5Eigen15TensorEvaluatorINS_15TensorFixedSizeIdNS_5SizesIJLx7ELx4ELx15ELx2EEEELi0ExEENS_13DefaultDeviceEE4dataEv"
 "_ZNK5Eigen15TensorEvaluatorINS_15TensorFixedSizeIdNS_5SizesIJLx7ELx4ELx5ELx2EEEELi0ExEENS_13DefaultDeviceEE10dimensionsEv"
 "_ZNK5Eigen15TensorEvaluatorINS_15TensorFixedSizeIdNS_5SizesIJLx7ELx4ELx5ELx2EEEELi0ExEENS_13DefaultDeviceEE4dataEv"
 "_ZNK5Eigen15TensorEvaluatorINS_15TensorFixedSizeIdNS_5SizesIJLx7ELx4ELx66ELx2EEEELi0ExEENS_13DefaultDeviceEE10dimensionsEv"
 "_ZNK5Eigen15TensorEvaluatorINS_15TensorFixedSizeIdNS_5SizesIJLx7ELx4ELx66ELx2EEEELi0ExEENS_13DefaultDeviceEE4dataEv"
 "_ZNK5Eigen15TensorEvaluatorINS_15TensorFixedSizeIdNS_5SizesIJLx7ELx66EEEELi0ExEENS_13DefaultDeviceEE10dimensionsEv"
 "_ZNK5Eigen15TensorEvaluatorINS_15TensorFixedSizeIdNS_5SizesIJLx7ELx66EEEELi0ExEENS_13DefaultDeviceEE4dataEv"
 "_ZNK5Eigen15TensorEvaluatorINS_15TensorFixedSizeIdNS_5SizesIJLx7ELx66ELx2EEEELi0ExEENS_13DefaultDeviceEE10dimensionsEv"
 "_ZNK5Eigen15TensorEvaluatorINS_15TensorFixedSizeIdNS_5SizesIJLx7ELx66ELx2EEEELi0ExEENS_13DefaultDeviceEE4dataEv"
 "_ZNK5Eigen15TensorEvaluatorINS_15TensorFixedSizeIdNS_5SizesIJLx7ELx9EEEELi0ExEENS_13DefaultDeviceEE10dimensionsEv"
 "_ZNK5Eigen15TensorEvaluatorINS_15TensorFixedSizeIdNS_5SizesIJLx7ELx9EEEELi0ExEENS_13DefaultDeviceEE4dataEv"
 "_ZNK5Eigen15TensorEvaluatorINS_15TensorFixedSizeIdNS_5SizesIJLx7ELx9ELx2EEEELi0ExEENS_13DefaultDeviceEE10dimensionsEv"
 "_ZNK5Eigen15TensorEvaluatorINS_15TensorFixedSizeIdNS_5SizesIJLx7ELx9ELx2EEEELi0ExEENS_13DefaultDeviceEE4dataEv"
 "_ZNK5Eigen15TensorEvaluatorINS_15TensorFixedSizeIdNS_5SizesIJLx81EEEELi0ExEENS_13DefaultDeviceEE10dimensionsEv"
 "_ZNK5Eigen15TensorEvaluatorINS_15TensorFixedSizeIdNS_5SizesIJLx81EEEELi0ExEENS_13DefaultDeviceEE4dataEv"
 "_ZNK5Eigen15TensorEvaluatorINS_15TensorFixedSizeIdNS_5SizesIJLx81ELx2EEEELi0ExEENS_13DefaultDeviceEE10dimensionsEv"
 "_ZNK5Eigen15TensorEvaluatorINS_15TensorFixedSizeIdNS_5SizesIJLx81ELx2EEEELi0ExEENS_13DefaultDeviceEE4dataEv"
 "_ZNK5Eigen15TensorEvaluatorINS_15TensorFixedSizeIdNS_5SizesIJLx9EEEELi0ExEENS_13DefaultDeviceEE10dimensionsEv"
 "_ZNK5Eigen15TensorEvaluatorINS_15TensorFixedSizeIdNS_5SizesIJLx9EEEELi0ExEENS_13DefaultDeviceEE4dataEv"
 "_ZNK5Eigen15TensorEvaluatorINS_15TensorFixedSizeIdNS_5SizesIJLx9ELx2EEEELi0ExEENS_13DefaultDeviceEE10dimensionsEv"
 "_ZNK5Eigen15TensorEvaluatorINS_15TensorFixedSizeIdNS_5SizesIJLx9ELx2EEEELi0ExEENS_13DefaultDeviceEE4dataEv"
 "_ZNK5Eigen15TensorEvaluatorINS_6TensorIdLi1ELi0ExEENS_13DefaultDeviceEE10dimensionsEv"
 "_ZNK5Eigen15TensorEvaluatorINS_6TensorIdLi1ELi0ExEENS_13DefaultDeviceEE4dataEv"
 "_ZNK5Eigen15TensorEvaluatorINS_6TensorIdLi2ELi0ExEENS_13DefaultDeviceEE10dimensionsEv"
 "_ZNK5Eigen15TensorEvaluatorINS_6TensorIdLi2ELi0ExEENS_13DefaultDeviceEE4dataEv"
 "_ZNK5Eigen15TensorEvaluatorINS_6TensorIdLi3ELi0ExEENS_13DefaultDeviceEE10dimensionsEv"
 "_ZNK5Eigen15TensorEvaluatorINS_6TensorIdLi3ELi0ExEENS_13DefaultDeviceEE4dataEv"
 "_ZNK5Eigen15TensorEvaluatorINS_6TensorIdLi4ELi0ExEENS_13DefaultDeviceEE10dimensionsEv"
 "_ZNK5Eigen15TensorEvaluatorINS_6TensorIdLi4ELi0ExEENS_13DefaultDeviceEE4dataEv"
 "_ZNK5Eigen15TensorEvaluatorINS_6TensorIdLi5ELi0ExEENS_13DefaultDeviceEE10dimensionsEv"
 "_ZNK5Eigen15TensorEvaluatorINS_6TensorIdLi5ELi0ExEENS_13DefaultDeviceEE4dataEv"
 "_ZNK5Eigen15TensorFixedSizeIdNS_5SizesIJLx2EEEELi0ExE10dimensionsEv"
 "_ZNK5Eigen15TensorFixedSizeIdNS_5SizesIJLx2EEEELi0ExE4dataEv"
 "_ZNK5Eigen15TensorFixedSizeIdNS_5SizesIJLx2EEEELi0ExE4sizeEv"
 "_ZNK5Eigen15TensorFixedSizeIdNS_5SizesIJLx3EEEELi0ExE10dimensionsEv"
 "_ZNK5Eigen15TensorFixedSizeIdNS_5SizesIJLx3EEEELi0ExE4dataEv"
 "_ZNK5Eigen15TensorFixedSizeIdNS_5SizesIJLx3EEEELi0ExE4sizeEv"
 "_ZNK5Eigen15TensorFixedSizeIdNS_5SizesIJLx3ELx6ELx10ELx2EEEELi0ExE10dimensionsEv"
 "_ZNK5Eigen15TensorFixedSizeIdNS_5SizesIJLx3ELx6ELx10ELx2EEEELi0ExE15checkIndexRangeERKSt5arrayIxLy4EE"
 "_ZNK5Eigen15TensorFixedSizeIdNS_5SizesIJLx3ELx6ELx10ELx2EEEELi0ExE15linearizedIndexERKSt5arrayIxLy4EE"
 "_ZNK5Eigen15TensorFixedSizeIdNS_5SizesIJLx3ELx6ELx10ELx2EEEELi0ExE4dataEv"
 "_ZNK5Eigen15TensorFixedSizeIdNS_5SizesIJLx3ELx6ELx10ELx2EEEELi0ExE4sizeEv"
 "_ZNK5Eigen15TensorFixedSizeIdNS_5SizesIJLx3ELx6ELx10ELx2EEEELi0ExE5coeffERKSt5arrayIxLy4EE"
 "_ZNK5Eigen15TensorFixedSizeIdNS_5SizesIJLx3ELx6ELx10ELx2EEEELi0ExEclERKSt5arrayIxLy4EE"
 "_ZNK5Eigen15TensorFixedSizeIdNS_5SizesIJLx3ELx6ELx10ELx2EEEELi0ExEclIJiiiEEERKdxDpT_"
 "_ZNK5Eigen15TensorFixedSizeIdNS_5SizesIJLx3ELx7ELx2EEEELi0ExE10dimensionsEv"
 "_ZNK5Eigen15TensorFixedSizeIdNS_5SizesIJLx3ELx7ELx2EEEELi0ExE15checkIndexRangeERKSt5arrayIxLy3EE"
 "_ZNK5Eigen15TensorFixedSizeIdNS_5SizesIJLx3ELx7ELx2EEEELi0ExE15linearizedIndexERKSt5arrayIxLy3EE"
 "_ZNK5Eigen15TensorFixedSizeIdNS_5SizesIJLx3ELx7ELx2EEEELi0ExE4dataEv"
 "_ZNK5Eigen15TensorFixedSizeIdNS_5SizesIJLx3ELx7ELx5ELx2EEEELi0ExE10dimensionsEv"
 "_ZNK5Eigen15TensorFixedSizeIdNS_5SizesIJLx3ELx7ELx5ELx2EEEELi0ExE15checkIndexRangeERKSt5arrayIxLy4EE"
 "_ZNK5Eigen15TensorFixedSizeIdNS_5SizesIJLx3ELx7ELx5ELx2EEEELi0ExE15linearizedIndexERKSt5arrayIxLy4EE"
 "_ZNK5Eigen15TensorFixedSizeIdNS_5SizesIJLx3ELx7ELx5ELx2EEEELi0ExE4dataEv"
 "_ZNK5Eigen15TensorFixedSizeIdNS_5SizesIJLx3ELx7ELx5ELx2EEEELi0ExE4sizeEv"
 "_ZNK5Eigen15TensorFixedSizeIdNS_5SizesIJLx3ELx7ELx5ELx2EEEELi0ExE5coeffERKSt5arrayIxLy4EE"
 "_ZNK5Eigen15TensorFixedSizeIdNS_5SizesIJLx3ELx7ELx5ELx2EEEELi0ExEclERKSt5arrayIxLy4EE"
 "_ZNK5Eigen15TensorFixedSizeIdNS_5SizesIJLx3ELx7ELx5ELx2EEEELi0ExEclIJiiiEEERKdxDpT_"
 "_ZNK5Eigen15TensorFixedSizeIdNS_5SizesIJLx3ELx7ELx66ELx2EEEELi0ExE10dimensionsEv"
 "_ZNK5Eigen15TensorFixedSizeIdNS_5SizesIJLx3ELx7ELx66ELx2EEEELi0ExE15checkIndexRangeERKSt5arrayIxLy4EE"
 "_ZNK5Eigen15TensorFixedSizeIdNS_5SizesIJLx3ELx7ELx66ELx2EEEELi0ExE15linearizedIndexERKSt5arrayIxLy4EE"
 "_ZNK5Eigen15TensorFixedSizeIdNS_5SizesIJLx3ELx7ELx66ELx2EEEELi0ExE4dataEv"
 "_ZNK5Eigen15TensorFixedSizeIdNS_5SizesIJLx3ELx7ELx66ELx2EEEELi0ExE4sizeEv"
 "_ZNK5Eigen15TensorFixedSizeIdNS_5SizesIJLx3ELx7ELx66ELx2EEEELi0ExE5coeffERKSt5arrayIxLy4EE"
 "_ZNK5Eigen15TensorFixedSizeIdNS_5SizesIJLx3ELx7ELx66ELx2EEEELi0ExEclERKSt5arrayIxLy4EE"
 "_ZNK5Eigen15TensorFixedSizeIdNS_5SizesIJLx3ELx7ELx66ELx2EEEELi0ExEclIJiiiEEERKdxDpT_"
 "_ZNK5Eigen15TensorFixedSizeIdNS_5SizesIJLx3ELx7ELx9ELx2EEEELi0ExE10dimensionsEv"
 "_ZNK5Eigen15TensorFixedSizeIdNS_5SizesIJLx3ELx7ELx9ELx2EEEELi0ExE15checkIndexRangeERKSt5arrayIxLy4EE"
 "_ZNK5Eigen15TensorFixedSizeIdNS_5SizesIJLx3ELx7ELx9ELx2EEEELi0ExE15linearizedIndexERKSt5arrayIxLy4EE"
 "_ZNK5Eigen15TensorFixedSizeIdNS_5SizesIJLx3ELx7ELx9ELx2EEEELi0ExE4dataEv"
 "_ZNK5Eigen15TensorFixedSizeIdNS_5SizesIJLx3ELx7ELx9ELx2EEEELi0ExE4sizeEv"
 "_ZNK5Eigen15TensorFixedSizeIdNS_5SizesIJLx3ELx7ELx9ELx2EEEELi0ExE5coeffERKSt5arrayIxLy4EE"
 "_ZNK5Eigen15TensorFixedSizeIdNS_5SizesIJLx3ELx7ELx9ELx2EEEELi0ExEclERKSt5arrayIxLy4EE"
 "_ZNK5Eigen15TensorFixedSizeIdNS_5SizesIJLx3ELx7ELx9ELx2EEEELi0ExEclIJiiiEEERKdxDpT_"
 "_ZNK5Eigen15TensorFixedSizeIdNS_5SizesIJLx4EEEELi0ExE10dimensionsEv"
 "_ZNK5Eigen15TensorFixedSizeIdNS_5SizesIJLx4EEEELi0ExE4dataEv"
 "_ZNK5Eigen15TensorFixedSizeIdNS_5SizesIJLx4EEEELi0ExE4sizeEv"
 "_ZNK5Eigen15TensorFixedSizeIdNS_5SizesIJLx4ELx5ELx2EEEELi0ExE10dimensionsEv"
 "_ZNK5Eigen15TensorFixedSizeIdNS_5SizesIJLx4ELx5ELx2EEEELi0ExE15checkIndexRangeERKSt5arrayIxLy3EE"
 "_ZNK5Eigen15TensorFixedSizeIdNS_5SizesIJLx4ELx5ELx2EEEELi0ExE15linearizedIndexERKSt5arrayIxLy3EE"
 "_ZNK5Eigen15TensorFixedSizeIdNS_5SizesIJLx4ELx5ELx2EEEELi0ExE4dataEv"
 "_ZNK5Eigen15TensorFixedSizeIdNS_5SizesIJLx4ELx5ELx2EEEELi0ExE4sizeEv"
 "_ZNK5Eigen15TensorFixedSizeIdNS_5SizesIJLx66EEEELi0ExE10dimensionsEv"
 "_ZNK5Eigen15TensorFixedSizeIdNS_5SizesIJLx66EEEELi0ExE4dataEv"
 "_ZNK5Eigen15TensorFixedSizeIdNS_5SizesIJLx66EEEELi0ExE4sizeEv"
 "_ZNK5Eigen15TensorFixedSizeIdNS_5SizesIJLx66ELx2EEEELi0ExE10dimensionsEv"
 "_ZNK5Eigen15TensorFixedSizeIdNS_5SizesIJLx66ELx2EEEELi0ExE15checkIndexRangeERKSt5arrayIxLy2EE"
 "_ZNK5Eigen15TensorFixedSizeIdNS_5SizesIJLx66ELx2EEEELi0ExE15linearizedIndexERKSt5arrayIxLy2EE"
 "_ZNK5Eigen15TensorFixedSizeIdNS_5SizesIJLx66ELx2EEEELi0ExE4dataEv"
 "_ZNK5Eigen15TensorFixedSizeIdNS_5SizesIJLx6ELx4ELx10ELx2EEEELi0ExE10dimensionsEv"
 "_ZNK5Eigen15TensorFixedSizeIdNS_5SizesIJLx6ELx4ELx10ELx2EEEELi0ExE15checkIndexRangeERKSt5arrayIxLy4EE"
 "_ZNK5Eigen15TensorFixedSizeIdNS_5SizesIJLx6ELx4ELx10ELx2EEEELi0ExE15linearizedIndexERKSt5arrayIxLy4EE"
 "_ZNK5Eigen15TensorFixedSizeIdNS_5SizesIJLx6ELx4ELx10ELx2EEEELi0ExE4dataEv"
 "_ZNK5Eigen15TensorFixedSizeIdNS_5SizesIJLx6ELx4ELx10ELx2EEEELi0ExE4sizeEv"
 "_ZNK5Eigen15TensorFixedSizeIdNS_5SizesIJLx6ELx4ELx10ELx2EEEELi0ExE5coeffERKSt5arrayIxLy4EE"
 "_ZNK5Eigen15TensorFixedSizeIdNS_5SizesIJLx6ELx4ELx10ELx2EEEELi0ExEclERKSt5arrayIxLy4EE"
 "_ZNK5Eigen15TensorFixedSizeIdNS_5SizesIJLx6ELx4ELx10ELx2EEEELi0ExEclIJiiiEEERKdxDpT_"
 "_ZNK5Eigen15TensorFixedSizeIdNS_5SizesIJLx6ELx4ELx5ELx2EEEELi0ExE10dimensionsEv"
 "_ZNK5Eigen15TensorFixedSizeIdNS_5SizesIJLx6ELx4ELx5ELx2EEEELi0ExE15checkIndexRangeERKSt5arrayIxLy4EE"
 "_ZNK5Eigen15TensorFixedSizeIdNS_5SizesIJLx6ELx4ELx5ELx2EEEELi0ExE15linearizedIndexERKSt5arrayIxLy4EE"
 "_ZNK5Eigen15TensorFixedSizeIdNS_5SizesIJLx6ELx4ELx5ELx2EEEELi0ExE4dataEv"
 "_ZNK5Eigen15TensorFixedSizeIdNS_5SizesIJLx6ELx4ELx5ELx2EEEELi0ExE4sizeEv"
 "_ZNK5Eigen15TensorFixedSizeIdNS_5SizesIJLx7EEEELi0ExE10dimensionsEv"
 "_ZNK5Eigen15TensorFixedSizeIdNS_5SizesIJLx7EEEELi0ExE4dataEv"
 "_ZNK5Eigen15TensorFixedSizeIdNS_5SizesIJLx7EEEELi0ExE4sizeEv"
 "_ZNK5Eigen15TensorFixedSizeIdNS_5SizesIJLx7ELx15ELx2EEEELi0ExE10dimensionsEv"
 "_ZNK5Eigen15TensorFixedSizeIdNS_5SizesIJLx7ELx15ELx2EEEELi0ExE15checkIndexRangeERKSt5arrayIxLy3EE"
 "_ZNK5Eigen15TensorFixedSizeIdNS_5SizesIJLx7ELx15ELx2EEEELi0ExE15linearizedIndexERKSt5arrayIxLy3EE"
 "_ZNK5Eigen15TensorFixedSizeIdNS_5SizesIJLx7ELx15ELx2EEEELi0ExE4dataEv"
 "_ZNK5Eigen15TensorFixedSizeIdNS_5SizesIJLx7ELx2EEEELi0ExE10dimensionsEv"
 "_ZNK5Eigen15TensorFixedSizeIdNS_5SizesIJLx7ELx2EEEELi0ExE15checkIndexRangeERKSt5arrayIxLy2EE"
 "_ZNK5Eigen15TensorFixedSizeIdNS_5SizesIJLx7ELx2EEEELi0ExE15linearizedIndexERKSt5arrayIxLy2EE"
 "_ZNK5Eigen15TensorFixedSizeIdNS_5SizesIJLx7ELx2EEEELi0ExE4dataEv"
 "_ZNK5Eigen15TensorFixedSizeIdNS_5SizesIJLx7ELx4ELx15ELx2EEEELi0ExE10dimensionsEv"
 "_ZNK5Eigen15TensorFixedSizeIdNS_5SizesIJLx7ELx4ELx15ELx2EEEELi0ExE15checkIndexRangeERKSt5arrayIxLy4EE"
 "_ZNK5Eigen15TensorFixedSizeIdNS_5SizesIJLx7ELx4ELx15ELx2EEEELi0ExE15linearizedIndexERKSt5arrayIxLy4EE"
 "_ZNK5Eigen15TensorFixedSizeIdNS_5SizesIJLx7ELx4ELx15ELx2EEEELi0ExE4dataEv"
 "_ZNK5Eigen15TensorFixedSizeIdNS_5SizesIJLx7ELx4ELx15ELx2EEEELi0ExE4sizeEv"
 "_ZNK5Eigen15TensorFixedSizeIdNS_5SizesIJLx7ELx4ELx5ELx2EEEELi0ExE10dimensionsEv"
 "_ZNK5Eigen15TensorFixedSizeIdNS_5SizesIJLx7ELx4ELx5ELx2EEEELi0ExE15checkIndexRangeERKSt5arrayIxLy4EE"
 "_ZNK5Eigen15TensorFixedSizeIdNS_5SizesIJLx7ELx4ELx5ELx2EEEELi0ExE15linearizedIndexERKSt5arrayIxLy4EE"
 "_ZNK5Eigen15TensorFixedSizeIdNS_5SizesIJLx7ELx4ELx5ELx2EEEELi0ExE4dataEv"
 "_ZNK5Eigen15TensorFixedSizeIdNS_5SizesIJLx7ELx4ELx5ELx2EEEELi0ExE4sizeEv"
 "_ZNK5Eigen15TensorFixedSizeIdNS_5SizesIJLx7ELx4ELx5ELx2EEEELi0ExE5coeffERKSt5arrayIxLy4EE"
 "_ZNK5Eigen15TensorFixedSizeIdNS_5SizesIJLx7ELx4ELx5ELx2EEEELi0ExEclERKSt5arrayIxLy4EE"
 "_ZNK5Eigen15TensorFixedSizeIdNS_5SizesIJLx7ELx4ELx5ELx2EEEELi0ExEclIJiiiEEERKdxDpT_"
 "_ZNK5Eigen15TensorFixedSizeIdNS_5SizesIJLx7ELx4ELx66ELx2EEEELi0ExE10dimensionsEv"
 "_ZNK5Eigen15TensorFixedSizeIdNS_5SizesIJLx7ELx4ELx66ELx2EEEELi0ExE15checkIndexRangeERKSt5arrayIxLy4EE"
 "_ZNK5Eigen15TensorFixedSizeIdNS_5SizesIJLx7ELx4ELx66ELx2EEEELi0ExE15linearizedIndexERKSt5arrayIxLy4EE"
 "_ZNK5Eigen15TensorFixedSizeIdNS_5SizesIJLx7ELx4ELx66ELx2EEEELi0ExE4dataEv"
 "_ZNK5Eigen15TensorFixedSizeIdNS_5SizesIJLx7ELx66EEEELi0ExE10dimensionsEv"
 "_ZNK5Eigen15TensorFixedSizeIdNS_5SizesIJLx7ELx66EEEELi0ExE15checkIndexRangeERKSt5arrayIxLy2EE"
 "_ZNK5Eigen15TensorFixedSizeIdNS_5SizesIJLx7ELx66EEEELi0ExE15linearizedIndexERKSt5arrayIxLy2EE"
 "_ZNK5Eigen15TensorFixedSizeIdNS_5SizesIJLx7ELx66EEEELi0ExE4dataEv"
 "_ZNK5Eigen15TensorFixedSizeIdNS_5SizesIJLx7ELx66ELx2EEEELi0ExE10dimensionsEv"
 "_ZNK5Eigen15TensorFixedSizeIdNS_5SizesIJLx7ELx66ELx2EEEELi0ExE15checkIndexRangeERKSt5arrayIxLy3EE"
 "_ZNK5Eigen15TensorFixedSizeIdNS_5SizesIJLx7ELx66ELx2EEEELi0ExE15linearizedIndexERKSt5arrayIxLy3EE"
 "_ZNK5Eigen15TensorFixedSizeIdNS_5SizesIJLx7ELx66ELx2EEEELi0ExE4dataEv"
 "_ZNK5Eigen15TensorFixedSizeIdNS_5SizesIJLx7ELx66ELx2EEEELi0ExE4sizeEv"
 "_ZNK5Eigen15TensorFixedSizeIdNS_5SizesIJLx7ELx66ELx2EEEELi0ExE5coeffERKSt5arrayIxLy3EE"
 "_ZNK5Eigen15TensorFixedSizeIdNS_5SizesIJLx7ELx66ELx2EEEELi0ExEclERKSt5arrayIxLy3EE"
 "_ZNK5Eigen15TensorFixedSizeIdNS_5SizesIJLx7ELx66ELx2EEEELi0ExEclIJiiEEERKdxDpT_"
 "_ZNK5Eigen15TensorFixedSizeIdNS_5SizesIJLx7ELx9EEEELi0ExE10dimensionsEv"
 "_ZNK5Eigen15TensorFixedSizeIdNS_5SizesIJLx7ELx9EEEELi0ExE15checkIndexRangeERKSt5arrayIxLy2EE"
 "_ZNK5Eigen15TensorFixedSizeIdNS_5SizesIJLx7ELx9EEEELi0ExE15linearizedIndexERKSt5arrayIxLy2EE"
 "_ZNK5Eigen15TensorFixedSizeIdNS_5SizesIJLx7ELx9EEEELi0ExE4dataEv"
 "_ZNK5Eigen15TensorFixedSizeIdNS_5SizesIJLx7ELx9ELx2EEEELi0ExE10dimensionsEv"
 "_ZNK5Eigen15TensorFixedSizeIdNS_5SizesIJLx7ELx9ELx2EEEELi0ExE15checkIndexRangeERKSt5arrayIxLy3EE"
 "_ZNK5Eigen15TensorFixedSizeIdNS_5SizesIJLx7ELx9ELx2EEEELi0ExE15linearizedIndexERKSt5arrayIxLy3EE"
 "_ZNK5Eigen15TensorFixedSizeIdNS_5SizesIJLx7ELx9ELx2EEEELi0ExE4dataEv"
 "_ZNK5Eigen15TensorFixedSizeIdNS_5SizesIJLx7ELx9ELx2EEEELi0ExE4sizeEv"
 "_ZNK5Eigen15TensorFixedSizeIdNS_5SizesIJLx7ELx9ELx2EEEELi0ExE5coeffERKSt5arrayIxLy3EE"
 "_ZNK5Eigen15TensorFixedSizeIdNS_5SizesIJLx7ELx9ELx2EEEELi0ExEclERKSt5arrayIxLy3EE"
 "_ZNK5Eigen15TensorFixedSizeIdNS_5SizesIJLx7ELx9ELx2EEEELi0ExEclIJiiEEERKdxDpT_"
 "_ZNK5Eigen15TensorFixedSizeIdNS_5SizesIJLx81EEEELi0ExE10dimensionsEv"
 "_ZNK5Eigen15TensorFixedSizeIdNS_5SizesIJLx81EEEELi0ExE4dataEv"
 "_ZNK5Eigen15TensorFixedSizeIdNS_5SizesIJLx81EEEELi0ExE4sizeEv"
 "_ZNK5Eigen15TensorFixedSizeIdNS_5SizesIJLx81ELx2EEEELi0ExE10dimensionsEv"
 "_ZNK5Eigen15TensorFixedSizeIdNS_5SizesIJLx81ELx2EEEELi0ExE15checkIndexRangeERKSt5arrayIxLy2EE"
 "_ZNK5Eigen15TensorFixedSizeIdNS_5SizesIJLx81ELx2EEEELi0ExE15linearizedIndexERKSt5arrayIxLy2EE"
 "_ZNK5Eigen15TensorFixedSizeIdNS_5SizesIJLx81ELx2EEEELi0ExE4dataEv"
 "_ZNK5Eigen15TensorFixedSizeIdNS_5SizesIJLx81ELx2EEEELi0ExE4sizeEv"
 "_ZNK5Eigen15TensorFixedSizeIdNS_5SizesIJLx81ELx2EEEELi0ExE5coeffERKSt5arrayIxLy2EE"
 "_ZNK5Eigen15TensorFixedSizeIdNS_5SizesIJLx81ELx2EEEELi0ExEclERKSt5arrayIxLy2EE"
 "_ZNK5Eigen15TensorFixedSizeIdNS_5SizesIJLx81ELx2EEEELi0ExEclIJiEEERKdxDpT_"
 "_ZNK5Eigen15TensorFixedSizeIdNS_5SizesIJLx9EEEELi0ExE10dimensionsEv"
 "_ZNK5Eigen15TensorFixedSizeIdNS_5SizesIJLx9EEEELi0ExE4dataEv"
 "_ZNK5Eigen15TensorFixedSizeIdNS_5SizesIJLx9EEEELi0ExE4sizeEv"
 "_ZNK5Eigen15TensorFixedSizeIdNS_5SizesIJLx9ELx2EEEELi0ExE10dimensionsEv"
 "_ZNK5Eigen15TensorFixedSizeIdNS_5SizesIJLx9ELx2EEEELi0ExE15checkIndexRangeERKSt5arrayIxLy2EE"
 "_ZNK5Eigen15TensorFixedSizeIdNS_5SizesIJLx9ELx2EEEELi0ExE15linearizedIndexERKSt5arrayIxLy2EE"
 "_ZNK5Eigen15TensorFixedSizeIdNS_5SizesIJLx9ELx2EEEELi0ExE4dataEv"
 "_ZNK5Eigen16TensorChippingOpILxn1ENS_6TensorIdLi2ELi0ExEEE10expressionEv"
 "_ZNK5Eigen16TensorChippingOpILxn1ENS_6TensorIdLi2ELi0ExEEE3dimEv"
 "_ZNK5Eigen16TensorChippingOpILxn1ENS_6TensorIdLi2ELi0ExEEE6offsetEv"
 "_ZNK5Eigen16TensorChippingOpILxn1ENS_6TensorIdLi3ELi0ExEEE10expressionEv"
 "_ZNK5Eigen16TensorChippingOpILxn1ENS_6TensorIdLi3ELi0ExEEE3dimEv"
 "_ZNK5Eigen16TensorChippingOpILxn1ENS_6TensorIdLi3ELi0ExEEE6offsetEv"
 "_ZNK5Eigen16TensorChippingOpILxn1ENS_6TensorIdLi4ELi0ExEEE10expressionEv"
 "_ZNK5Eigen16TensorChippingOpILxn1ENS_6TensorIdLi4ELi0ExEEE3dimEv"
 "_ZNK5Eigen16TensorChippingOpILxn1ENS_6TensorIdLi4ELi0ExEEE6offsetEv"
 "_ZNK5Eigen16TensorChippingOpILxn1ENS_6TensorIdLi5ELi0ExEEE10expressionEv"
 "_ZNK5Eigen16TensorChippingOpILxn1ENS_6TensorIdLi5ELi0ExEEE3dimEv"
 "_ZNK5Eigen16TensorChippingOpILxn1ENS_6TensorIdLi5ELi0ExEEE6offsetEv"
 "_ZNK5Eigen20TensorCwiseNullaryOpINS_8internal18scalar_constant_opIdEEKNS_15TensorFixedSizeIdNS_5SizesIJLx2EEEELi0ExEEE16nestedExpressionEv"
 "_ZNK5Eigen20TensorCwiseNullaryOpINS_8internal18scalar_constant_opIdEEKNS_15TensorFixedSizeIdNS_5SizesIJLx2EEEELi0ExEEE7functorEv"
 "_ZNK5Eigen20TensorCwiseNullaryOpINS_8internal18scalar_constant_opIdEEKNS_15TensorFixedSizeIdNS_5SizesIJLx3EEEELi0ExEEE16nestedExpressionEv"
 "_ZNK5Eigen20TensorCwiseNullaryOpINS_8internal18scalar_constant_opIdEEKNS_15TensorFixedSizeIdNS_5SizesIJLx3EEEELi0ExEEE7functorEv"
 "_ZNK5Eigen20TensorCwiseNullaryOpINS_8internal18scalar_constant_opIdEEKNS_15TensorFixedSizeIdNS_5SizesIJLx3ELx6ELx10ELx2EEEELi0ExEEE16nestedExpressionEv"
 "_ZNK5Eigen20TensorCwiseNullaryOpINS_8internal18scalar_constant_opIdEEKNS_15TensorFixedSizeIdNS_5SizesIJLx3ELx6ELx10ELx2EEEELi0ExEEE7functorEv"
 "_ZNK5Eigen20TensorCwiseNullaryOpINS_8internal18scalar_constant_opIdEEKNS_15TensorFixedSizeIdNS_5SizesIJLx3ELx7ELx2EEEELi0ExEEE16nestedExpressionEv"
 "_ZNK5Eigen20TensorCwiseNullaryOpINS_8internal18scalar_constant_opIdEEKNS_15TensorFixedSizeIdNS_5SizesIJLx3ELx7ELx2EEEELi0ExEEE7functorEv"
 "_ZNK5Eigen20TensorCwiseNullaryOpINS_8internal18scalar_constant_opIdEEKNS_15TensorFixedSizeIdNS_5SizesIJLx3ELx7ELx5ELx2EEEELi0ExEEE16nestedExpressionEv"
 "_ZNK5Eigen20TensorCwiseNullaryOpINS_8internal18scalar_constant_opIdEEKNS_15TensorFixedSizeIdNS_5SizesIJLx3ELx7ELx5ELx2EEEELi0ExEEE7functorEv"
 "_ZNK5Eigen20TensorCwiseNullaryOpINS_8internal18scalar_constant_opIdEEKNS_15TensorFixedSizeIdNS_5SizesIJLx3ELx7ELx66ELx2EEEELi0ExEEE16nestedExpressionEv"
 "_ZNK5Eigen20TensorCwiseNullaryOpINS_8internal18scalar_constant_opIdEEKNS_15TensorFixedSizeIdNS_5SizesIJLx3ELx7ELx66ELx2EEEELi0ExEEE7functorEv"
 "_ZNK5Eigen20TensorCwiseNullaryOpINS_8internal18scalar_constant_opIdEEKNS_15TensorFixedSizeIdNS_5SizesIJLx3ELx7ELx9ELx2EEEELi0ExEEE16nestedExpressionEv"
 "_ZNK5Eigen20TensorCwiseNullaryOpINS_8internal18scalar_constant_opIdEEKNS_15TensorFixedSizeIdNS_5SizesIJLx3ELx7ELx9ELx2EEEELi0ExEEE7functorEv"
 "_ZNK5Eigen20TensorCwiseNullaryOpINS_8internal18scalar_constant_opIdEEKNS_15TensorFixedSizeIdNS_5SizesIJLx4EEEELi0ExEEE16nestedExpressionEv"
 "_ZNK5Eigen20TensorCwiseNullaryOpINS_8internal18scalar_constant_opIdEEKNS_15TensorFixedSizeIdNS_5SizesIJLx4EEEELi0ExEEE7functorEv"
 "_ZNK5Eigen20TensorCwiseNullaryOpINS_8internal18scalar_constant_opIdEEKNS_15TensorFixedSizeIdNS_5SizesIJLx4ELx5ELx2EEEELi0ExEEE16nestedExpressionEv"
 "_ZNK5Eigen20TensorCwiseNullaryOpINS_8internal18scalar_constant_opIdEEKNS_15TensorFixedSizeIdNS_5SizesIJLx4ELx5ELx2EEEELi0ExEEE7functorEv"
 "_ZNK5Eigen20TensorCwiseNullaryOpINS_8internal18scalar_constant_opIdEEKNS_15TensorFixedSizeIdNS_5SizesIJLx66EEEELi0ExEEE16nestedExpressionEv"
 "_ZNK5Eigen20TensorCwiseNullaryOpINS_8internal18scalar_constant_opIdEEKNS_15TensorFixedSizeIdNS_5SizesIJLx66EEEELi0ExEEE7functorEv"
 "_ZNK5Eigen20TensorCwiseNullaryOpINS_8internal18scalar_constant_opIdEEKNS_15TensorFixedSizeIdNS_5SizesIJLx66ELx2EEEELi0ExEEE16nestedExpressionEv"
 "_ZNK5Eigen20TensorCwiseNullaryOpINS_8internal18scalar_constant_opIdEEKNS_15TensorFixedSizeIdNS_5SizesIJLx66ELx2EEEELi0ExEEE7functorEv"
 "_ZNK5Eigen20TensorCwiseNullaryOpINS_8internal18scalar_constant_opIdEEKNS_15TensorFixedSizeIdNS_5SizesIJLx6ELx4ELx10ELx2EEEELi0ExEEE16nestedExpressionEv"
 "_ZNK5Eigen20TensorCwiseNullaryOpINS_8internal18scalar_constant_opIdEEKNS_15TensorFixedSizeIdNS_5SizesIJLx6ELx4ELx10ELx2EEEELi0ExEEE7functorEv"
 "_ZNK5Eigen20TensorCwiseNullaryOpINS_8internal18scalar_constant_opIdEEKNS_15TensorFixedSizeIdNS_5SizesIJLx6ELx4ELx5ELx2EEEELi0ExEEE16nestedExpressionEv"
 "_ZNK5Eigen20TensorCwiseNullaryOpINS_8internal18scalar_constant_opIdEEKNS_15TensorFixedSizeIdNS_5SizesIJLx6ELx4ELx5ELx2EEEELi0ExEEE7functorEv"
 "_ZNK5Eigen20TensorCwiseNullaryOpINS_8internal18scalar_constant_opIdEEKNS_15TensorFixedSizeIdNS_5SizesIJLx7EEEELi0ExEEE16nestedExpressionEv"
 "_ZNK5Eigen20TensorCwiseNullaryOpINS_8internal18scalar_constant_opIdEEKNS_15TensorFixedSizeIdNS_5SizesIJLx7EEEELi0ExEEE7functorEv"
 "_ZNK5Eigen20TensorCwiseNullaryOpINS_8internal18scalar_constant_opIdEEKNS_15TensorFixedSizeIdNS_5SizesIJLx7ELx15ELx2EEEELi0ExEEE16nestedExpressionEv"
 "_ZNK5Eigen20TensorCwiseNullaryOpINS_8internal18scalar_constant_opIdEEKNS_15TensorFixedSizeIdNS_5SizesIJLx7ELx15ELx2EEEELi0ExEEE7functorEv"
 "_ZNK5Eigen20TensorCwiseNullaryOpINS_8internal18scalar_constant_opIdEEKNS_15TensorFixedSizeIdNS_5SizesIJLx7ELx2EEEELi0ExEEE16nestedExpressionEv"
 "_ZNK5Eigen20TensorCwiseNullaryOpINS_8internal18scalar_constant_opIdEEKNS_15TensorFixedSizeIdNS_5SizesIJLx7ELx2EEEELi0ExEEE7functorEv"
 "_ZNK5Eigen20TensorCwiseNullaryOpINS_8internal18scalar_constant_opIdEEKNS_15TensorFixedSizeIdNS_5SizesIJLx7ELx4ELx15ELx2EEEELi0ExEEE16nestedExpressionEv"
 "_ZNK5Eigen20TensorCwiseNullaryOpINS_8internal18scalar_constant_opIdEEKNS_15TensorFixedSizeIdNS_5SizesIJLx7ELx4ELx15ELx2EEEELi0ExEEE7functorEv"
 "_ZNK5Eigen20TensorCwiseNullaryOpINS_8internal18scalar_constant_opIdEEKNS_15TensorFixedSizeIdNS_5SizesIJLx7ELx4ELx5ELx2EEEELi0ExEEE16nestedExpressionEv"
 "_ZNK5Eigen20TensorCwiseNullaryOpINS_8internal18scalar_constant_opIdEEKNS_15TensorFixedSizeIdNS_5SizesIJLx7ELx4ELx5ELx2EEEELi0ExEEE7functorEv"
 "_ZNK5Eigen20TensorCwiseNullaryOpINS_8internal18scalar_constant_opIdEEKNS_15TensorFixedSizeIdNS_5SizesIJLx7ELx4ELx66ELx2EEEELi0ExEEE16nestedExpressionEv"
 "_ZNK5Eigen20TensorCwiseNullaryOpINS_8internal18scalar_constant_opIdEEKNS_15TensorFixedSizeIdNS_5SizesIJLx7ELx4ELx66ELx2EEEELi0ExEEE7functorEv"
 "_ZNK5Eigen20TensorCwiseNullaryOpINS_8internal18scalar_constant_opIdEEKNS_15TensorFixedSizeIdNS_5SizesIJLx7ELx66EEEELi0ExEEE16nestedExpressionEv"
 "_ZNK5Eigen20TensorCwiseNullaryOpINS_8internal18scalar_constant_opIdEEKNS_15TensorFixedSizeIdNS_5SizesIJLx7ELx66EEEELi0ExEEE7functorEv"
 "_ZNK5Eigen20TensorCwiseNullaryOpINS_8internal18scalar_constant_opIdEEKNS_15TensorFixedSizeIdNS_5SizesIJLx7ELx66ELx2EEEELi0ExEEE16nestedExpressionEv"
 "_ZNK5Eigen20TensorCwiseNullaryOpINS_8internal18scalar_constant_opIdEEKNS_15TensorFixedSizeIdNS_5SizesIJLx7ELx66ELx2EEEELi0ExEEE7functorEv"
 "_ZNK5Eigen20TensorCwiseNullaryOpINS_8internal18scalar_constant_opIdEEKNS_15TensorFixedSizeIdNS_5SizesIJLx7ELx9EEEELi0ExEEE16nestedExpressionEv"
 "_ZNK5Eigen20TensorCwiseNullaryOpINS_8internal18scalar_constant_opIdEEKNS_15TensorFixedSizeIdNS_5SizesIJLx7ELx9EEEELi0ExEEE7functorEv"
 "_ZNK5Eigen20TensorCwiseNullaryOpINS_8internal18scalar_constant_opIdEEKNS_15TensorFixedSizeIdNS_5SizesIJLx7ELx9ELx2EEEELi0ExEEE16nestedExpressionEv"
 "_ZNK5Eigen20TensorCwiseNullaryOpINS_8internal18scalar_constant_opIdEEKNS_15TensorFixedSizeIdNS_5SizesIJLx7ELx9ELx2EEEELi0ExEEE7functorEv"
 "_ZNK5Eigen20TensorCwiseNullaryOpINS_8internal18scalar_constant_opIdEEKNS_15TensorFixedSizeIdNS_5SizesIJLx81EEEELi0ExEEE16nestedExpressionEv"
 "_ZNK5Eigen20TensorCwiseNullaryOpINS_8internal18scalar_constant_opIdEEKNS_15TensorFixedSizeIdNS_5SizesIJLx81EEEELi0ExEEE7functorEv"
 "_ZNK5Eigen20TensorCwiseNullaryOpINS_8internal18scalar_constant_opIdEEKNS_15TensorFixedSizeIdNS_5SizesIJLx81ELx2EEEELi0ExEEE16nestedExpressionEv"
 "_ZNK5Eigen20TensorCwiseNullaryOpINS_8internal18scalar_constant_opIdEEKNS_15TensorFixedSizeIdNS_5SizesIJLx81ELx2EEEELi0ExEEE7functorEv"
 "_ZNK5Eigen20TensorCwiseNullaryOpINS_8internal18scalar_constant_opIdEEKNS_15TensorFixedSizeIdNS_5SizesIJLx9EEEELi0ExEEE16nestedExpressionEv"
 "_ZNK5Eigen20TensorCwiseNullaryOpINS_8internal18scalar_constant_opIdEEKNS_15TensorFixedSizeIdNS_5SizesIJLx9EEEELi0ExEEE7functorEv"
 "_ZNK5Eigen20TensorCwiseNullaryOpINS_8internal18scalar_constant_opIdEEKNS_15TensorFixedSizeIdNS_5SizesIJLx9ELx2EEEELi0ExEEE16nestedExpressionEv"
 "_ZNK5Eigen20TensorCwiseNullaryOpINS_8internal18scalar_constant_opIdEEKNS_15TensorFixedSizeIdNS_5SizesIJLx9ELx2EEEELi0ExEEE7functorEv"
 "_ZNK5Eigen20TensorCwiseNullaryOpINS_8internal18scalar_constant_opIdEEKNS_6TensorIdLi1ELi0ExEEE16nestedExpressionEv"
 "_ZNK5Eigen20TensorCwiseNullaryOpINS_8internal18scalar_constant_opIdEEKNS_6TensorIdLi1ELi0ExEEE7functorEv"
 "_ZNK5Eigen20TensorCwiseNullaryOpINS_8internal18scalar_constant_opIdEEKNS_6TensorIdLi2ELi0ExEEE16nestedExpressionEv"
 "_ZNK5Eigen20TensorCwiseNullaryOpINS_8internal18scalar_constant_opIdEEKNS_6TensorIdLi2ELi0ExEEE7functorEv"
 "_ZNK5Eigen20TensorCwiseNullaryOpINS_8internal18scalar_constant_opIdEEKNS_6TensorIdLi3ELi0ExEEE16nestedExpressionEv"
 "_ZNK5Eigen20TensorCwiseNullaryOpINS_8internal18scalar_constant_opIdEEKNS_6TensorIdLi3ELi0ExEEE7functorEv"
 "_ZNK5Eigen20TensorCwiseNullaryOpINS_8internal18scalar_constant_opIdEEKNS_6TensorIdLi4ELi0ExEEE16nestedExpressionEv"
 "_ZNK5Eigen20TensorCwiseNullaryOpINS_8internal18scalar_constant_opIdEEKNS_6TensorIdLi4ELi0ExEEE7functorEv"
 "_ZNK5Eigen20TensorCwiseNullaryOpINS_8internal18scalar_constant_opIdEEKNS_6TensorIdLi5ELi0ExEEE16nestedExpressionEv"
 "_ZNK5Eigen20TensorCwiseNullaryOpINS_8internal18scalar_constant_opIdEEKNS_6TensorIdLi5ELi0ExEEE7functorEv"
 "_ZNK5Eigen5SizesIJLx3ELx6ELx10ELx2EEE15IndexOfColMajorIxEEyRKSt5arrayIT_Ly4EE"
 "_ZNK5Eigen5SizesIJLx3ELx7ELx2EEE15IndexOfColMajorIxEEyRKSt5arrayIT_Ly3EE"
 "_ZNK5Eigen5SizesIJLx3ELx7ELx5ELx2EEE15IndexOfColMajorIxEEyRKSt5arrayIT_Ly4EE"
 "_ZNK5Eigen5SizesIJLx3ELx7ELx66ELx2EEE15IndexOfColMajorIxEEyRKSt5arrayIT_Ly4EE"
 "_ZNK5Eigen5SizesIJLx3ELx7ELx9ELx2EEE15IndexOfColMajorIxEEyRKSt5arrayIT_Ly4EE"
 "_ZNK5Eigen5SizesIJLx4ELx5ELx2EEE15IndexOfColMajorIxEEyRKSt5arrayIT_Ly3EE"
 "_ZNK5Eigen5SizesIJLx66ELx2EEE15IndexOfColMajorIxEEyRKSt5arrayIT_Ly2EE"
 "_ZNK5Eigen5SizesIJLx6ELx4ELx10ELx2EEE15IndexOfColMajorIxEEyRKSt5arrayIT_Ly4EE"
 "_ZNK5Eigen5SizesIJLx6ELx4ELx5ELx2EEE15IndexOfColMajorIxEEyRKSt5arrayIT_Ly4EE"
 "_ZNK5Eigen5SizesIJLx7ELx15ELx2EEE15IndexOfColMajorIxEEyRKSt5arrayIT_Ly3EE"
 "_ZNK5Eigen5SizesIJLx7ELx2EEE15IndexOfColMajorIxEEyRKSt5arrayIT_Ly2EE"
 "_ZNK5Eigen5SizesIJLx7ELx4ELx15ELx2EEE15IndexOfColMajorIxEEyRKSt5arrayIT_Ly4EE"
 "_ZNK5Eigen5SizesIJLx7ELx4ELx5ELx2EEE15IndexOfColMajorIxEEyRKSt5arrayIT_Ly4EE"
 "_ZNK5Eigen5SizesIJLx7ELx4ELx66ELx2EEE15IndexOfColMajorIxEEyRKSt5arrayIT_Ly4EE"
 "_ZNK5Eigen5SizesIJLx7ELx66EEE15IndexOfColMajorIxEEyRKSt5arrayIT_Ly2EE"
 "_ZNK5Eigen5SizesIJLx7ELx66ELx2EEE15IndexOfColMajorIxEEyRKSt5arrayIT_Ly3EE"
 "_ZNK5Eigen5SizesIJLx7ELx9EEE15IndexOfColMajorIxEEyRKSt5arrayIT_Ly2EE"
 "_ZNK5Eigen5SizesIJLx7ELx9ELx2EEE15IndexOfColMajorIxEEyRKSt5arrayIT_Ly3EE"
 "_ZNK5Eigen5SizesIJLx81ELx2EEE15IndexOfColMajorIxEEyRKSt5arrayIT_Ly2EE"
 "_ZNK5Eigen5SizesIJLx9ELx2EEE15IndexOfColMajorIxEEyRKSt5arrayIT_Ly2EE"
 "_ZNK5Eigen6DSizesIxLi1EE9TotalSizeEv"
 "_ZNK5Eigen6DSizesIxLi2EE15IndexOfColMajorERKSt5arrayIxLy2EE"
 "_ZNK5Eigen6DSizesIxLi2EE9TotalSizeEv"
 "_ZNK5Eigen6DSizesIxLi3EE15IndexOfColMajorERKSt5arrayIxLy3EE"
 "_ZNK5Eigen6DSizesIxLi3EE9TotalSizeEv"
 "_ZNK5Eigen6DSizesIxLi4EE15IndexOfColMajorERKSt5arrayIxLy4EE"
 "_ZNK5Eigen6DSizesIxLi4EE9TotalSizeEv"
 "_ZNK5Eigen6DSizesIxLi5EE9TotalSizeEv"
 "_ZNK5Eigen6TensorIdLi1ELi0ExE10dimensionsEv"
 "_ZNK5Eigen6TensorIdLi1ELi0ExE4dataEv"
 "_ZNK5Eigen6TensorIdLi1ELi0ExE4sizeEv"
 "_ZNK5Eigen6TensorIdLi2ELi0ExE10dimensionsEv"
 "_ZNK5Eigen6TensorIdLi2ELi0ExE4dataEv"
 "_ZNK5Eigen6TensorIdLi2ELi0ExE4sizeEv"
 "_ZNK5Eigen6TensorIdLi3ELi0ExE10dimensionsEv"
 "_ZNK5Eigen6TensorIdLi3ELi0ExE4dataEv"
 "_ZNK5Eigen6TensorIdLi3ELi0ExE4sizeEv"
 "_ZNK5Eigen6TensorIdLi4ELi0ExE10dimensionsEv"
 "_ZNK5Eigen6TensorIdLi4ELi0ExE4dataEv"
 "_ZNK5Eigen6TensorIdLi4ELi0ExE4sizeEv"
 "_ZNK5Eigen6TensorIdLi5ELi0ExE10dimensionsEv"
 "_ZNK5Eigen6TensorIdLi5ELi0ExE4dataEv"
 "_ZNK5Eigen6TensorIdLi5ELi0ExE4sizeEv"
 "_ZNK5Eigen8internal11DimensionIdILxn1EE9actualDimEv"
 "_ZNK5Eigen8internal15nullary_wrapperIdNS0_18scalar_constant_opIdEELb1ELb0ELb0EE8packetOpIDv2_dxEET_RKS3_T0_SA_"
 "_ZNK5Eigen8internal15nullary_wrapperIdNS0_18scalar_constant_opIdEELb1ELb0ELb0EEclIxEEdRKS3_T_S8_"
 "_ZNK5Eigen8internal18scalar_constant_opIdE8packetOpIDv2_dEEKT_v"
 "_ZNK5Eigen8internal18scalar_constant_opIdEclEv"
 "_ZNK5Eigen9TensorMapINS_6TensorIdLi1ELi0ExEELi0ENS_11MakePointerEE10dimensionsEv"
 "_ZNK5Eigen9TensorMapINS_6TensorIdLi1ELi0ExEELi0ENS_11MakePointerEE4dataEv"
 "_ZNK5Eigen9TensorMapINS_6TensorIdLi1ELi0ExEELi0ENS_11MakePointerEEclEx"
 "_ZNK5Eigen9TensorMapINS_6TensorIdLi2ELi0ExEELi0ENS_11MakePointerEE10dimensionsEv"
 "_ZNK5Eigen9TensorMapINS_6TensorIdLi2ELi0ExEELi0ENS_11MakePointerEE4dataEv"
 "_ZNK5Eigen9TensorMapINS_6TensorIdLi2ELi0ExEELi0ENS_11MakePointerEEclIJEEERKdxxDpT_"
 "_ZNK5Eigen9TensorMapINS_6TensorIdLi3ELi0ExEELi0ENS_11MakePointerEE10dimensionsEv"
 "_ZNK5Eigen9TensorMapINS_6TensorIdLi3ELi0ExEELi0ENS_11MakePointerEE4dataEv"
 "_ZNK5Eigen9TensorMapINS_6TensorIdLi3ELi0ExEELi0ENS_11MakePointerEEclIJiEEERKdxxDpT_"
 "_ZNK5Eigen9TensorMapINS_6TensorIdLi4ELi0ExEELi0ENS_11MakePointerEE10dimensionsEv"
 "_ZNK5Eigen9TensorMapINS_6TensorIdLi4ELi0ExEELi0ENS_11MakePointerEE4dataEv"
 "_ZNK5Eigen9TensorMapINS_6TensorIdLi4ELi0ExEELi0ENS_11MakePointerEEclIJiiEEERKdxxDpT_"
 "_ZNK5Eigen9TensorMapINS_6TensorIiLi1ELi0ExEELi0ENS_11MakePointerEEclEx"
 "_ZNK5Eigen9TensorMapINS_6TensorIiLi2ELi0ExEELi0ENS_11MakePointerEEclIJEEERKixxDpT_"
 "_ZNK9__gnu_cxx17__normal_iteratorIPKiSt6vectorIiSaIiEEE4baseEv"
 "_ZNK9__gnu_cxx17__normal_iteratorIPKiSt6vectorIiSaIiEEEdeEv"
 "_ZNK9__gnu_cxx5__ops15_Iter_less_iterclINS_17__normal_iteratorIPKiSt6vectorIiSaIiEEEES9_EEbT_T0_"
